	.arch armv7-a
	.fpu softvfp
	.eabi_attribute 20, 1
	.eabi_attribute 21, 1
	.eabi_attribute 23, 3
	.eabi_attribute 24, 1
	.eabi_attribute 25, 1
	.eabi_attribute 26, 2
	.eabi_attribute 30, 2
	.eabi_attribute 18, 4
	.file	"drv_ca_otp_v200.c"
@ GNU C (Hisilicon_v200(gcc4.4-290+glibc-2.11+eabi+nptl)) version 4.4.1 (arm-hisiv200-linux-gnueabi)
@	compiled by GNU C version 4.1.1 20061011 (Red Hat 4.1.1-30), GMP version 4.3.1, MPFR version 2.4.2.
@ GGC heuristics: --param ggc-min-expand=100 --param ggc-min-heapsize=131072
@ options passed:  -nostdinc
@ -I/home/x57522/X5HD/04.Locals/STBLinuxV1R2/Build/HiSTBLinuxV100R002C00SPC020/source/kernel/linux-3.4.y/arch/arm/include
@ -Iarch/arm/include/generated -Iinclude
@ -I/home/x57522/X5HD/04.Locals/STBLinuxV1R2/Build/HiSTBLinuxV100R002C00SPC020/source/kernel/linux-3.4.y/include
@ -I/home/x57522/X5HD/04.Locals/STBLinuxV1R2/Build/HiSTBLinuxV100R002C00SPC020/source/kernel/linux-3.4.y/drivers/msp/advca
@ -Idrivers/msp/advca
@ -I/home/x57522/X5HD/04.Locals/STBLinuxV1R2/Build/HiSTBLinuxV100R002C00SPC020/source/kernel/linux-3.4.y/arch/arm/mach-s40/include
@ -I/home/x57522/X5HD/04.Locals/STBLinuxV1R2/Build/HiSTBLinuxV100R002C00SPC020/source/kernel/linux-3.4.y/../../../source/common/include
@ -I/home/x57522/X5HD/04.Locals/STBLinuxV1R2/Build/HiSTBLinuxV100R002C00SPC020/source/kernel/linux-3.4.y/../../../source/common/api/include
@ -I/home/x57522/X5HD/04.Locals/STBLinuxV1R2/Build/HiSTBLinuxV100R002C00SPC020/source/kernel/linux-3.4.y/../../../source/common/drv/include
@ -I/home/x57522/X5HD/04.Locals/STBLinuxV1R2/Build/HiSTBLinuxV100R002C00SPC020/source/kernel/linux-3.4.y/../../../source/msp/include
@ -I/home/x57522/X5HD/04.Locals/STBLinuxV1R2/Build/HiSTBLinuxV100R002C00SPC020/source/kernel/linux-3.4.y/../../../source/msp/api/include
@ -I/home/x57522/X5HD/04.Locals/STBLinuxV1R2/Build/HiSTBLinuxV100R002C00SPC020/source/kernel/linux-3.4.y/../../../source/msp/drv/include
@ -I/home/x57522/X5HD/04.Locals/STBLinuxV1R2/Build/HiSTBLinuxV100R002C00SPC020/source/kernel/linux-3.4.y/../../../source/msp/include
@ -I/home/x57522/X5HD/04.Locals/STBLinuxV1R2/Build/HiSTBLinuxV100R002C00SPC020/source/kernel/linux-3.4.y/../../../source/msp/drv/include
@ -I/home/x57522/X5HD/04.Locals/STBLinuxV1R2/Build/HiSTBLinuxV100R002C00SPC020/source/kernel/linux-3.4.y/../../../source/msp/drv/advca
@ -I/home/x57522/X5HD/04.Locals/STBLinuxV1R2/Build/HiSTBLinuxV100R002C00SPC020/source/kernel/linux-3.4.y/../../../source/msp/drv/advca/V200
@ -I/home/x57522/X5HD/04.Locals/STBLinuxV1R2/Build/HiSTBLinuxV100R002C00SPC020/source/kernel/linux-3.4.y/../../../source/msp/drv/advca/V300
@ -I/home/x57522/X5HD/04.Locals/STBLinuxV1R2/Build/HiSTBLinuxV100R002C00SPC020/source/kernel/linux-3.4.y/../../../source/msp/drv/advca/ca_otp
@ -I/home/x57522/X5HD/04.Locals/STBLinuxV1R2/Build/HiSTBLinuxV100R002C00SPC020/source/kernel/linux-3.4.y/../../../source/msp/drv/advca/ca_otp/ca_otpv100
@ -I/home/x57522/X5HD/04.Locals/STBLinuxV1R2/Build/HiSTBLinuxV100R002C00SPC020/source/kernel/linux-3.4.y/../../../source/msp/drv/advca/ca_otp/ca_otpv200
@ -I/drv/include -I/include -I/include -I/include -I/drv/include -I/include
@ -I/drv -I/drv/V200 -I/drv/V300 -I/drv/ca_otp -I/drv/ca_otp/ca_otpv100
@ -I/drv/ca_otp/ca_otpv200 -imultilib armv7a_soft -iprefix
@ /opt/hisi-linux/x86-arm/arm-hisiv200-linux/bin/../lib/gcc/arm-hisiv200-linux-gnueabi/4.4.1/
@ -isysroot /opt/hisi-linux/x86-arm/arm-hisiv200-linux/bin/../target
@ -D__KERNEL__ -D__LINUX_ARM_ARCH__=7 -Uarm -DSDK_SECURITY_ARCH_VERSION_V3
@ -DCHIP_TYPE_hi3716cv200 -DSDK_VERSION=HiSTBLinuxV100R002C00SPC020
@ -DHI_GPIOI2C_SUPPORT -DHI_LOG_SUPPORT=1 -DHI_LOG_LEVEL=4
@ -DHI_PROC_SUPPORT=1 -DHI_KEYLED_SUPPORT -DHI_HDCP_SUPPORT
@ -DHI_SCI_SUPPORT -DHI_VI_SUPPORT -DHI_VENC_SUPPORT -DHI_AENC_SUPPORT
@ -DKBUILD_STR(s)=#s -DKBUILD_BASENAME=KBUILD_STR(drv_ca_otp_v200)
@ -DKBUILD_MODNAME=KBUILD_STR(hi_advca) -isystem
@ /opt/hisi-linux/x86-arm/arm-hisiv200-linux/bin/../lib/gcc/arm-hisiv200-linux-gnueabi/4.4.1/include
@ -include
@ /home/x57522/X5HD/04.Locals/STBLinuxV1R2/Build/HiSTBLinuxV100R002C00SPC020/source/kernel/linux-3.4.y/include/linux/kconfig.h
@ -MD drivers/msp/advca/./ca_otp/ca_otpv200/.drv_ca_otp_v200.o.d
@ /home/x57522/X5HD/04.Locals/STBLinuxV1R2/Build/HiSTBLinuxV100R002C00SPC020/source/kernel/linux-3.4.y/drivers/msp/advca/./ca_otp/ca_otpv200/drv_ca_otp_v200.c
@ -mlittle-endian -marm -mapcs -mno-sched-prolog -mabi=aapcs-linux
@ -mno-thumb-interwork -march=armv7-a -msoft-float -auxbase-strip
@ drivers/msp/advca/./ca_otp/ca_otpv200/drv_ca_otp_v200.o -O2 -Wall -Wundef
@ -Wstrict-prototypes -Wno-trigraphs -Werror-implicit-function-declaration
@ -Wno-format-security -Wframe-larger-than=1024
@ -Wdeclaration-after-statement -Wno-pointer-sign -p -fno-strict-aliasing
@ -fno-common -fno-delete-null-pointer-checks -fno-dwarf2-cfi-asm
@ -funwind-tables -fno-stack-protector -fno-omit-frame-pointer
@ -fno-optimize-sibling-calls -fno-strict-overflow -fconserve-stack
@ -fverbose-asm
@ options enabled:  -falign-loops -fargument-alias -fauto-inc-dec
@ -fbranch-count-reg -fcaller-saves -fcprop-registers -fcrossjumping
@ -fcse-follow-jumps -fdefer-pop -fearly-inlining
@ -feliminate-unused-debug-types -fexpensive-optimizations
@ -fforward-propagate -ffunction-cse -fgcse -fgcse-lm
@ -fguess-branch-probability -fident -fif-conversion -fif-conversion2
@ -findirect-inlining -finline -finline-functions-called-once
@ -finline-small-functions -fipa-cp -fipa-pure-const -fipa-reference
@ -fira-share-save-slots -fira-share-spill-slots -fivopts
@ -fkeep-static-consts -fleading-underscore -fmath-errno -fmerge-constants
@ -fmerge-debug-strings -fmove-loop-invariants -foptimize-register-move
@ -fpeephole -fpeephole2 -fprofile -fpromote-loop-indices
@ -freg-struct-return -fregmove -frename-registers -freorder-blocks
@ -freorder-functions -frerun-cse-after-loop -fsched-interblock
@ -fsched-spec -fsched-stalled-insns-dep -fschedule-insns -fschedule-insns2
@ -fsection-anchors -fsigned-zeros -fsplit-ivs-in-unroller
@ -fsplit-wide-types -fthread-jumps -ftoplevel-reorder -ftrapping-math
@ -ftree-builtin-call-dce -ftree-ccp -ftree-ch -ftree-copy-prop
@ -ftree-copyrename -ftree-cselim -ftree-dce -ftree-dominator-opts
@ -ftree-dse -ftree-fre -ftree-loop-im -ftree-loop-ivcanon
@ -ftree-loop-optimize -ftree-parallelize-loops= -ftree-pre -ftree-reassoc
@ -ftree-scev-cprop -ftree-sink -ftree-sra -ftree-switch-conversion
@ -ftree-ter -ftree-vect-loop-version -ftree-vrp -funit-at-a-time
@ -funroll-loops -funwind-tables -fverbose-asm -fweb
@ -fzero-initialized-in-bss -mapcs-frame -mglibc -mlittle-endian

@ Compiler executable checksum: fa59e0bd179ef45b3a3c3e6f3383fdac

	.text
	.align	2
	.global	DRV_CA_OTP_V200_GetECFlag
	.type	DRV_CA_OTP_V200_GetECFlag, %function
DRV_CA_OTP_V200_GetECFlag:
	.fnstart
.LFB780:
	@ args = 0, pretend = 0, frame = 0
	@ frame_needed = 1, uses_anonymous_args = 0
	.movsp ip
	mov	ip, sp	@,
	stmfd	sp!, {r3, r4, r5, r6, r7, r8, fp, ip, lr, pc}	@,
	.pad #4
	.save {r3, r4, r5, r6, r7, r8, fp, ip, lr}
	.setfp fp, ip, #-4
	sub	fp, ip, #4	@,,
	push	{lr}
	bl	__gnu_mcount_nc
	subs	r5, r0, #0	@ pbEnECFlag, pbEnECFlag
	movweq	r0, #:lower16:-2142371835	@ ret,
	movteq	r0, #:upper16:-2142371835	@ ret,
	ldmeqfd	sp, {r3, r4, r5, r6, r7, r8, fp, sp, pc}	@
	movw	r4, #:lower16:g_pOTPExportFunctionList	@ tmp141,
	movt	r4, #:upper16:g_pOTPExportFunctionList	@ tmp141,
	mov	r0, #5	@,
	ldr	lr, [r4, #0]	@ g_pOTPExportFunctionList, g_pOTPExportFunctionList
	ldr	r7, [lr, #4]	@ <variable>.HAL_OTP_V200_ReadByte, <variable>.HAL_OTP_V200_ReadByte
	blx	r7	@ <variable>.HAL_OTP_V200_ReadByte
	ldr	ip, [r4, #0]	@ g_pOTPExportFunctionList, g_pOTPExportFunctionList
	ldr	r6, [ip, #4]	@ <variable>.HAL_OTP_V200_ReadByte, <variable>.HAL_OTP_V200_ReadByte
	mov	r7, r0	@ tmp143,
	mov	r0, #26	@,
	blx	r6	@ <variable>.HAL_OTP_V200_ReadByte
	ldr	r8, [r4, #0]	@ g_pOTPExportFunctionList, g_pOTPExportFunctionList
	and	r7, r7, #127	@ tmp156, tmp143,
	ldr	r2, [r8, #4]	@ <variable>.HAL_OTP_V200_ReadByte, <variable>.HAL_OTP_V200_ReadByte
	mov	r6, r0	@ tmp147,
	mov	r0, #28	@,
	blx	r2	@ <variable>.HAL_OTP_V200_ReadByte
	ldr	r1, [r4, #0]	@ g_pOTPExportFunctionList, g_pOTPExportFunctionList
	ldr	r3, [r1, #4]	@ <variable>.HAL_OTP_V200_ReadByte, <variable>.HAL_OTP_V200_ReadByte
	mov	r8, r0	@ tmp151,
	mov	r0, #30	@,
	blx	r3	@ <variable>.HAL_OTP_V200_ReadByte
	cmp	r7, #83	@ tmp156,
	cmpeq	r6, #233	@, tmp147,
	bne	.L4	@,
	cmp	r0, #110	@ tmp155,
	cmpeq	r8, #219	@, tmp151,
	moveq	r3, #1	@ tmp171,
	moveq	r0, #0	@ ret,
	streq	r3, [r5, #0]	@ tmp171,* pbEnECFlag
	ldmeqfd	sp, {r3, r4, r5, r6, r7, r8, fp, sp, pc}	@
.L4:
	mov	r0, #0	@ tmp172,
	str	r0, [r5, #0]	@ tmp172,* pbEnECFlag
	ldmfd	sp, {r3, r4, r5, r6, r7, r8, fp, sp, pc}	@
	.fnend
	.size	DRV_CA_OTP_V200_GetECFlag, .-DRV_CA_OTP_V200_GetECFlag
	.align	2
	.global	DRV_CA_OTP_V200_MarketId
	.type	DRV_CA_OTP_V200_MarketId, %function
DRV_CA_OTP_V200_MarketId:
	.fnstart
.LFB783:
	@ args = 0, pretend = 0, frame = 0
	@ frame_needed = 1, uses_anonymous_args = 0
	.movsp ip
	mov	ip, sp	@,
	stmfd	sp!, {r3, r4, fp, ip, lr, pc}	@,
	.pad #4
	.save {r3, r4, fp, ip, lr}
	.setfp fp, ip, #-4
	sub	fp, ip, #4	@,,
	push	{lr}
	bl	__gnu_mcount_nc
	subs	r4, r0, #0	@ pu32MarketID, pu32MarketID
	movweq	r3, #:lower16:-2142371835	@ ret,
	movteq	r3, #:upper16:-2142371835	@ ret,
	beq	.L9	@,
	movw	r2, #:lower16:g_pOTPExportFunctionList	@ tmp138,
	movt	r2, #:upper16:g_pOTPExportFunctionList	@ tmp138,
	mov	r0, #160	@,
	ldr	r1, [r2, #0]	@ g_pOTPExportFunctionList, g_pOTPExportFunctionList
	ldr	r3, [r1, #0]	@ <variable>.HAL_OTP_V200_Read, <variable>.HAL_OTP_V200_Read
	blx	r3	@ <variable>.HAL_OTP_V200_Read
	mov	r3, #0	@ ret,
	str	r0, [r4, #0]	@,* pu32MarketID
.L9:
	mov	r0, r3	@, ret
	ldmfd	sp, {r3, r4, fp, sp, pc}	@
	.fnend
	.size	DRV_CA_OTP_V200_MarketId, .-DRV_CA_OTP_V200_MarketId
	.align	2
	.global	DRV_CA_OTP_V200_Get_UniqueMarketId
	.type	DRV_CA_OTP_V200_Get_UniqueMarketId, %function
DRV_CA_OTP_V200_Get_UniqueMarketId:
	.fnstart
.LFB784:
	@ args = 0, pretend = 0, frame = 0
	@ frame_needed = 1, uses_anonymous_args = 0
	.movsp ip
	mov	ip, sp	@,
	stmfd	sp!, {r4, r5, fp, ip, lr, pc}	@,
	.pad #4
	.save {r4, r5, fp, ip, lr}
	.setfp fp, ip, #-4
	sub	fp, ip, #4	@,,
	push	{lr}
	bl	__gnu_mcount_nc
	subs	r5, r0, #0	@ pu8MarketID, pu8MarketID
	movweq	r3, #:lower16:-2142371835	@ ret,
	movteq	r3, #:upper16:-2142371835	@ ret,
	beq	.L13	@,
	movw	r4, #:lower16:g_pOTPExportFunctionList	@ tmp141,
	movt	r4, #:upper16:g_pOTPExportFunctionList	@ tmp141,
	mov	r0, #160	@,
	ldr	lr, [r4, #0]	@ g_pOTPExportFunctionList, g_pOTPExportFunctionList
	ldr	r2, [lr, #4]	@ <variable>.HAL_OTP_V200_ReadByte, <variable>.HAL_OTP_V200_ReadByte
	blx	r2	@ <variable>.HAL_OTP_V200_ReadByte
	strb	r0, [r5, #0]	@,* pu8MarketID
	mov	r0, #161	@,
	ldr	r1, [r4, #0]	@ g_pOTPExportFunctionList, g_pOTPExportFunctionList
	ldr	r3, [r1, #4]	@ <variable>.HAL_OTP_V200_ReadByte, <variable>.HAL_OTP_V200_ReadByte
	blx	r3	@ <variable>.HAL_OTP_V200_ReadByte
	strb	r0, [r5, #1]	@,
	mov	r0, #162	@,
	ldr	ip, [r4, #0]	@ g_pOTPExportFunctionList, g_pOTPExportFunctionList
	ldr	r2, [ip, #4]	@ <variable>.HAL_OTP_V200_ReadByte, <variable>.HAL_OTP_V200_ReadByte
	blx	r2	@ <variable>.HAL_OTP_V200_ReadByte
	strb	r0, [r5, #2]	@,
	mov	r0, #163	@,
	ldr	r1, [r4, #0]	@ g_pOTPExportFunctionList, g_pOTPExportFunctionList
	ldr	r3, [r1, #4]	@ <variable>.HAL_OTP_V200_ReadByte, <variable>.HAL_OTP_V200_ReadByte
	blx	r3	@ <variable>.HAL_OTP_V200_ReadByte
	mov	r3, #0	@ ret,
	strb	r0, [r5, #3]	@,
.L13:
	mov	r0, r3	@, ret
	ldmfd	sp, {r4, r5, fp, sp, pc}	@
	.fnend
	.size	DRV_CA_OTP_V200_Get_UniqueMarketId, .-DRV_CA_OTP_V200_Get_UniqueMarketId
	.align	2
	.global	DRV_CA_OTP_V200_GetSTBSN
	.type	DRV_CA_OTP_V200_GetSTBSN, %function
DRV_CA_OTP_V200_GetSTBSN:
	.fnstart
.LFB787:
	@ args = 0, pretend = 0, frame = 0
	@ frame_needed = 1, uses_anonymous_args = 0
	.movsp ip
	mov	ip, sp	@,
	stmfd	sp!, {r3, r4, fp, ip, lr, pc}	@,
	.pad #4
	.save {r3, r4, fp, ip, lr}
	.setfp fp, ip, #-4
	sub	fp, ip, #4	@,,
	push	{lr}
	bl	__gnu_mcount_nc
	subs	r4, r0, #0	@ pu32SN, pu32SN
	movweq	r3, #:lower16:-2142371835	@ ret,
	movteq	r3, #:upper16:-2142371835	@ ret,
	beq	.L17	@,
	movw	r2, #:lower16:g_pOTPExportFunctionList	@ tmp138,
	movt	r2, #:upper16:g_pOTPExportFunctionList	@ tmp138,
	mov	r0, #144	@,
	ldr	r1, [r2, #0]	@ g_pOTPExportFunctionList, g_pOTPExportFunctionList
	ldr	r3, [r1, #0]	@ <variable>.HAL_OTP_V200_Read, <variable>.HAL_OTP_V200_Read
	blx	r3	@ <variable>.HAL_OTP_V200_Read
	mov	r3, #0	@ ret,
	str	r0, [r4, #0]	@,* pu32SN
.L17:
	mov	r0, r3	@, ret
	ldmfd	sp, {r3, r4, fp, sp, pc}	@
	.fnend
	.size	DRV_CA_OTP_V200_GetSTBSN, .-DRV_CA_OTP_V200_GetSTBSN
	.align	2
	.global	DRV_CA_OTP_V200_Get_UniqueSTBSN
	.type	DRV_CA_OTP_V200_Get_UniqueSTBSN, %function
DRV_CA_OTP_V200_Get_UniqueSTBSN:
	.fnstart
.LFB788:
	@ args = 0, pretend = 0, frame = 0
	@ frame_needed = 1, uses_anonymous_args = 0
	.movsp ip
	mov	ip, sp	@,
	stmfd	sp!, {r4, r5, fp, ip, lr, pc}	@,
	.pad #4
	.save {r4, r5, fp, ip, lr}
	.setfp fp, ip, #-4
	sub	fp, ip, #4	@,,
	push	{lr}
	bl	__gnu_mcount_nc
	subs	r5, r0, #0	@ pu8SN, pu8SN
	movweq	r3, #:lower16:-2142371835	@ ret,
	movteq	r3, #:upper16:-2142371835	@ ret,
	beq	.L21	@,
	movw	r4, #:lower16:g_pOTPExportFunctionList	@ tmp141,
	movt	r4, #:upper16:g_pOTPExportFunctionList	@ tmp141,
	mov	r0, #144	@,
	ldr	lr, [r4, #0]	@ g_pOTPExportFunctionList, g_pOTPExportFunctionList
	ldr	r2, [lr, #4]	@ <variable>.HAL_OTP_V200_ReadByte, <variable>.HAL_OTP_V200_ReadByte
	blx	r2	@ <variable>.HAL_OTP_V200_ReadByte
	strb	r0, [r5, #0]	@,* pu8SN
	mov	r0, #145	@,
	ldr	r1, [r4, #0]	@ g_pOTPExportFunctionList, g_pOTPExportFunctionList
	ldr	r3, [r1, #4]	@ <variable>.HAL_OTP_V200_ReadByte, <variable>.HAL_OTP_V200_ReadByte
	blx	r3	@ <variable>.HAL_OTP_V200_ReadByte
	strb	r0, [r5, #1]	@,
	mov	r0, #146	@,
	ldr	ip, [r4, #0]	@ g_pOTPExportFunctionList, g_pOTPExportFunctionList
	ldr	r2, [ip, #4]	@ <variable>.HAL_OTP_V200_ReadByte, <variable>.HAL_OTP_V200_ReadByte
	blx	r2	@ <variable>.HAL_OTP_V200_ReadByte
	strb	r0, [r5, #2]	@,
	mov	r0, #147	@,
	ldr	r1, [r4, #0]	@ g_pOTPExportFunctionList, g_pOTPExportFunctionList
	ldr	r3, [r1, #4]	@ <variable>.HAL_OTP_V200_ReadByte, <variable>.HAL_OTP_V200_ReadByte
	blx	r3	@ <variable>.HAL_OTP_V200_ReadByte
	mov	r3, #0	@ ret,
	strb	r0, [r5, #3]	@,
.L21:
	mov	r0, r3	@, ret
	ldmfd	sp, {r4, r5, fp, sp, pc}	@
	.fnend
	.size	DRV_CA_OTP_V200_Get_UniqueSTBSN, .-DRV_CA_OTP_V200_Get_UniqueSTBSN
	.align	2
	.global	DRV_CA_OTP_V200_Get_UniqueVersionId
	.type	DRV_CA_OTP_V200_Get_UniqueVersionId, %function
DRV_CA_OTP_V200_Get_UniqueVersionId:
	.fnstart
.LFB790:
	@ args = 0, pretend = 0, frame = 0
	@ frame_needed = 1, uses_anonymous_args = 0
	.movsp ip
	mov	ip, sp	@,
	stmfd	sp!, {r4, r5, fp, ip, lr, pc}	@,
	.pad #4
	.save {r4, r5, fp, ip, lr}
	.setfp fp, ip, #-4
	sub	fp, ip, #4	@,,
	push	{lr}
	bl	__gnu_mcount_nc
	subs	r5, r0, #0	@ pu8VersionID, pu8VersionID
	movweq	r3, #:lower16:-2142371835	@ ret,
	movteq	r3, #:upper16:-2142371835	@ ret,
	beq	.L25	@,
	movw	r4, #:lower16:g_pOTPExportFunctionList	@ tmp141,
	movt	r4, #:upper16:g_pOTPExportFunctionList	@ tmp141,
	mov	r0, #164	@,
	ldr	lr, [r4, #0]	@ g_pOTPExportFunctionList, g_pOTPExportFunctionList
	ldr	r2, [lr, #4]	@ <variable>.HAL_OTP_V200_ReadByte, <variable>.HAL_OTP_V200_ReadByte
	blx	r2	@ <variable>.HAL_OTP_V200_ReadByte
	strb	r0, [r5, #0]	@,* pu8VersionID
	mov	r0, #165	@,
	ldr	r1, [r4, #0]	@ g_pOTPExportFunctionList, g_pOTPExportFunctionList
	ldr	r3, [r1, #4]	@ <variable>.HAL_OTP_V200_ReadByte, <variable>.HAL_OTP_V200_ReadByte
	blx	r3	@ <variable>.HAL_OTP_V200_ReadByte
	strb	r0, [r5, #1]	@,
	mov	r0, #166	@,
	ldr	ip, [r4, #0]	@ g_pOTPExportFunctionList, g_pOTPExportFunctionList
	ldr	r2, [ip, #4]	@ <variable>.HAL_OTP_V200_ReadByte, <variable>.HAL_OTP_V200_ReadByte
	blx	r2	@ <variable>.HAL_OTP_V200_ReadByte
	strb	r0, [r5, #2]	@,
	mov	r0, #167	@,
	ldr	r1, [r4, #0]	@ g_pOTPExportFunctionList, g_pOTPExportFunctionList
	ldr	r3, [r1, #4]	@ <variable>.HAL_OTP_V200_ReadByte, <variable>.HAL_OTP_V200_ReadByte
	blx	r3	@ <variable>.HAL_OTP_V200_ReadByte
	mov	r3, #0	@ ret,
	strb	r0, [r5, #3]	@,
.L25:
	mov	r0, r3	@, ret
	ldmfd	sp, {r4, r5, fp, sp, pc}	@
	.fnend
	.size	DRV_CA_OTP_V200_Get_UniqueVersionId, .-DRV_CA_OTP_V200_Get_UniqueVersionId
	.align	2
	.global	DRV_CA_OTP_V200_GetKlDPAFilterClkEn
	.type	DRV_CA_OTP_V200_GetKlDPAFilterClkEn, %function
DRV_CA_OTP_V200_GetKlDPAFilterClkEn:
	.fnstart
.LFB801:
	@ args = 0, pretend = 0, frame = 8
	@ frame_needed = 1, uses_anonymous_args = 0
	.movsp ip
	mov	ip, sp	@,
	stmfd	sp!, {r4, fp, ip, lr, pc}	@,
	.pad #4
	.save {r4, fp, ip, lr}
	.setfp fp, ip, #-4
	sub	fp, ip, #4	@,,
	.pad #12
	sub	sp, sp, #12	@,,
	push	{lr}
	bl	__gnu_mcount_nc
	subs	r4, r0, #0	@ pbValue, pbValue
	movweq	r0, #:lower16:-2142371835	@ D.20177,
	movteq	r0, #:upper16:-2142371835	@ D.20177,
	beq	.L29	@,
	movw	lr, #:lower16:g_pOTPExportFunctionList	@ tmp138,
	movt	lr, #:upper16:g_pOTPExportFunctionList	@ tmp138,
	mov	r0, #4	@,
	ldr	ip, [lr, #0]	@ g_pOTPExportFunctionList, g_pOTPExportFunctionList
	ldr	r2, [ip, #0]	@ <variable>.HAL_OTP_V200_Read, <variable>.HAL_OTP_V200_Read
	blx	r2	@ <variable>.HAL_OTP_V200_Read
	and	r1, r0, #128	@ tmp143,,
	uxtb	r3, r1	@ tmp144, tmp143
	cmp	r3, #0	@ tmp144,
	streq	r3, [r4, #0]	@ tmp144,* pbValue
	movne	r0, #0	@ D.20177,
	moveq	r0, r3	@ D.20177, tmp144
	movne	r3, #1	@ tmp145,
	strne	r3, [r4, #0]	@ tmp145,* pbValue
.L29:
	sub	sp, fp, #16
	ldmfd	sp, {r4, fp, sp, pc}
	.fnend
	.size	DRV_CA_OTP_V200_GetKlDPAFilterClkEn, .-DRV_CA_OTP_V200_GetKlDPAFilterClkEn
	.align	2
	.global	DRV_CA_OTP_V200_GetMcDPAClkSelEn
	.type	DRV_CA_OTP_V200_GetMcDPAClkSelEn, %function
DRV_CA_OTP_V200_GetMcDPAClkSelEn:
	.fnstart
.LFB803:
	@ args = 0, pretend = 0, frame = 8
	@ frame_needed = 1, uses_anonymous_args = 0
	.movsp ip
	mov	ip, sp	@,
	stmfd	sp!, {r4, fp, ip, lr, pc}	@,
	.pad #4
	.save {r4, fp, ip, lr}
	.setfp fp, ip, #-4
	sub	fp, ip, #4	@,,
	.pad #12
	sub	sp, sp, #12	@,,
	push	{lr}
	bl	__gnu_mcount_nc
	subs	r4, r0, #0	@ pbValue, pbValue
	movweq	r0, #:lower16:-2142371835	@ D.20219,
	movteq	r0, #:upper16:-2142371835	@ D.20219,
	beq	.L34	@,
	movw	ip, #:lower16:g_pOTPExportFunctionList	@ tmp138,
	movt	ip, #:upper16:g_pOTPExportFunctionList	@ tmp138,
	mov	r0, #4	@,
	ldr	r2, [ip, #0]	@ g_pOTPExportFunctionList, g_pOTPExportFunctionList
	ldr	r1, [r2, #0]	@ <variable>.HAL_OTP_V200_Read, <variable>.HAL_OTP_V200_Read
	blx	r1	@ <variable>.HAL_OTP_V200_Read
	ubfx	r3, r0, #8, #1	@ tmp144,,,
	cmp	r3, #0	@ tmp144,
	streq	r3, [r4, #0]	@ tmp144,* pbValue
	movne	r0, #0	@ D.20219,
	moveq	r0, r3	@ D.20219, tmp144
	movne	r3, #1	@ tmp145,
	strne	r3, [r4, #0]	@ tmp145,* pbValue
.L34:
	sub	sp, fp, #16
	ldmfd	sp, {r4, fp, sp, pc}
	.fnend
	.size	DRV_CA_OTP_V200_GetMcDPAClkSelEn, .-DRV_CA_OTP_V200_GetMcDPAClkSelEn
	.align	2
	.global	DRV_CA_OTP_V200_GetPvrDPAFilterClkEn
	.type	DRV_CA_OTP_V200_GetPvrDPAFilterClkEn, %function
DRV_CA_OTP_V200_GetPvrDPAFilterClkEn:
	.fnstart
.LFB805:
	@ args = 0, pretend = 0, frame = 8
	@ frame_needed = 1, uses_anonymous_args = 0
	.movsp ip
	mov	ip, sp	@,
	stmfd	sp!, {r4, fp, ip, lr, pc}	@,
	.pad #4
	.save {r4, fp, ip, lr}
	.setfp fp, ip, #-4
	sub	fp, ip, #4	@,,
	.pad #12
	sub	sp, sp, #12	@,,
	push	{lr}
	bl	__gnu_mcount_nc
	subs	r4, r0, #0	@ pbValue, pbValue
	movweq	r0, #:lower16:-2142371835	@ D.20261,
	movteq	r0, #:upper16:-2142371835	@ D.20261,
	beq	.L39	@,
	movw	r3, #:lower16:g_pOTPExportFunctionList	@ tmp138,
	movt	r3, #:upper16:g_pOTPExportFunctionList	@ tmp138,
	mov	r0, #4	@,
	ldr	lr, [r3, #0]	@ g_pOTPExportFunctionList, g_pOTPExportFunctionList
	ldr	ip, [lr, #0]	@ <variable>.HAL_OTP_V200_Read, <variable>.HAL_OTP_V200_Read
	blx	ip	@ <variable>.HAL_OTP_V200_Read
	ubfx	r2, r0, #8, #8	@ tmp141,,,
	and	r1, r2, #2	@ tmp143, tmp141,
	uxtb	r3, r1	@ tmp144, tmp143
	cmp	r3, #0	@ tmp144,
	streq	r3, [r4, #0]	@ tmp144,* pbValue
	movne	r0, #0	@ D.20261,
	moveq	r0, r3	@ D.20261, tmp144
	movne	r3, #1	@ tmp145,
	strne	r3, [r4, #0]	@ tmp145,* pbValue
.L39:
	sub	sp, fp, #16
	ldmfd	sp, {r4, fp, sp, pc}
	.fnend
	.size	DRV_CA_OTP_V200_GetPvrDPAFilterClkEn, .-DRV_CA_OTP_V200_GetPvrDPAFilterClkEn
	.align	2
	.global	DRV_CA_OTP_V200_GetDDRScrambleEn
	.type	DRV_CA_OTP_V200_GetDDRScrambleEn, %function
DRV_CA_OTP_V200_GetDDRScrambleEn:
	.fnstart
.LFB807:
	@ args = 0, pretend = 0, frame = 0
	@ frame_needed = 1, uses_anonymous_args = 0
	.movsp ip
	mov	ip, sp	@,
	stmfd	sp!, {r3, r4, fp, ip, lr, pc}	@,
	.pad #4
	.save {r3, r4, fp, ip, lr}
	.setfp fp, ip, #-4
	sub	fp, ip, #4	@,,
	push	{lr}
	bl	__gnu_mcount_nc
	subs	r4, r0, #0	@ pu32Mode, pu32Mode
	movweq	r3, #:lower16:-2142371835	@ ret,
	movteq	r3, #:upper16:-2142371835	@ ret,
	beq	.L44	@,
	movw	r2, #:lower16:g_pOTPExportFunctionList	@ tmp139,
	movt	r2, #:upper16:g_pOTPExportFunctionList	@ tmp139,
	mov	r0, #0	@,
	ldr	r1, [r2, #0]	@ g_pOTPExportFunctionList, g_pOTPExportFunctionList
	ldr	r3, [r1, #0]	@ <variable>.HAL_OTP_V200_Read, <variable>.HAL_OTP_V200_Read
	blx	r3	@ <variable>.HAL_OTP_V200_Read
	mov	r3, #0	@ ret,
	ubfx	r0, r0, #30, #1	@ tmp142,,,
	str	r0, [r4, #0]	@ tmp142,* pu32Mode
.L44:
	mov	r0, r3	@, ret
	ldmfd	sp, {r3, r4, fp, sp, pc}	@
	.fnend
	.size	DRV_CA_OTP_V200_GetDDRScrambleEn, .-DRV_CA_OTP_V200_GetDDRScrambleEn
	.align	2
	.global	DRV_CA_OTP_V200_LockR2RHardKey
	.type	DRV_CA_OTP_V200_LockR2RHardKey, %function
DRV_CA_OTP_V200_LockR2RHardKey:
	.fnstart
.LFB808:
	@ args = 0, pretend = 0, frame = 0
	@ frame_needed = 1, uses_anonymous_args = 0
	.movsp ip
	mov	ip, sp	@,
	stmfd	sp!, {fp, ip, lr, pc}	@,
	.pad #4
	.save {fp, ip, lr}
	.setfp fp, ip, #-4
	sub	fp, ip, #4	@,,
	push	{lr}
	bl	__gnu_mcount_nc
	mov	r0, #0	@,
	ldmfd	sp, {fp, sp, pc}	@
	.fnend
	.size	DRV_CA_OTP_V200_LockR2RHardKey, .-DRV_CA_OTP_V200_LockR2RHardKey
	.align	2
	.global	DRV_CA_OTP_V200_GetSelfBoot
	.type	DRV_CA_OTP_V200_GetSelfBoot, %function
DRV_CA_OTP_V200_GetSelfBoot:
	.fnstart
.LFB813:
	@ args = 0, pretend = 0, frame = 0
	@ frame_needed = 1, uses_anonymous_args = 0
	.movsp ip
	mov	ip, sp	@,
	stmfd	sp!, {r4, r5, fp, ip, lr, pc}	@,
	.pad #4
	.save {r4, r5, fp, ip, lr}
	.setfp fp, ip, #-4
	sub	fp, ip, #4	@,,
	push	{lr}
	bl	__gnu_mcount_nc
	subs	r5, r0, #0	@ pu32SelfBoot, pu32SelfBoot
	movweq	r0, #:lower16:-2142371835	@ ret,
	movteq	r0, #:upper16:-2142371835	@ ret,
	ldmeqfd	sp, {r4, r5, fp, sp, pc}	@
	movw	r4, #:lower16:g_pOTPExportFunctionList	@ tmp140,
	movt	r4, #:upper16:g_pOTPExportFunctionList	@ tmp140,
	mov	r0, #0	@,
	ldr	lr, [r4, #0]	@ g_pOTPExportFunctionList, g_pOTPExportFunctionList
	ldr	r3, [lr, #0]	@ <variable>.HAL_OTP_V200_Read, <variable>.HAL_OTP_V200_Read
	blx	r3	@ <variable>.HAL_OTP_V200_Read
	ubfx	r0, r0, #3, #1	@ tmp143,,,
	str	r0, [r5, #0]	@ tmp143,* pu32SelfBoot
	ldr	ip, [r4, #0]	@ g_pOTPExportFunctionList, g_pOTPExportFunctionList
	mov	r0, #28	@,
	ldr	r2, [ip, #0]	@ <variable>.HAL_OTP_V200_Read, <variable>.HAL_OTP_V200_Read
	blx	r2	@ <variable>.HAL_OTP_V200_Read
	ldr	r1, [r5, #0]	@ tmp150,* pu32SelfBoot
	cmp	r1, #1	@ tmp150,
	movne	r3, #0	@, tmp151
	moveq	r3, #1	@, tmp151
	cmp	r0, #17	@,
	orrne	r3, r3, #1	@,, tmp154, tmp151
	cmp	r3, #0	@ tmp154,
	streq	r3, [r5, #0]	@ tmp154,* pu32SelfBoot
	movne	r3, #1	@ tmp155,
	movne	r0, #0	@ ret,
	strne	r3, [r5, #0]	@ tmp155,* pu32SelfBoot
	moveq	r0, r3	@ ret, tmp154
	ldmfd	sp, {r4, r5, fp, sp, pc}	@
	.fnend
	.size	DRV_CA_OTP_V200_GetSelfBoot, .-DRV_CA_OTP_V200_GetSelfBoot
	.align	2
	.global	DRV_CA_OTP_V200_GetJtagWriteDisable
	.type	DRV_CA_OTP_V200_GetJtagWriteDisable, %function
DRV_CA_OTP_V200_GetJtagWriteDisable:
	.fnstart
.LFB815:
	@ args = 0, pretend = 0, frame = 0
	@ frame_needed = 1, uses_anonymous_args = 0
	.movsp ip
	mov	ip, sp	@,
	stmfd	sp!, {r3, r4, fp, ip, lr, pc}	@,
	.pad #4
	.save {r3, r4, fp, ip, lr}
	.setfp fp, ip, #-4
	sub	fp, ip, #4	@,,
	push	{lr}
	bl	__gnu_mcount_nc
	movw	r2, #:lower16:g_pOTPExportFunctionList	@ tmp138,
	movt	r2, #:upper16:g_pOTPExportFunctionList	@ tmp138,
	mov	r4, r0	@ pu32Disable, pu32Disable
	mov	r0, #24	@,
	ldr	r1, [r2, #0]	@ g_pOTPExportFunctionList, g_pOTPExportFunctionList
	ldr	r3, [r1, #0]	@ <variable>.HAL_OTP_V200_Read, <variable>.HAL_OTP_V200_Read
	blx	r3	@ <variable>.HAL_OTP_V200_Read
	ubfx	r0, r0, #8, #1	@ tmp141,,,
	str	r0, [r4, #0]	@ tmp141,* pu32Disable
	mov	r0, #0	@,
	ldmfd	sp, {r3, r4, fp, sp, pc}	@
	.fnend
	.size	DRV_CA_OTP_V200_GetJtagWriteDisable, .-DRV_CA_OTP_V200_GetJtagWriteDisable
	.align	2
	.global	DRV_CA_OTP_V200_GetBootMode
	.type	DRV_CA_OTP_V200_GetBootMode, %function
DRV_CA_OTP_V200_GetBootMode:
	.fnstart
.LFB817:
	@ args = 0, pretend = 0, frame = 0
	@ frame_needed = 1, uses_anonymous_args = 0
	.movsp ip
	mov	ip, sp	@,
	stmfd	sp!, {r3, r4, fp, ip, lr, pc}	@,
	.pad #4
	.save {r3, r4, fp, ip, lr}
	.setfp fp, ip, #-4
	sub	fp, ip, #4	@,,
	push	{lr}
	bl	__gnu_mcount_nc
	subs	r4, r0, #0	@ pType, pType
	movweq	r0, #:lower16:-2142371835	@ ret,
	movteq	r0, #:upper16:-2142371835	@ ret,
	ldmeqfd	sp, {r3, r4, fp, sp, pc}	@
	movw	r2, #:lower16:g_pOTPExportFunctionList	@ tmp138,
	movt	r2, #:upper16:g_pOTPExportFunctionList	@ tmp138,
	mov	r0, #0	@,
	ldr	r1, [r2, #0]	@ g_pOTPExportFunctionList, g_pOTPExportFunctionList
	ldr	r3, [r1, #0]	@ <variable>.HAL_OTP_V200_Read, <variable>.HAL_OTP_V200_Read
	blx	r3	@ <variable>.HAL_OTP_V200_Read
	and	r0, r0, #3	@ tmp140,,
	cmp	r0, #1	@ tmp140,
	beq	.L61	@,
	movcc	r0, #0	@ tmp141,
	strcc	r0, [r4, #0]	@ tmp141,* pType
	ldmccfd	sp, {r3, r4, fp, sp, pc}	@
	cmp	r0, #3	@ tmp140,
	beq	.L61	@,
	mov	ip, #4	@ tmp144,
	mov	r0, #0	@ ret,
	str	ip, [r4, #0]	@ tmp144,* pType
	ldmfd	sp, {r3, r4, fp, sp, pc}	@
.L61:
	str	r0, [r4, #0]	@ tmp140,* pType
	mov	r0, #0	@ ret,
	ldmfd	sp, {r3, r4, fp, sp, pc}	@
	.fnend
	.size	DRV_CA_OTP_V200_GetBootMode, .-DRV_CA_OTP_V200_GetBootMode
	.align	2
	.global	DRV_CA_OTP_V200_GetCSA2LadderLevel
	.type	DRV_CA_OTP_V200_GetCSA2LadderLevel, %function
DRV_CA_OTP_V200_GetCSA2LadderLevel:
	.fnstart
.LFB823:
	@ args = 0, pretend = 0, frame = 0
	@ frame_needed = 1, uses_anonymous_args = 0
	.movsp ip
	mov	ip, sp	@,
	stmfd	sp!, {r3, r4, fp, ip, lr, pc}	@,
	.pad #4
	.save {r3, r4, fp, ip, lr}
	.setfp fp, ip, #-4
	sub	fp, ip, #4	@,,
	push	{lr}
	bl	__gnu_mcount_nc
	subs	r4, r0, #0	@ pLevel, pLevel
	movweq	r0, #:lower16:-2142371835	@ ret,
	movteq	r0, #:upper16:-2142371835	@ ret,
	ldmeqfd	sp, {r3, r4, fp, sp, pc}	@
	movw	r2, #:lower16:g_pOTPExportFunctionList	@ tmp139,
	movt	r2, #:upper16:g_pOTPExportFunctionList	@ tmp139,
	mov	r0, #0	@,
	ldr	r1, [r2, #0]	@ g_pOTPExportFunctionList, g_pOTPExportFunctionList
	ldr	r3, [r1, #0]	@ <variable>.HAL_OTP_V200_Read, <variable>.HAL_OTP_V200_Read
	blx	r3	@ <variable>.HAL_OTP_V200_Read
	and	r0, r0, #32	@ tmp143,,
	uxtb	r0, r0	@ tmp144, tmp143
	cmp	r0, #0	@ tmp144,
	movne	r3, #2	@ tmp145,
	moveq	r3, #1	@ tmp146,
	strne	r3, [r4, #0]	@ tmp145,* pLevel
	movne	r0, #0	@ ret,
	streq	r3, [r4, #0]	@ tmp146,* pLevel
	ldmfd	sp, {r3, r4, fp, sp, pc}	@
	.fnend
	.size	DRV_CA_OTP_V200_GetCSA2LadderLevel, .-DRV_CA_OTP_V200_GetCSA2LadderLevel
	.align	2
	.global	DRV_CA_OTP_V200_GetCSA3LadderLevel
	.type	DRV_CA_OTP_V200_GetCSA3LadderLevel, %function
DRV_CA_OTP_V200_GetCSA3LadderLevel:
	.fnstart
.LFB825:
	@ args = 0, pretend = 0, frame = 0
	@ frame_needed = 1, uses_anonymous_args = 0
	.movsp ip
	mov	ip, sp	@,
	stmfd	sp!, {r3, r4, fp, ip, lr, pc}	@,
	.pad #4
	.save {r3, r4, fp, ip, lr}
	.setfp fp, ip, #-4
	sub	fp, ip, #4	@,,
	push	{lr}
	bl	__gnu_mcount_nc
	subs	r4, r0, #0	@ pLevel, pLevel
	movweq	r0, #:lower16:-2142371835	@ ret,
	movteq	r0, #:upper16:-2142371835	@ ret,
	ldmeqfd	sp, {r3, r4, fp, sp, pc}	@
	movw	r2, #:lower16:g_pOTPExportFunctionList	@ tmp139,
	movt	r2, #:upper16:g_pOTPExportFunctionList	@ tmp139,
	mov	r0, #0	@,
	ldr	r1, [r2, #0]	@ g_pOTPExportFunctionList, g_pOTPExportFunctionList
	ldr	r3, [r1, #0]	@ <variable>.HAL_OTP_V200_Read, <variable>.HAL_OTP_V200_Read
	blx	r3	@ <variable>.HAL_OTP_V200_Read
	ubfx	r0, r0, #8, #1	@ tmp144,,,
	cmp	r0, #0	@ tmp144,
	movne	r3, #2	@ tmp145,
	moveq	r3, #1	@ tmp146,
	strne	r3, [r4, #0]	@ tmp145,* pLevel
	movne	r0, #0	@ ret,
	streq	r3, [r4, #0]	@ tmp146,* pLevel
	ldmfd	sp, {r3, r4, fp, sp, pc}	@
	.fnend
	.size	DRV_CA_OTP_V200_GetCSA3LadderLevel, .-DRV_CA_OTP_V200_GetCSA3LadderLevel
	.align	2
	.global	DRV_CA_OTP_V200_GetR2RLadderLevel
	.type	DRV_CA_OTP_V200_GetR2RLadderLevel, %function
DRV_CA_OTP_V200_GetR2RLadderLevel:
	.fnstart
.LFB827:
	@ args = 0, pretend = 0, frame = 0
	@ frame_needed = 1, uses_anonymous_args = 0
	.movsp ip
	mov	ip, sp	@,
	stmfd	sp!, {r3, r4, fp, ip, lr, pc}	@,
	.pad #4
	.save {r3, r4, fp, ip, lr}
	.setfp fp, ip, #-4
	sub	fp, ip, #4	@,,
	push	{lr}
	bl	__gnu_mcount_nc
	subs	r4, r0, #0	@ pLevel, pLevel
	movweq	r0, #:lower16:-2142371835	@ ret,
	movteq	r0, #:upper16:-2142371835	@ ret,
	ldmeqfd	sp, {r3, r4, fp, sp, pc}	@
	movw	r2, #:lower16:g_pOTPExportFunctionList	@ tmp139,
	movt	r2, #:upper16:g_pOTPExportFunctionList	@ tmp139,
	mov	r0, #0	@,
	ldr	r1, [r2, #0]	@ g_pOTPExportFunctionList, g_pOTPExportFunctionList
	ldr	r3, [r1, #0]	@ <variable>.HAL_OTP_V200_Read, <variable>.HAL_OTP_V200_Read
	blx	r3	@ <variable>.HAL_OTP_V200_Read
	and	r0, r0, #64	@ tmp143,,
	uxtb	r0, r0	@ tmp144, tmp143
	cmp	r0, #0	@ tmp144,
	movne	r3, #2	@ tmp145,
	moveq	r3, #1	@ tmp146,
	strne	r3, [r4, #0]	@ tmp145,* pLevel
	movne	r0, #0	@ ret,
	streq	r3, [r4, #0]	@ tmp146,* pLevel
	ldmfd	sp, {r3, r4, fp, sp, pc}	@
	.fnend
	.size	DRV_CA_OTP_V200_GetR2RLadderLevel, .-DRV_CA_OTP_V200_GetR2RLadderLevel
	.align	2
	.global	DRV_CA_OTP_V200_GetSPLadderLevel
	.type	DRV_CA_OTP_V200_GetSPLadderLevel, %function
DRV_CA_OTP_V200_GetSPLadderLevel:
	.fnstart
.LFB829:
	@ args = 0, pretend = 0, frame = 0
	@ frame_needed = 1, uses_anonymous_args = 0
	.movsp ip
	mov	ip, sp	@,
	stmfd	sp!, {r3, r4, fp, ip, lr, pc}	@,
	.pad #4
	.save {r3, r4, fp, ip, lr}
	.setfp fp, ip, #-4
	sub	fp, ip, #4	@,,
	push	{lr}
	bl	__gnu_mcount_nc
	subs	r4, r0, #0	@ pLevel, pLevel
	movweq	r0, #:lower16:-2142371835	@ ret,
	movteq	r0, #:upper16:-2142371835	@ ret,
	ldmeqfd	sp, {r3, r4, fp, sp, pc}	@
	movw	r2, #:lower16:g_pOTPExportFunctionList	@ tmp139,
	movt	r2, #:upper16:g_pOTPExportFunctionList	@ tmp139,
	mov	r0, #0	@,
	ldr	r1, [r2, #0]	@ g_pOTPExportFunctionList, g_pOTPExportFunctionList
	ldr	r3, [r1, #0]	@ <variable>.HAL_OTP_V200_Read, <variable>.HAL_OTP_V200_Read
	blx	r3	@ <variable>.HAL_OTP_V200_Read
	bic	r0, r0, #127	@ tmp143,,
	uxtb	r0, r0	@ tmp144, tmp143
	cmp	r0, #0	@ tmp144,
	movne	r3, #2	@ tmp145,
	moveq	r3, #1	@ tmp146,
	strne	r3, [r4, #0]	@ tmp145,* pLevel
	movne	r0, #0	@ ret,
	streq	r3, [r4, #0]	@ tmp146,* pLevel
	ldmfd	sp, {r3, r4, fp, sp, pc}	@
	.fnend
	.size	DRV_CA_OTP_V200_GetSPLadderLevel, .-DRV_CA_OTP_V200_GetSPLadderLevel
	.align	2
	.global	DRV_CA_OTP_V200_GetSecureChipId
	.type	DRV_CA_OTP_V200_GetSecureChipId, %function
DRV_CA_OTP_V200_GetSecureChipId:
	.fnstart
.LFB831:
	@ args = 0, pretend = 0, frame = 0
	@ frame_needed = 1, uses_anonymous_args = 0
	.movsp ip
	mov	ip, sp	@,
	stmfd	sp!, {r3, r4, fp, ip, lr, pc}	@,
	.pad #4
	.save {r3, r4, fp, ip, lr}
	.setfp fp, ip, #-4
	sub	fp, ip, #4	@,,
	push	{lr}
	bl	__gnu_mcount_nc
	subs	r4, r0, #0	@ pu32SecureChipId, pu32SecureChipId
	movweq	r0, #:lower16:-2142371835	@ ret,
	movteq	r0, #:upper16:-2142371835	@ ret,
	ldmeqfd	sp, {r3, r4, fp, sp, pc}	@
	movw	r2, #:lower16:g_pOTPExportFunctionList	@ tmp138,
	movt	r2, #:upper16:g_pOTPExportFunctionList	@ tmp138,
	mov	r0, #172	@,
	ldr	r1, [r2, #0]	@ g_pOTPExportFunctionList, g_pOTPExportFunctionList
	ldr	r3, [r1, #0]	@ <variable>.HAL_OTP_V200_Read, <variable>.HAL_OTP_V200_Read
	blx	r3	@ <variable>.HAL_OTP_V200_Read
	uxtb	r0, r0	@ tmp140,
	cmp	r0, #12	@ tmp140,
	ldrls	pc, [pc, r0, asl #2]	@ tmp140
	b	.L87	@
.L101:
	.word	.L88
	.word	.L89
	.word	.L90
	.word	.L91
	.word	.L92
	.word	.L93
	.word	.L94
	.word	.L95
	.word	.L96
	.word	.L97
	.word	.L98
	.word	.L99
	.word	.L100
.L100:
	mov	r2, #12	@ tmp153,
	mov	r0, #0	@ ret,
	str	r2, [r4, #0]	@ tmp153,* pu32SecureChipId
	ldmfd	sp, {r3, r4, fp, sp, pc}	@
.L87:
	mov	ip, #13	@ tmp154,
	mov	r0, #0	@ ret,
	str	ip, [r4, #0]	@ tmp154,* pu32SecureChipId
	ldmfd	sp, {r3, r4, fp, sp, pc}	@
.L88:
	mov	r0, #0	@ tmp141,
	str	r0, [r4, #0]	@ tmp141,* pu32SecureChipId
	ldmfd	sp, {r3, r4, fp, sp, pc}	@
.L89:
	mov	ip, #1	@ tmp142,
	mov	r0, #0	@ ret,
	str	ip, [r4, #0]	@ tmp142,* pu32SecureChipId
	ldmfd	sp, {r3, r4, fp, sp, pc}	@
.L90:
	mov	lr, #2	@ tmp143,
	mov	r0, #0	@ ret,
	str	lr, [r4, #0]	@ tmp143,* pu32SecureChipId
	ldmfd	sp, {r3, r4, fp, sp, pc}	@
.L91:
	mov	r0, #3	@ tmp144,
	str	r0, [r4, #0]	@ tmp144,* pu32SecureChipId
	mov	r0, #0	@ ret,
	ldmfd	sp, {r3, r4, fp, sp, pc}	@
.L92:
	mov	r3, #4	@ tmp145,
	mov	r0, #0	@ ret,
	str	r3, [r4, #0]	@ tmp145,* pu32SecureChipId
	ldmfd	sp, {r3, r4, fp, sp, pc}	@
.L93:
	mov	r1, #5	@ tmp146,
	mov	r0, #0	@ ret,
	str	r1, [r4, #0]	@ tmp146,* pu32SecureChipId
	ldmfd	sp, {r3, r4, fp, sp, pc}	@
.L94:
	mov	r2, #6	@ tmp147,
	mov	r0, #0	@ ret,
	str	r2, [r4, #0]	@ tmp147,* pu32SecureChipId
	ldmfd	sp, {r3, r4, fp, sp, pc}	@
.L95:
	mov	ip, #7	@ tmp148,
	mov	r0, #0	@ ret,
	str	ip, [r4, #0]	@ tmp148,* pu32SecureChipId
	ldmfd	sp, {r3, r4, fp, sp, pc}	@
.L96:
	mov	lr, #8	@ tmp149,
	mov	r0, #0	@ ret,
	str	lr, [r4, #0]	@ tmp149,* pu32SecureChipId
	ldmfd	sp, {r3, r4, fp, sp, pc}	@
.L97:
	mov	r0, #9	@ tmp150,
	str	r0, [r4, #0]	@ tmp150,* pu32SecureChipId
	mov	r0, #0	@ ret,
	ldmfd	sp, {r3, r4, fp, sp, pc}	@
.L98:
	mov	r3, #10	@ tmp151,
	mov	r0, #0	@ ret,
	str	r3, [r4, #0]	@ tmp151,* pu32SecureChipId
	ldmfd	sp, {r3, r4, fp, sp, pc}	@
.L99:
	mov	r1, #11	@ tmp152,
	mov	r0, #0	@ ret,
	str	r1, [r4, #0]	@ tmp152,* pu32SecureChipId
	ldmfd	sp, {r3, r4, fp, sp, pc}	@
	.fnend
	.size	DRV_CA_OTP_V200_GetSecureChipId, .-DRV_CA_OTP_V200_GetSecureChipId
	.align	2
	.global	DRV_CA_OTP_V200_GetSecureChipP
	.type	DRV_CA_OTP_V200_GetSecureChipP, %function
DRV_CA_OTP_V200_GetSecureChipP:
	.fnstart
.LFB833:
	@ args = 0, pretend = 0, frame = 0
	@ frame_needed = 1, uses_anonymous_args = 0
	.movsp ip
	mov	ip, sp	@,
	stmfd	sp!, {r3, r4, fp, ip, lr, pc}	@,
	.pad #4
	.save {r3, r4, fp, ip, lr}
	.setfp fp, ip, #-4
	sub	fp, ip, #4	@,,
	push	{lr}
	bl	__gnu_mcount_nc
	subs	r4, r0, #0	@ pu32SecureChipP, pu32SecureChipP
	movweq	r3, #:lower16:-2142371835	@ ret,
	movteq	r3, #:upper16:-2142371835	@ ret,
	beq	.L105	@,
	movw	r2, #:lower16:g_pOTPExportFunctionList	@ tmp139,
	movt	r2, #:upper16:g_pOTPExportFunctionList	@ tmp139,
	mov	r0, #16	@,
	ldr	r1, [r2, #0]	@ g_pOTPExportFunctionList, g_pOTPExportFunctionList
	ldr	r3, [r1, #0]	@ <variable>.HAL_OTP_V200_Read, <variable>.HAL_OTP_V200_Read
	blx	r3	@ <variable>.HAL_OTP_V200_Read
	mov	r3, #0	@ ret,
	ubfx	r0, r0, #11, #1	@ tmp142,,,
	str	r0, [r4, #0]	@ tmp142,* pu32SecureChipP
.L105:
	mov	r0, r3	@, ret
	ldmfd	sp, {r3, r4, fp, sp, pc}	@
	.fnend
	.size	DRV_CA_OTP_V200_GetSecureChipP, .-DRV_CA_OTP_V200_GetSecureChipP
	.align	2
	.global	DRV_CA_OTP_V200_GetSecureChipFlag
	.type	DRV_CA_OTP_V200_GetSecureChipFlag, %function
DRV_CA_OTP_V200_GetSecureChipFlag:
	.fnstart
.LFB835:
	@ args = 0, pretend = 0, frame = 8
	@ frame_needed = 1, uses_anonymous_args = 0
	.movsp ip
	mov	ip, sp	@,
	stmfd	sp!, {r4, fp, ip, lr, pc}	@,
	.pad #4
	.save {r4, fp, ip, lr}
	.setfp fp, ip, #-4
	sub	fp, ip, #4	@,,
	.pad #12
	sub	sp, sp, #12	@,,
	push	{lr}
	bl	__gnu_mcount_nc
	subs	r4, r0, #0	@ pu32SecureChipFlag, pu32SecureChipFlag
	movweq	r3, #:lower16:-2142371835	@ ret,
	movteq	r3, #:upper16:-2142371835	@ ret,
	beq	.L109	@,
	movw	r2, #:lower16:g_pOTPExportFunctionList	@ tmp138,
	movt	r2, #:upper16:g_pOTPExportFunctionList	@ tmp138,
	mov	r0, #4	@,
	ldr	r1, [r2, #0]	@ g_pOTPExportFunctionList, g_pOTPExportFunctionList
	ldr	r3, [r1, #0]	@ <variable>.HAL_OTP_V200_Read, <variable>.HAL_OTP_V200_Read
	blx	r3	@ <variable>.HAL_OTP_V200_Read
	mov	r3, #0	@ ret,
	and	r0, r0, #1	@ tmp143,,
	str	r0, [r4, #0]	@ tmp143,* pu32SecureChipFlag
.L109:
	mov	r0, r3	@, ret
	sub	sp, fp, #16
	ldmfd	sp, {r4, fp, sp, pc}
	.fnend
	.size	DRV_CA_OTP_V200_GetSecureChipFlag, .-DRV_CA_OTP_V200_GetSecureChipFlag
	.align	2
	.global	DRV_CA_OTP_V200_GetCSA2Deactive
	.type	DRV_CA_OTP_V200_GetCSA2Deactive, %function
DRV_CA_OTP_V200_GetCSA2Deactive:
	.fnstart
.LFB839:
	@ args = 0, pretend = 0, frame = 0
	@ frame_needed = 1, uses_anonymous_args = 0
	.movsp ip
	mov	ip, sp	@,
	stmfd	sp!, {r3, r4, fp, ip, lr, pc}	@,
	.pad #4
	.save {r3, r4, fp, ip, lr}
	.setfp fp, ip, #-4
	sub	fp, ip, #4	@,,
	push	{lr}
	bl	__gnu_mcount_nc
	subs	r4, r0, #0	@ pu32CSA2Deactive, pu32CSA2Deactive
	movweq	r3, #:lower16:-2142371835	@ ret,
	movteq	r3, #:upper16:-2142371835	@ ret,
	beq	.L113	@,
	movw	r2, #:lower16:g_pOTPExportFunctionList	@ tmp139,
	movt	r2, #:upper16:g_pOTPExportFunctionList	@ tmp139,
	mov	r0, #24	@,
	ldr	r1, [r2, #0]	@ g_pOTPExportFunctionList, g_pOTPExportFunctionList
	ldr	r3, [r1, #0]	@ <variable>.HAL_OTP_V200_Read, <variable>.HAL_OTP_V200_Read
	blx	r3	@ <variable>.HAL_OTP_V200_Read
	mov	r3, #0	@ ret,
	ubfx	r0, r0, #3, #1	@ tmp142,,,
	str	r0, [r4, #0]	@ tmp142,* pu32CSA2Deactive
.L113:
	mov	r0, r3	@, ret
	ldmfd	sp, {r3, r4, fp, sp, pc}	@
	.fnend
	.size	DRV_CA_OTP_V200_GetCSA2Deactive, .-DRV_CA_OTP_V200_GetCSA2Deactive
	.align	2
	.global	DRV_CA_OTP_V200_GetR2RDeactive
	.type	DRV_CA_OTP_V200_GetR2RDeactive, %function
DRV_CA_OTP_V200_GetR2RDeactive:
	.fnstart
.LFB841:
	@ args = 0, pretend = 0, frame = 0
	@ frame_needed = 1, uses_anonymous_args = 0
	.movsp ip
	mov	ip, sp	@,
	stmfd	sp!, {r3, r4, fp, ip, lr, pc}	@,
	.pad #4
	.save {r3, r4, fp, ip, lr}
	.setfp fp, ip, #-4
	sub	fp, ip, #4	@,,
	push	{lr}
	bl	__gnu_mcount_nc
	subs	r4, r0, #0	@ pu32R2RDeactive, pu32R2RDeactive
	movweq	r3, #:lower16:-2142371835	@ ret,
	movteq	r3, #:upper16:-2142371835	@ ret,
	beq	.L117	@,
	movw	r2, #:lower16:g_pOTPExportFunctionList	@ tmp139,
	movt	r2, #:upper16:g_pOTPExportFunctionList	@ tmp139,
	mov	r0, #24	@,
	ldr	r1, [r2, #0]	@ g_pOTPExportFunctionList, g_pOTPExportFunctionList
	ldr	r3, [r1, #0]	@ <variable>.HAL_OTP_V200_Read, <variable>.HAL_OTP_V200_Read
	blx	r3	@ <variable>.HAL_OTP_V200_Read
	mov	r3, #0	@ ret,
	ubfx	r0, r0, #5, #1	@ tmp142,,,
	str	r0, [r4, #0]	@ tmp142,* pu32R2RDeactive
.L117:
	mov	r0, r3	@, ret
	ldmfd	sp, {r3, r4, fp, sp, pc}	@
	.fnend
	.size	DRV_CA_OTP_V200_GetR2RDeactive, .-DRV_CA_OTP_V200_GetR2RDeactive
	.align	2
	.global	DRV_CA_OTP_V200_GetSPDeactive
	.type	DRV_CA_OTP_V200_GetSPDeactive, %function
DRV_CA_OTP_V200_GetSPDeactive:
	.fnstart
.LFB843:
	@ args = 0, pretend = 0, frame = 0
	@ frame_needed = 1, uses_anonymous_args = 0
	.movsp ip
	mov	ip, sp	@,
	stmfd	sp!, {r3, r4, fp, ip, lr, pc}	@,
	.pad #4
	.save {r3, r4, fp, ip, lr}
	.setfp fp, ip, #-4
	sub	fp, ip, #4	@,,
	push	{lr}
	bl	__gnu_mcount_nc
	subs	r4, r0, #0	@ pu32SPDeactive, pu32SPDeactive
	movweq	r3, #:lower16:-2142371835	@ ret,
	movteq	r3, #:upper16:-2142371835	@ ret,
	beq	.L121	@,
	movw	r2, #:lower16:g_pOTPExportFunctionList	@ tmp139,
	movt	r2, #:upper16:g_pOTPExportFunctionList	@ tmp139,
	mov	r0, #24	@,
	ldr	r1, [r2, #0]	@ g_pOTPExportFunctionList, g_pOTPExportFunctionList
	ldr	r3, [r1, #0]	@ <variable>.HAL_OTP_V200_Read, <variable>.HAL_OTP_V200_Read
	blx	r3	@ <variable>.HAL_OTP_V200_Read
	mov	r3, #0	@ ret,
	ubfx	r0, r0, #6, #1	@ tmp142,,,
	str	r0, [r4, #0]	@ tmp142,* pu32SPDeactive
.L121:
	mov	r0, r3	@, ret
	ldmfd	sp, {r3, r4, fp, sp, pc}	@
	.fnend
	.size	DRV_CA_OTP_V200_GetSPDeactive, .-DRV_CA_OTP_V200_GetSPDeactive
	.align	2
	.global	DRV_CA_OTP_V200_GetESCKLock
	.type	DRV_CA_OTP_V200_GetESCKLock, %function
DRV_CA_OTP_V200_GetESCKLock:
	.fnstart
.LFB858:
	@ args = 0, pretend = 0, frame = 0
	@ frame_needed = 1, uses_anonymous_args = 0
	.movsp ip
	mov	ip, sp	@,
	stmfd	sp!, {r3, r4, fp, ip, lr, pc}	@,
	.pad #4
	.save {r3, r4, fp, ip, lr}
	.setfp fp, ip, #-4
	sub	fp, ip, #4	@,,
	push	{lr}
	bl	__gnu_mcount_nc
	subs	r4, r0, #0	@ pbLock, pbLock
	movweq	r0, #:lower16:-2142371835	@ ret,
	movteq	r0, #:upper16:-2142371835	@ ret,
	ldmeqfd	sp, {r3, r4, fp, sp, pc}	@
	movw	r2, #:lower16:g_pOTPExportFunctionList	@ tmp139,
	movt	r2, #:upper16:g_pOTPExportFunctionList	@ tmp139,
	mov	r0, #16	@,
	ldr	r1, [r2, #0]	@ g_pOTPExportFunctionList, g_pOTPExportFunctionList
	ldr	r3, [r1, #0]	@ <variable>.HAL_OTP_V200_Read, <variable>.HAL_OTP_V200_Read
	blx	r3	@ <variable>.HAL_OTP_V200_Read
	ubfx	r0, r0, #2, #1	@ tmp142,,,
	cmp	r0, #0	@ tmp142,
	streq	r0, [r4, #0]	@ tmp142,* pbLock
	movne	r3, #1	@ tmp144,
	movne	r0, #0	@ ret,
	strne	r3, [r4, #0]	@ tmp144,* pbLock
	ldmfd	sp, {r3, r4, fp, sp, pc}	@
	.fnend
	.size	DRV_CA_OTP_V200_GetESCKLock, .-DRV_CA_OTP_V200_GetESCKLock
	.align	2
	.global	DRV_CA_OTP_V200_GetMISCRootKeyLock
	.type	DRV_CA_OTP_V200_GetMISCRootKeyLock, %function
DRV_CA_OTP_V200_GetMISCRootKeyLock:
	.fnstart
.LFB861:
	@ args = 0, pretend = 0, frame = 0
	@ frame_needed = 1, uses_anonymous_args = 0
	.movsp ip
	mov	ip, sp	@,
	stmfd	sp!, {r3, r4, fp, ip, lr, pc}	@,
	.pad #4
	.save {r3, r4, fp, ip, lr}
	.setfp fp, ip, #-4
	sub	fp, ip, #4	@,,
	push	{lr}
	bl	__gnu_mcount_nc
	subs	r4, r0, #0	@ pbLock, pbLock
	movweq	r0, #:lower16:-2142371835	@ ret,
	movteq	r0, #:upper16:-2142371835	@ ret,
	ldmeqfd	sp, {r3, r4, fp, sp, pc}	@
	movw	r2, #:lower16:g_pOTPExportFunctionList	@ tmp139,
	movt	r2, #:upper16:g_pOTPExportFunctionList	@ tmp139,
	mov	r0, #16	@,
	ldr	r1, [r2, #0]	@ g_pOTPExportFunctionList, g_pOTPExportFunctionList
	ldr	r3, [r1, #0]	@ <variable>.HAL_OTP_V200_Read, <variable>.HAL_OTP_V200_Read
	blx	r3	@ <variable>.HAL_OTP_V200_Read
	ubfx	r0, r0, #15, #1	@ tmp142,,,
	cmp	r0, #0	@ tmp142,
	streq	r0, [r4, #0]	@ tmp142,* pbLock
	movne	r3, #1	@ tmp144,
	movne	r0, #0	@ ret,
	strne	r3, [r4, #0]	@ tmp144,* pbLock
	ldmfd	sp, {r3, r4, fp, sp, pc}	@
	.fnend
	.size	DRV_CA_OTP_V200_GetMISCRootKeyLock, .-DRV_CA_OTP_V200_GetMISCRootKeyLock
	.align	2
	.global	DRV_CA_OTP_V200_GetOEMRootKeyLock
	.type	DRV_CA_OTP_V200_GetOEMRootKeyLock, %function
DRV_CA_OTP_V200_GetOEMRootKeyLock:
	.fnstart
.LFB864:
	@ args = 0, pretend = 0, frame = 0
	@ frame_needed = 1, uses_anonymous_args = 0
	.movsp ip
	mov	ip, sp	@,
	stmfd	sp!, {r3, r4, fp, ip, lr, pc}	@,
	.pad #4
	.save {r3, r4, fp, ip, lr}
	.setfp fp, ip, #-4
	sub	fp, ip, #4	@,,
	push	{lr}
	bl	__gnu_mcount_nc
	subs	r4, r0, #0	@ pbLock, pbLock
	movweq	r3, #:lower16:-2142371835	@ ret,
	movteq	r3, #:upper16:-2142371835	@ ret,
	beq	.L135	@,
	movw	r2, #:lower16:g_pOTPExportFunctionList	@ tmp139,
	movt	r2, #:upper16:g_pOTPExportFunctionList	@ tmp139,
	mov	r0, #16	@,
	ldr	r1, [r2, #0]	@ g_pOTPExportFunctionList, g_pOTPExportFunctionList
	ldr	r3, [r1, #0]	@ <variable>.HAL_OTP_V200_Read, <variable>.HAL_OTP_V200_Read
	blx	r3	@ <variable>.HAL_OTP_V200_Read
	mov	r3, #0	@ ret,
	ubfx	r0, r0, #17, #1	@ tmp142,,,
	str	r0, [r4, #0]	@ tmp142,* pbLock
.L135:
	mov	r0, r3	@, ret
	ldmfd	sp, {r3, r4, fp, sp, pc}	@
	.fnend
	.size	DRV_CA_OTP_V200_GetOEMRootKeyLock, .-DRV_CA_OTP_V200_GetOEMRootKeyLock
	.align	2
	.global	DRV_CA_OTP_V200_GetRSAKeyLock
	.type	DRV_CA_OTP_V200_GetRSAKeyLock, %function
DRV_CA_OTP_V200_GetRSAKeyLock:
	.fnstart
.LFB873:
	@ args = 0, pretend = 0, frame = 0
	@ frame_needed = 1, uses_anonymous_args = 0
	.movsp ip
	mov	ip, sp	@,
	stmfd	sp!, {r3, r4, fp, ip, lr, pc}	@,
	.pad #4
	.save {r3, r4, fp, ip, lr}
	.setfp fp, ip, #-4
	sub	fp, ip, #4	@,,
	push	{lr}
	bl	__gnu_mcount_nc
	movw	r2, #:lower16:g_pOTPExportFunctionList	@ tmp138,
	movt	r2, #:upper16:g_pOTPExportFunctionList	@ tmp138,
	mov	r4, r0	@ pu32Lock, pu32Lock
	mov	r0, #20	@,
	ldr	r1, [r2, #0]	@ g_pOTPExportFunctionList, g_pOTPExportFunctionList
	ldr	r3, [r1, #0]	@ <variable>.HAL_OTP_V200_Read, <variable>.HAL_OTP_V200_Read
	blx	r3	@ <variable>.HAL_OTP_V200_Read
	and	r0, r0, #1	@ tmp141,,
	str	r0, [r4, #0]	@ tmp141,* pu32Lock
	mov	r0, #0	@,
	ldmfd	sp, {r3, r4, fp, sp, pc}	@
	.fnend
	.size	DRV_CA_OTP_V200_GetRSAKeyLock, .-DRV_CA_OTP_V200_GetRSAKeyLock
	.align	2
	.global	DRV_CA_OTP_V200_GetChipId
	.type	DRV_CA_OTP_V200_GetChipId, %function
DRV_CA_OTP_V200_GetChipId:
	.fnstart
.LFB876:
	@ args = 0, pretend = 0, frame = 0
	@ frame_needed = 1, uses_anonymous_args = 0
	.movsp ip
	mov	ip, sp	@,
	stmfd	sp!, {r3, r4, fp, ip, lr, pc}	@,
	.pad #4
	.save {r3, r4, fp, ip, lr}
	.setfp fp, ip, #-4
	sub	fp, ip, #4	@,,
	push	{lr}
	bl	__gnu_mcount_nc
	subs	r4, r0, #0	@ pu32ChipID, pu32ChipID
	movweq	r3, #:lower16:-2142371835	@ ret,
	movteq	r3, #:upper16:-2142371835	@ ret,
	beq	.L141	@,
	movw	r2, #:lower16:g_pOTPExportFunctionList	@ tmp138,
	movt	r2, #:upper16:g_pOTPExportFunctionList	@ tmp138,
	mov	r0, #104	@,
	ldr	r1, [r2, #0]	@ g_pOTPExportFunctionList, g_pOTPExportFunctionList
	ldr	r3, [r1, #0]	@ <variable>.HAL_OTP_V200_Read, <variable>.HAL_OTP_V200_Read
	blx	r3	@ <variable>.HAL_OTP_V200_Read
	mov	r3, #0	@ ret,
	str	r0, [r4, #0]	@,* pu32ChipID
.L141:
	mov	r0, r3	@, ret
	ldmfd	sp, {r3, r4, fp, sp, pc}	@
	.fnend
	.size	DRV_CA_OTP_V200_GetChipId, .-DRV_CA_OTP_V200_GetChipId
	.align	2
	.global	DRV_CA_OTP_V200_GetUniqueChipId
	.type	DRV_CA_OTP_V200_GetUniqueChipId, %function
DRV_CA_OTP_V200_GetUniqueChipId:
	.fnstart
.LFB877:
	@ args = 0, pretend = 0, frame = 0
	@ frame_needed = 1, uses_anonymous_args = 0
	.movsp ip
	mov	ip, sp	@,
	stmfd	sp!, {r4, r5, fp, ip, lr, pc}	@,
	.pad #4
	.save {r4, r5, fp, ip, lr}
	.setfp fp, ip, #-4
	sub	fp, ip, #4	@,,
	push	{lr}
	bl	__gnu_mcount_nc
	subs	r5, r0, #0	@ pu8ChipID, pu8ChipID
	movweq	r3, #:lower16:-2142371835	@ ret,
	movteq	r3, #:upper16:-2142371835	@ ret,
	beq	.L145	@,
	movw	r4, #:lower16:g_pOTPExportFunctionList	@ tmp141,
	movt	r4, #:upper16:g_pOTPExportFunctionList	@ tmp141,
	mov	r0, #104	@,
	ldr	lr, [r4, #0]	@ g_pOTPExportFunctionList, g_pOTPExportFunctionList
	ldr	r2, [lr, #4]	@ <variable>.HAL_OTP_V200_ReadByte, <variable>.HAL_OTP_V200_ReadByte
	blx	r2	@ <variable>.HAL_OTP_V200_ReadByte
	strb	r0, [r5, #0]	@,* pu8ChipID
	mov	r0, #105	@,
	ldr	r1, [r4, #0]	@ g_pOTPExportFunctionList, g_pOTPExportFunctionList
	ldr	r3, [r1, #4]	@ <variable>.HAL_OTP_V200_ReadByte, <variable>.HAL_OTP_V200_ReadByte
	blx	r3	@ <variable>.HAL_OTP_V200_ReadByte
	strb	r0, [r5, #1]	@,
	mov	r0, #106	@,
	ldr	ip, [r4, #0]	@ g_pOTPExportFunctionList, g_pOTPExportFunctionList
	ldr	r2, [ip, #4]	@ <variable>.HAL_OTP_V200_ReadByte, <variable>.HAL_OTP_V200_ReadByte
	blx	r2	@ <variable>.HAL_OTP_V200_ReadByte
	strb	r0, [r5, #2]	@,
	mov	r0, #107	@,
	ldr	r1, [r4, #0]	@ g_pOTPExportFunctionList, g_pOTPExportFunctionList
	ldr	r3, [r1, #4]	@ <variable>.HAL_OTP_V200_ReadByte, <variable>.HAL_OTP_V200_ReadByte
	blx	r3	@ <variable>.HAL_OTP_V200_ReadByte
	mov	r3, #0	@ ret,
	strb	r0, [r5, #3]	@,
.L145:
	mov	r0, r3	@, ret
	ldmfd	sp, {r4, r5, fp, sp, pc}	@
	.fnend
	.size	DRV_CA_OTP_V200_GetUniqueChipId, .-DRV_CA_OTP_V200_GetUniqueChipId
	.align	2
	.global	DRV_CA_OTP_V200_GetChipIdLock
	.type	DRV_CA_OTP_V200_GetChipIdLock, %function
DRV_CA_OTP_V200_GetChipIdLock:
	.fnstart
.LFB879:
	@ args = 0, pretend = 0, frame = 0
	@ frame_needed = 1, uses_anonymous_args = 0
	.movsp ip
	mov	ip, sp	@,
	stmfd	sp!, {r3, r4, fp, ip, lr, pc}	@,
	.pad #4
	.save {r3, r4, fp, ip, lr}
	.setfp fp, ip, #-4
	sub	fp, ip, #4	@,,
	push	{lr}
	bl	__gnu_mcount_nc
	subs	r4, r0, #0	@ pu32Lock, pu32Lock
	movweq	r3, #:lower16:-2142371835	@ ret,
	movteq	r3, #:upper16:-2142371835	@ ret,
	beq	.L149	@,
	movw	r2, #:lower16:g_pOTPExportFunctionList	@ tmp139,
	movt	r2, #:upper16:g_pOTPExportFunctionList	@ tmp139,
	mov	r0, #16	@,
	ldr	r1, [r2, #0]	@ g_pOTPExportFunctionList, g_pOTPExportFunctionList
	ldr	r3, [r1, #0]	@ <variable>.HAL_OTP_V200_Read, <variable>.HAL_OTP_V200_Read
	blx	r3	@ <variable>.HAL_OTP_V200_Read
	mov	r3, #0	@ ret,
	ubfx	r0, r0, #1, #1	@ tmp142,,,
	str	r0, [r4, #0]	@ tmp142,* pu32Lock
.L149:
	mov	r0, r3	@, ret
	ldmfd	sp, {r3, r4, fp, sp, pc}	@
	.fnend
	.size	DRV_CA_OTP_V200_GetChipIdLock, .-DRV_CA_OTP_V200_GetChipIdLock
	.align	2
	.global	DRV_CA_OTP_V200_GetLowPowerDisable
	.type	DRV_CA_OTP_V200_GetLowPowerDisable, %function
DRV_CA_OTP_V200_GetLowPowerDisable:
	.fnstart
.LFB883:
	@ args = 0, pretend = 0, frame = 0
	@ frame_needed = 1, uses_anonymous_args = 0
	.movsp ip
	mov	ip, sp	@,
	stmfd	sp!, {r3, r4, fp, ip, lr, pc}	@,
	.pad #4
	.save {r3, r4, fp, ip, lr}
	.setfp fp, ip, #-4
	sub	fp, ip, #4	@,,
	push	{lr}
	bl	__gnu_mcount_nc
	subs	r4, r0, #0	@ pu32Flag, pu32Flag
	movweq	r3, #:lower16:-2142371835	@ ret,
	movteq	r3, #:upper16:-2142371835	@ ret,
	beq	.L153	@,
	movw	r2, #:lower16:g_pOTPExportFunctionList	@ tmp139,
	movt	r2, #:upper16:g_pOTPExportFunctionList	@ tmp139,
	mov	r0, #0	@,
	ldr	r1, [r2, #0]	@ g_pOTPExportFunctionList, g_pOTPExportFunctionList
	ldr	r3, [r1, #0]	@ <variable>.HAL_OTP_V200_Read, <variable>.HAL_OTP_V200_Read
	blx	r3	@ <variable>.HAL_OTP_V200_Read
	mov	r3, #0	@ ret,
	ubfx	r0, r0, #4, #1	@ tmp142,,,
	str	r0, [r4, #0]	@ tmp142,* pu32Flag
.L153:
	mov	r0, r3	@, ret
	ldmfd	sp, {r3, r4, fp, sp, pc}	@
	.fnend
	.size	DRV_CA_OTP_V200_GetLowPowerDisable, .-DRV_CA_OTP_V200_GetLowPowerDisable
	.align	2
	.global	DRV_CA_OTP_V200_GetCsa3En
	.type	DRV_CA_OTP_V200_GetCsa3En, %function
DRV_CA_OTP_V200_GetCsa3En:
	.fnstart
.LFB885:
	@ args = 0, pretend = 0, frame = 0
	@ frame_needed = 1, uses_anonymous_args = 0
	.movsp ip
	mov	ip, sp	@,
	stmfd	sp!, {r3, r4, fp, ip, lr, pc}	@,
	.pad #4
	.save {r3, r4, fp, ip, lr}
	.setfp fp, ip, #-4
	sub	fp, ip, #4	@,,
	push	{lr}
	bl	__gnu_mcount_nc
	subs	r4, r0, #0	@ pu32CSA3Disable, pu32CSA3Disable
	movweq	r3, #:lower16:-2142371835	@ ret,
	movteq	r3, #:upper16:-2142371835	@ ret,
	beq	.L157	@,
	movw	r2, #:lower16:g_pOTPExportFunctionList	@ tmp139,
	movt	r2, #:upper16:g_pOTPExportFunctionList	@ tmp139,
	mov	r0, #24	@,
	ldr	r1, [r2, #0]	@ g_pOTPExportFunctionList, g_pOTPExportFunctionList
	ldr	r3, [r1, #0]	@ <variable>.HAL_OTP_V200_Read, <variable>.HAL_OTP_V200_Read
	blx	r3	@ <variable>.HAL_OTP_V200_Read
	mov	r3, #0	@ ret,
	ubfx	r0, r0, #4, #1	@ tmp142,,,
	str	r0, [r4, #0]	@ tmp142,* pu32CSA3Disable
.L157:
	mov	r0, r3	@, ret
	ldmfd	sp, {r3, r4, fp, sp, pc}	@
	.fnend
	.size	DRV_CA_OTP_V200_GetCsa3En, .-DRV_CA_OTP_V200_GetCsa3En
	.align	2
	.global	DRV_CA_OTP_V200_GetLpcEn
	.type	DRV_CA_OTP_V200_GetLpcEn, %function
DRV_CA_OTP_V200_GetLpcEn:
	.fnstart
.LFB887:
	@ args = 0, pretend = 0, frame = 8
	@ frame_needed = 1, uses_anonymous_args = 0
	.movsp ip
	mov	ip, sp	@,
	stmfd	sp!, {r4, fp, ip, lr, pc}	@,
	.pad #4
	.save {r4, fp, ip, lr}
	.setfp fp, ip, #-4
	sub	fp, ip, #4	@,,
	.pad #12
	sub	sp, sp, #12	@,,
	push	{lr}
	bl	__gnu_mcount_nc
	subs	r4, r0, #0	@ pu32LpcDisable, pu32LpcDisable
	movweq	r3, #:lower16:-2142371835	@ ret,
	movteq	r3, #:upper16:-2142371835	@ ret,
	beq	.L161	@,
	movw	r2, #:lower16:g_pOTPExportFunctionList	@ tmp138,
	movt	r2, #:upper16:g_pOTPExportFunctionList	@ tmp138,
	mov	r0, #4	@,
	ldr	r1, [r2, #0]	@ g_pOTPExportFunctionList, g_pOTPExportFunctionList
	ldr	r3, [r1, #0]	@ <variable>.HAL_OTP_V200_Read, <variable>.HAL_OTP_V200_Read
	blx	r3	@ <variable>.HAL_OTP_V200_Read
	mov	r3, #0	@ ret,
	ubfx	r0, r0, #16, #1	@ tmp143,,,
	str	r0, [r4, #0]	@ tmp143,* pu32LpcDisable
.L161:
	mov	r0, r3	@, ret
	sub	sp, fp, #16
	ldmfd	sp, {r4, fp, sp, pc}
	.fnend
	.size	DRV_CA_OTP_V200_GetLpcEn, .-DRV_CA_OTP_V200_GetLpcEn
	.align	2
	.global	DRV_CA_OTP_V200_GetLpcMasterEn
	.type	DRV_CA_OTP_V200_GetLpcMasterEn, %function
DRV_CA_OTP_V200_GetLpcMasterEn:
	.fnstart
.LFB889:
	@ args = 0, pretend = 0, frame = 8
	@ frame_needed = 1, uses_anonymous_args = 0
	.movsp ip
	mov	ip, sp	@,
	stmfd	sp!, {r4, fp, ip, lr, pc}	@,
	.pad #4
	.save {r4, fp, ip, lr}
	.setfp fp, ip, #-4
	sub	fp, ip, #4	@,,
	.pad #12
	sub	sp, sp, #12	@,,
	push	{lr}
	bl	__gnu_mcount_nc
	subs	r4, r0, #0	@ pu32LpcMasterDisable, pu32LpcMasterDisable
	movweq	r3, #:lower16:-2142371835	@ ret,
	movteq	r3, #:upper16:-2142371835	@ ret,
	beq	.L165	@,
	movw	r2, #:lower16:g_pOTPExportFunctionList	@ tmp138,
	movt	r2, #:upper16:g_pOTPExportFunctionList	@ tmp138,
	mov	r0, #4	@,
	ldr	r1, [r2, #0]	@ g_pOTPExportFunctionList, g_pOTPExportFunctionList
	ldr	r3, [r1, #0]	@ <variable>.HAL_OTP_V200_Read, <variable>.HAL_OTP_V200_Read
	blx	r3	@ <variable>.HAL_OTP_V200_Read
	mov	r3, #0	@ ret,
	ubfx	r0, r0, #17, #1	@ tmp143,,,
	str	r0, [r4, #0]	@ tmp143,* pu32LpcMasterDisable
.L165:
	mov	r0, r3	@, ret
	sub	sp, fp, #16
	ldmfd	sp, {r4, fp, sp, pc}
	.fnend
	.size	DRV_CA_OTP_V200_GetLpcMasterEn, .-DRV_CA_OTP_V200_GetLpcMasterEn
	.align	2
	.global	DRV_CA_OTP_V200_GetBootSelLock_0
	.type	DRV_CA_OTP_V200_GetBootSelLock_0, %function
DRV_CA_OTP_V200_GetBootSelLock_0:
	.fnstart
.LFB891:
	@ args = 0, pretend = 0, frame = 0
	@ frame_needed = 1, uses_anonymous_args = 0
	.movsp ip
	mov	ip, sp	@,
	stmfd	sp!, {r3, r4, fp, ip, lr, pc}	@,
	.pad #4
	.save {r3, r4, fp, ip, lr}
	.setfp fp, ip, #-4
	sub	fp, ip, #4	@,,
	push	{lr}
	bl	__gnu_mcount_nc
	subs	r4, r0, #0	@ pu32BootSelLock, pu32BootSelLock
	movweq	r3, #:lower16:-2142371835	@ ret,
	movteq	r3, #:upper16:-2142371835	@ ret,
	beq	.L169	@,
	movw	r2, #:lower16:g_pOTPExportFunctionList	@ tmp139,
	movt	r2, #:upper16:g_pOTPExportFunctionList	@ tmp139,
	mov	r0, #8	@,
	ldr	r1, [r2, #0]	@ g_pOTPExportFunctionList, g_pOTPExportFunctionList
	ldr	r3, [r1, #0]	@ <variable>.HAL_OTP_V200_Read, <variable>.HAL_OTP_V200_Read
	blx	r3	@ <variable>.HAL_OTP_V200_Read
	mov	r3, #0	@ ret,
	and	r0, r0, #1	@ tmp142,,
	str	r0, [r4, #0]	@ tmp142,* pu32BootSelLock
.L169:
	mov	r0, r3	@, ret
	ldmfd	sp, {r3, r4, fp, sp, pc}	@
	.fnend
	.size	DRV_CA_OTP_V200_GetBootSelLock_0, .-DRV_CA_OTP_V200_GetBootSelLock_0
	.align	2
	.global	DRV_CA_OTP_V200_GetBootSelLock_1
	.type	DRV_CA_OTP_V200_GetBootSelLock_1, %function
DRV_CA_OTP_V200_GetBootSelLock_1:
	.fnstart
.LFB893:
	@ args = 0, pretend = 0, frame = 0
	@ frame_needed = 1, uses_anonymous_args = 0
	.movsp ip
	mov	ip, sp	@,
	stmfd	sp!, {r3, r4, fp, ip, lr, pc}	@,
	.pad #4
	.save {r3, r4, fp, ip, lr}
	.setfp fp, ip, #-4
	sub	fp, ip, #4	@,,
	push	{lr}
	bl	__gnu_mcount_nc
	subs	r4, r0, #0	@ pu32BootSelLock, pu32BootSelLock
	movweq	r3, #:lower16:-2142371835	@ ret,
	movteq	r3, #:upper16:-2142371835	@ ret,
	beq	.L173	@,
	movw	r2, #:lower16:g_pOTPExportFunctionList	@ tmp139,
	movt	r2, #:upper16:g_pOTPExportFunctionList	@ tmp139,
	mov	r0, #8	@,
	ldr	r1, [r2, #0]	@ g_pOTPExportFunctionList, g_pOTPExportFunctionList
	ldr	r3, [r1, #0]	@ <variable>.HAL_OTP_V200_Read, <variable>.HAL_OTP_V200_Read
	blx	r3	@ <variable>.HAL_OTP_V200_Read
	mov	r3, #0	@ ret,
	ubfx	r0, r0, #1, #1	@ tmp142,,,
	str	r0, [r4, #0]	@ tmp142,* pu32BootSelLock
.L173:
	mov	r0, r3	@, ret
	ldmfd	sp, {r3, r4, fp, sp, pc}	@
	.fnend
	.size	DRV_CA_OTP_V200_GetBootSelLock_1, .-DRV_CA_OTP_V200_GetBootSelLock_1
	.align	2
	.global	DRV_CA_OTP_V200_GetMktIdP
	.type	DRV_CA_OTP_V200_GetMktIdP, %function
DRV_CA_OTP_V200_GetMktIdP:
	.fnstart
.LFB895:
	@ args = 0, pretend = 0, frame = 0
	@ frame_needed = 1, uses_anonymous_args = 0
	.movsp ip
	mov	ip, sp	@,
	stmfd	sp!, {r3, r4, fp, ip, lr, pc}	@,
	.pad #4
	.save {r3, r4, fp, ip, lr}
	.setfp fp, ip, #-4
	sub	fp, ip, #4	@,,
	push	{lr}
	bl	__gnu_mcount_nc
	subs	r4, r0, #0	@ pu32mktIdP, pu32mktIdP
	movweq	r3, #:lower16:-2142371835	@ ret,
	movteq	r3, #:upper16:-2142371835	@ ret,
	beq	.L177	@,
	movw	r2, #:lower16:g_pOTPExportFunctionList	@ tmp139,
	movt	r2, #:upper16:g_pOTPExportFunctionList	@ tmp139,
	mov	r0, #16	@,
	ldr	r1, [r2, #0]	@ g_pOTPExportFunctionList, g_pOTPExportFunctionList
	ldr	r3, [r1, #0]	@ <variable>.HAL_OTP_V200_Read, <variable>.HAL_OTP_V200_Read
	blx	r3	@ <variable>.HAL_OTP_V200_Read
	mov	r3, #0	@ ret,
	ubfx	r0, r0, #8, #1	@ tmp142,,,
	str	r0, [r4, #0]	@ tmp142,* pu32mktIdP
.L177:
	mov	r0, r3	@, ret
	ldmfd	sp, {r3, r4, fp, sp, pc}	@
	.fnend
	.size	DRV_CA_OTP_V200_GetMktIdP, .-DRV_CA_OTP_V200_GetMktIdP
	.align	2
	.global	DRV_CA_OTP_V200_GetStbSnP
	.type	DRV_CA_OTP_V200_GetStbSnP, %function
DRV_CA_OTP_V200_GetStbSnP:
	.fnstart
.LFB897:
	@ args = 0, pretend = 0, frame = 0
	@ frame_needed = 1, uses_anonymous_args = 0
	.movsp ip
	mov	ip, sp	@,
	stmfd	sp!, {r3, r4, fp, ip, lr, pc}	@,
	.pad #4
	.save {r3, r4, fp, ip, lr}
	.setfp fp, ip, #-4
	sub	fp, ip, #4	@,,
	push	{lr}
	bl	__gnu_mcount_nc
	subs	r4, r0, #0	@ pu32StbSnP, pu32StbSnP
	movweq	r3, #:lower16:-2142371835	@ ret,
	movteq	r3, #:upper16:-2142371835	@ ret,
	beq	.L181	@,
	movw	r2, #:lower16:g_pOTPExportFunctionList	@ tmp141,
	movt	r2, #:upper16:g_pOTPExportFunctionList	@ tmp141,
	mov	r0, #16	@,
	ldr	r1, [r2, #0]	@ g_pOTPExportFunctionList, g_pOTPExportFunctionList
	ldr	r3, [r1, #0]	@ <variable>.HAL_OTP_V200_Read, <variable>.HAL_OTP_V200_Read
	blx	r3	@ <variable>.HAL_OTP_V200_Read
	mov	r3, #0	@ ret,
	ubfx	r0, r0, #4, #4	@ tmp154,,,
	str	r0, [r4, #0]	@ tmp154,* pu32StbSnP
.L181:
	mov	r0, r3	@, ret
	ldmfd	sp, {r3, r4, fp, sp, pc}	@
	.fnend
	.size	DRV_CA_OTP_V200_GetStbSnP, .-DRV_CA_OTP_V200_GetStbSnP
	.align	2
	.global	DRV_CA_OTP_V200_GetSelfbootLock
	.type	DRV_CA_OTP_V200_GetSelfbootLock, %function
DRV_CA_OTP_V200_GetSelfbootLock:
	.fnstart
.LFB899:
	@ args = 0, pretend = 0, frame = 0
	@ frame_needed = 1, uses_anonymous_args = 0
	.movsp ip
	mov	ip, sp	@,
	stmfd	sp!, {r3, r4, fp, ip, lr, pc}	@,
	.pad #4
	.save {r3, r4, fp, ip, lr}
	.setfp fp, ip, #-4
	sub	fp, ip, #4	@,,
	push	{lr}
	bl	__gnu_mcount_nc
	subs	r4, r0, #0	@ pu32Lock, pu32Lock
	movweq	r3, #:lower16:-2142371835	@ ret,
	movteq	r3, #:upper16:-2142371835	@ ret,
	beq	.L185	@,
	movw	r2, #:lower16:g_pOTPExportFunctionList	@ tmp139,
	movt	r2, #:upper16:g_pOTPExportFunctionList	@ tmp139,
	mov	r0, #8	@,
	ldr	r1, [r2, #0]	@ g_pOTPExportFunctionList, g_pOTPExportFunctionList
	ldr	r3, [r1, #0]	@ <variable>.HAL_OTP_V200_Read, <variable>.HAL_OTP_V200_Read
	blx	r3	@ <variable>.HAL_OTP_V200_Read
	mov	r3, #0	@ ret,
	ubfx	r0, r0, #3, #1	@ tmp142,,,
	str	r0, [r4, #0]	@ tmp142,* pu32Lock
.L185:
	mov	r0, r3	@, ret
	ldmfd	sp, {r3, r4, fp, sp, pc}	@
	.fnend
	.size	DRV_CA_OTP_V200_GetSelfbootLock, .-DRV_CA_OTP_V200_GetSelfbootLock
	.align	2
	.global	DRV_CA_OTP_V200_GetLowPowerDisableLock
	.type	DRV_CA_OTP_V200_GetLowPowerDisableLock, %function
DRV_CA_OTP_V200_GetLowPowerDisableLock:
	.fnstart
.LFB901:
	@ args = 0, pretend = 0, frame = 0
	@ frame_needed = 1, uses_anonymous_args = 0
	.movsp ip
	mov	ip, sp	@,
	stmfd	sp!, {r3, r4, fp, ip, lr, pc}	@,
	.pad #4
	.save {r3, r4, fp, ip, lr}
	.setfp fp, ip, #-4
	sub	fp, ip, #4	@,,
	push	{lr}
	bl	__gnu_mcount_nc
	subs	r4, r0, #0	@ pu32Lock, pu32Lock
	movweq	r3, #:lower16:-2142371835	@ ret,
	movteq	r3, #:upper16:-2142371835	@ ret,
	beq	.L189	@,
	movw	r2, #:lower16:g_pOTPExportFunctionList	@ tmp139,
	movt	r2, #:upper16:g_pOTPExportFunctionList	@ tmp139,
	mov	r0, #8	@,
	ldr	r1, [r2, #0]	@ g_pOTPExportFunctionList, g_pOTPExportFunctionList
	ldr	r3, [r1, #0]	@ <variable>.HAL_OTP_V200_Read, <variable>.HAL_OTP_V200_Read
	blx	r3	@ <variable>.HAL_OTP_V200_Read
	mov	r3, #0	@ ret,
	ubfx	r0, r0, #4, #1	@ tmp142,,,
	str	r0, [r4, #0]	@ tmp142,* pu32Lock
.L189:
	mov	r0, r3	@, ret
	ldmfd	sp, {r3, r4, fp, sp, pc}	@
	.fnend
	.size	DRV_CA_OTP_V200_GetLowPowerDisableLock, .-DRV_CA_OTP_V200_GetLowPowerDisableLock
	.align	2
	.global	DRV_CA_OTP_V200_GetDVBLadderLock
	.type	DRV_CA_OTP_V200_GetDVBLadderLock, %function
DRV_CA_OTP_V200_GetDVBLadderLock:
	.fnstart
.LFB903:
	@ args = 0, pretend = 0, frame = 0
	@ frame_needed = 1, uses_anonymous_args = 0
	.movsp ip
	mov	ip, sp	@,
	stmfd	sp!, {r3, r4, fp, ip, lr, pc}	@,
	.pad #4
	.save {r3, r4, fp, ip, lr}
	.setfp fp, ip, #-4
	sub	fp, ip, #4	@,,
	push	{lr}
	bl	__gnu_mcount_nc
	subs	r4, r0, #0	@ pu32Lock, pu32Lock
	movweq	r3, #:lower16:-2142371835	@ ret,
	movteq	r3, #:upper16:-2142371835	@ ret,
	beq	.L193	@,
	movw	r2, #:lower16:g_pOTPExportFunctionList	@ tmp139,
	movt	r2, #:upper16:g_pOTPExportFunctionList	@ tmp139,
	mov	r0, #8	@,
	ldr	r1, [r2, #0]	@ g_pOTPExportFunctionList, g_pOTPExportFunctionList
	ldr	r3, [r1, #0]	@ <variable>.HAL_OTP_V200_Read, <variable>.HAL_OTP_V200_Read
	blx	r3	@ <variable>.HAL_OTP_V200_Read
	mov	r3, #0	@ ret,
	ubfx	r0, r0, #5, #1	@ tmp142,,,
	str	r0, [r4, #0]	@ tmp142,* pu32Lock
.L193:
	mov	r0, r3	@, ret
	ldmfd	sp, {r3, r4, fp, sp, pc}	@
	.fnend
	.size	DRV_CA_OTP_V200_GetDVBLadderLock, .-DRV_CA_OTP_V200_GetDVBLadderLock
	.align	2
	.global	DRV_CA_OTP_V200_GetR2RLadderLock
	.type	DRV_CA_OTP_V200_GetR2RLadderLock, %function
DRV_CA_OTP_V200_GetR2RLadderLock:
	.fnstart
.LFB905:
	@ args = 0, pretend = 0, frame = 0
	@ frame_needed = 1, uses_anonymous_args = 0
	.movsp ip
	mov	ip, sp	@,
	stmfd	sp!, {r3, r4, fp, ip, lr, pc}	@,
	.pad #4
	.save {r3, r4, fp, ip, lr}
	.setfp fp, ip, #-4
	sub	fp, ip, #4	@,,
	push	{lr}
	bl	__gnu_mcount_nc
	subs	r4, r0, #0	@ pu32Lock, pu32Lock
	movweq	r3, #:lower16:-2142371835	@ ret,
	movteq	r3, #:upper16:-2142371835	@ ret,
	beq	.L197	@,
	movw	r2, #:lower16:g_pOTPExportFunctionList	@ tmp139,
	movt	r2, #:upper16:g_pOTPExportFunctionList	@ tmp139,
	mov	r0, #8	@,
	ldr	r1, [r2, #0]	@ g_pOTPExportFunctionList, g_pOTPExportFunctionList
	ldr	r3, [r1, #0]	@ <variable>.HAL_OTP_V200_Read, <variable>.HAL_OTP_V200_Read
	blx	r3	@ <variable>.HAL_OTP_V200_Read
	mov	r3, #0	@ ret,
	ubfx	r0, r0, #6, #1	@ tmp142,,,
	str	r0, [r4, #0]	@ tmp142,* pu32Lock
.L197:
	mov	r0, r3	@, ret
	ldmfd	sp, {r3, r4, fp, sp, pc}	@
	.fnend
	.size	DRV_CA_OTP_V200_GetR2RLadderLock, .-DRV_CA_OTP_V200_GetR2RLadderLock
	.align	2
	.global	DRV_CA_OTP_V200_GetSPLadderLock
	.type	DRV_CA_OTP_V200_GetSPLadderLock, %function
DRV_CA_OTP_V200_GetSPLadderLock:
	.fnstart
.LFB907:
	@ args = 0, pretend = 0, frame = 0
	@ frame_needed = 1, uses_anonymous_args = 0
	.movsp ip
	mov	ip, sp	@,
	stmfd	sp!, {r3, r4, fp, ip, lr, pc}	@,
	.pad #4
	.save {r3, r4, fp, ip, lr}
	.setfp fp, ip, #-4
	sub	fp, ip, #4	@,,
	push	{lr}
	bl	__gnu_mcount_nc
	subs	r4, r0, #0	@ pu32Lock, pu32Lock
	movweq	r3, #:lower16:-2142371835	@ ret,
	movteq	r3, #:upper16:-2142371835	@ ret,
	beq	.L201	@,
	movw	r2, #:lower16:g_pOTPExportFunctionList	@ tmp139,
	movt	r2, #:upper16:g_pOTPExportFunctionList	@ tmp139,
	mov	r0, #8	@,
	ldr	r1, [r2, #0]	@ g_pOTPExportFunctionList, g_pOTPExportFunctionList
	ldr	r3, [r1, #0]	@ <variable>.HAL_OTP_V200_Read, <variable>.HAL_OTP_V200_Read
	blx	r3	@ <variable>.HAL_OTP_V200_Read
	mov	r3, #0	@ ret,
	ubfx	r0, r0, #7, #1	@ tmp142,,,
	str	r0, [r4, #0]	@ tmp142,* pu32Lock
.L201:
	mov	r0, r3	@, ret
	ldmfd	sp, {r3, r4, fp, sp, pc}	@
	.fnend
	.size	DRV_CA_OTP_V200_GetSPLadderLock, .-DRV_CA_OTP_V200_GetSPLadderLock
	.align	2
	.global	DRV_CA_OTP_V200_GetCSA3LadderLock
	.type	DRV_CA_OTP_V200_GetCSA3LadderLock, %function
DRV_CA_OTP_V200_GetCSA3LadderLock:
	.fnstart
.LFB909:
	@ args = 0, pretend = 0, frame = 0
	@ frame_needed = 1, uses_anonymous_args = 0
	.movsp ip
	mov	ip, sp	@,
	stmfd	sp!, {r3, r4, fp, ip, lr, pc}	@,
	.pad #4
	.save {r3, r4, fp, ip, lr}
	.setfp fp, ip, #-4
	sub	fp, ip, #4	@,,
	push	{lr}
	bl	__gnu_mcount_nc
	subs	r4, r0, #0	@ pu32Lock, pu32Lock
	movweq	r3, #:lower16:-2142371835	@ ret,
	movteq	r3, #:upper16:-2142371835	@ ret,
	beq	.L205	@,
	movw	r2, #:lower16:g_pOTPExportFunctionList	@ tmp139,
	movt	r2, #:upper16:g_pOTPExportFunctionList	@ tmp139,
	mov	r0, #8	@,
	ldr	r1, [r2, #0]	@ g_pOTPExportFunctionList, g_pOTPExportFunctionList
	ldr	r3, [r1, #0]	@ <variable>.HAL_OTP_V200_Read, <variable>.HAL_OTP_V200_Read
	blx	r3	@ <variable>.HAL_OTP_V200_Read
	mov	r3, #0	@ ret,
	ubfx	r0, r0, #8, #1	@ tmp142,,,
	str	r0, [r4, #0]	@ tmp142,* pu32Lock
.L205:
	mov	r0, r3	@, ret
	ldmfd	sp, {r3, r4, fp, sp, pc}	@
	.fnend
	.size	DRV_CA_OTP_V200_GetCSA3LadderLock, .-DRV_CA_OTP_V200_GetCSA3LadderLock
	.align	2
	.global	DRV_CA_OTP_V200_GetTSCWDeactive
	.type	DRV_CA_OTP_V200_GetTSCWDeactive, %function
DRV_CA_OTP_V200_GetTSCWDeactive:
	.fnstart
.LFB911:
	@ args = 0, pretend = 0, frame = 0
	@ frame_needed = 1, uses_anonymous_args = 0
	.movsp ip
	mov	ip, sp	@,
	stmfd	sp!, {r3, r4, fp, ip, lr, pc}	@,
	.pad #4
	.save {r3, r4, fp, ip, lr}
	.setfp fp, ip, #-4
	sub	fp, ip, #4	@,,
	push	{lr}
	bl	__gnu_mcount_nc
	subs	r4, r0, #0	@ pu32Deactive, pu32Deactive
	movweq	r3, #:lower16:-2142371835	@ ret,
	movteq	r3, #:upper16:-2142371835	@ ret,
	beq	.L209	@,
	movw	r2, #:lower16:g_pOTPExportFunctionList	@ tmp139,
	movt	r2, #:upper16:g_pOTPExportFunctionList	@ tmp139,
	mov	r0, #0	@,
	ldr	r1, [r2, #0]	@ g_pOTPExportFunctionList, g_pOTPExportFunctionList
	ldr	r3, [r1, #0]	@ <variable>.HAL_OTP_V200_Read, <variable>.HAL_OTP_V200_Read
	blx	r3	@ <variable>.HAL_OTP_V200_Read
	mov	r3, #0	@ ret,
	ubfx	r0, r0, #16, #1	@ tmp142,,,
	str	r0, [r4, #0]	@ tmp142,* pu32Deactive
.L209:
	mov	r0, r3	@, ret
	ldmfd	sp, {r3, r4, fp, sp, pc}	@
	.fnend
	.size	DRV_CA_OTP_V200_GetTSCWDeactive, .-DRV_CA_OTP_V200_GetTSCWDeactive
	.align	2
	.global	DRV_CA_OTP_V200_GetTSCWDeactiveLock
	.type	DRV_CA_OTP_V200_GetTSCWDeactiveLock, %function
DRV_CA_OTP_V200_GetTSCWDeactiveLock:
	.fnstart
.LFB913:
	@ args = 0, pretend = 0, frame = 0
	@ frame_needed = 1, uses_anonymous_args = 0
	.movsp ip
	mov	ip, sp	@,
	stmfd	sp!, {r3, r4, fp, ip, lr, pc}	@,
	.pad #4
	.save {r3, r4, fp, ip, lr}
	.setfp fp, ip, #-4
	sub	fp, ip, #4	@,,
	push	{lr}
	bl	__gnu_mcount_nc
	subs	r4, r0, #0	@ pu32Lock, pu32Lock
	movweq	r3, #:lower16:-2142371835	@ ret,
	movteq	r3, #:upper16:-2142371835	@ ret,
	beq	.L213	@,
	movw	r2, #:lower16:g_pOTPExportFunctionList	@ tmp139,
	movt	r2, #:upper16:g_pOTPExportFunctionList	@ tmp139,
	mov	r0, #8	@,
	ldr	r1, [r2, #0]	@ g_pOTPExportFunctionList, g_pOTPExportFunctionList
	ldr	r3, [r1, #0]	@ <variable>.HAL_OTP_V200_Read, <variable>.HAL_OTP_V200_Read
	blx	r3	@ <variable>.HAL_OTP_V200_Read
	mov	r3, #0	@ ret,
	ubfx	r0, r0, #16, #1	@ tmp142,,,
	str	r0, [r4, #0]	@ tmp142,* pu32Lock
.L213:
	mov	r0, r3	@, ret
	ldmfd	sp, {r3, r4, fp, sp, pc}	@
	.fnend
	.size	DRV_CA_OTP_V200_GetTSCWDeactiveLock, .-DRV_CA_OTP_V200_GetTSCWDeactiveLock
	.align	2
	.global	DRV_CA_OTP_V200_GetTSSPDeactive
	.type	DRV_CA_OTP_V200_GetTSSPDeactive, %function
DRV_CA_OTP_V200_GetTSSPDeactive:
	.fnstart
.LFB915:
	@ args = 0, pretend = 0, frame = 0
	@ frame_needed = 1, uses_anonymous_args = 0
	.movsp ip
	mov	ip, sp	@,
	stmfd	sp!, {r3, r4, fp, ip, lr, pc}	@,
	.pad #4
	.save {r3, r4, fp, ip, lr}
	.setfp fp, ip, #-4
	sub	fp, ip, #4	@,,
	push	{lr}
	bl	__gnu_mcount_nc
	subs	r4, r0, #0	@ pu32Deactive, pu32Deactive
	movweq	r3, #:lower16:-2142371835	@ ret,
	movteq	r3, #:upper16:-2142371835	@ ret,
	beq	.L217	@,
	movw	r2, #:lower16:g_pOTPExportFunctionList	@ tmp139,
	movt	r2, #:upper16:g_pOTPExportFunctionList	@ tmp139,
	mov	r0, #0	@,
	ldr	r1, [r2, #0]	@ g_pOTPExportFunctionList, g_pOTPExportFunctionList
	ldr	r3, [r1, #0]	@ <variable>.HAL_OTP_V200_Read, <variable>.HAL_OTP_V200_Read
	blx	r3	@ <variable>.HAL_OTP_V200_Read
	mov	r3, #0	@ ret,
	ubfx	r0, r0, #17, #1	@ tmp142,,,
	str	r0, [r4, #0]	@ tmp142,* pu32Deactive
.L217:
	mov	r0, r3	@, ret
	ldmfd	sp, {r3, r4, fp, sp, pc}	@
	.fnend
	.size	DRV_CA_OTP_V200_GetTSSPDeactive, .-DRV_CA_OTP_V200_GetTSSPDeactive
	.align	2
	.global	DRV_CA_OTP_V200_GetTSSPDeactiveLock
	.type	DRV_CA_OTP_V200_GetTSSPDeactiveLock, %function
DRV_CA_OTP_V200_GetTSSPDeactiveLock:
	.fnstart
.LFB917:
	@ args = 0, pretend = 0, frame = 0
	@ frame_needed = 1, uses_anonymous_args = 0
	.movsp ip
	mov	ip, sp	@,
	stmfd	sp!, {r3, r4, fp, ip, lr, pc}	@,
	.pad #4
	.save {r3, r4, fp, ip, lr}
	.setfp fp, ip, #-4
	sub	fp, ip, #4	@,,
	push	{lr}
	bl	__gnu_mcount_nc
	subs	r4, r0, #0	@ pu32Lock, pu32Lock
	movweq	r3, #:lower16:-2142371835	@ ret,
	movteq	r3, #:upper16:-2142371835	@ ret,
	beq	.L221	@,
	movw	r2, #:lower16:g_pOTPExportFunctionList	@ tmp139,
	movt	r2, #:upper16:g_pOTPExportFunctionList	@ tmp139,
	mov	r0, #8	@,
	ldr	r1, [r2, #0]	@ g_pOTPExportFunctionList, g_pOTPExportFunctionList
	ldr	r3, [r1, #0]	@ <variable>.HAL_OTP_V200_Read, <variable>.HAL_OTP_V200_Read
	blx	r3	@ <variable>.HAL_OTP_V200_Read
	mov	r3, #0	@ ret,
	ubfx	r0, r0, #17, #1	@ tmp142,,,
	str	r0, [r4, #0]	@ tmp142,* pu32Lock
.L221:
	mov	r0, r3	@, ret
	ldmfd	sp, {r3, r4, fp, sp, pc}	@
	.fnend
	.size	DRV_CA_OTP_V200_GetTSSPDeactiveLock, .-DRV_CA_OTP_V200_GetTSSPDeactiveLock
	.align	2
	.global	DRV_CA_OTP_V200_GetTSCSA3Deactive
	.type	DRV_CA_OTP_V200_GetTSCSA3Deactive, %function
DRV_CA_OTP_V200_GetTSCSA3Deactive:
	.fnstart
.LFB919:
	@ args = 0, pretend = 0, frame = 0
	@ frame_needed = 1, uses_anonymous_args = 0
	.movsp ip
	mov	ip, sp	@,
	stmfd	sp!, {r3, r4, fp, ip, lr, pc}	@,
	.pad #4
	.save {r3, r4, fp, ip, lr}
	.setfp fp, ip, #-4
	sub	fp, ip, #4	@,,
	push	{lr}
	bl	__gnu_mcount_nc
	subs	r4, r0, #0	@ pu32Deactive, pu32Deactive
	movweq	r3, #:lower16:-2142371835	@ ret,
	movteq	r3, #:upper16:-2142371835	@ ret,
	beq	.L225	@,
	movw	r2, #:lower16:g_pOTPExportFunctionList	@ tmp139,
	movt	r2, #:upper16:g_pOTPExportFunctionList	@ tmp139,
	mov	r0, #0	@,
	ldr	r1, [r2, #0]	@ g_pOTPExportFunctionList, g_pOTPExportFunctionList
	ldr	r3, [r1, #0]	@ <variable>.HAL_OTP_V200_Read, <variable>.HAL_OTP_V200_Read
	blx	r3	@ <variable>.HAL_OTP_V200_Read
	mov	r3, #0	@ ret,
	ubfx	r0, r0, #20, #1	@ tmp142,,,
	str	r0, [r4, #0]	@ tmp142,* pu32Deactive
.L225:
	mov	r0, r3	@, ret
	ldmfd	sp, {r3, r4, fp, sp, pc}	@
	.fnend
	.size	DRV_CA_OTP_V200_GetTSCSA3Deactive, .-DRV_CA_OTP_V200_GetTSCSA3Deactive
	.align	2
	.global	DRV_CA_OTP_V200_GetTSCSA3DeactiveLock
	.type	DRV_CA_OTP_V200_GetTSCSA3DeactiveLock, %function
DRV_CA_OTP_V200_GetTSCSA3DeactiveLock:
	.fnstart
.LFB921:
	@ args = 0, pretend = 0, frame = 0
	@ frame_needed = 1, uses_anonymous_args = 0
	.movsp ip
	mov	ip, sp	@,
	stmfd	sp!, {r3, r4, fp, ip, lr, pc}	@,
	.pad #4
	.save {r3, r4, fp, ip, lr}
	.setfp fp, ip, #-4
	sub	fp, ip, #4	@,,
	push	{lr}
	bl	__gnu_mcount_nc
	subs	r4, r0, #0	@ pu32Lock, pu32Lock
	movweq	r3, #:lower16:-2142371835	@ ret,
	movteq	r3, #:upper16:-2142371835	@ ret,
	beq	.L229	@,
	movw	r2, #:lower16:g_pOTPExportFunctionList	@ tmp139,
	movt	r2, #:upper16:g_pOTPExportFunctionList	@ tmp139,
	mov	r0, #8	@,
	ldr	r1, [r2, #0]	@ g_pOTPExportFunctionList, g_pOTPExportFunctionList
	ldr	r3, [r1, #0]	@ <variable>.HAL_OTP_V200_Read, <variable>.HAL_OTP_V200_Read
	blx	r3	@ <variable>.HAL_OTP_V200_Read
	mov	r3, #0	@ ret,
	ubfx	r0, r0, #20, #1	@ tmp142,,,
	str	r0, [r4, #0]	@ tmp142,* pu32Lock
.L229:
	mov	r0, r3	@, ret
	ldmfd	sp, {r3, r4, fp, sp, pc}	@
	.fnend
	.size	DRV_CA_OTP_V200_GetTSCSA3DeactiveLock, .-DRV_CA_OTP_V200_GetTSCSA3DeactiveLock
	.align	2
	.global	DRV_CA_OTP_V200_GetTsOutDisable
	.type	DRV_CA_OTP_V200_GetTsOutDisable, %function
DRV_CA_OTP_V200_GetTsOutDisable:
	.fnstart
.LFB931:
	@ args = 0, pretend = 0, frame = 8
	@ frame_needed = 1, uses_anonymous_args = 0
	.movsp ip
	mov	ip, sp	@,
	stmfd	sp!, {r4, fp, ip, lr, pc}	@,
	.pad #4
	.save {r4, fp, ip, lr}
	.setfp fp, ip, #-4
	sub	fp, ip, #4	@,,
	.pad #12
	sub	sp, sp, #12	@,,
	push	{lr}
	bl	__gnu_mcount_nc
	subs	r4, r0, #0	@ pu32Disable, pu32Disable
	movweq	r3, #:lower16:-2142371835	@ ret,
	movteq	r3, #:upper16:-2142371835	@ ret,
	beq	.L233	@,
	movw	r2, #:lower16:g_pOTPExportFunctionList	@ tmp138,
	movt	r2, #:upper16:g_pOTPExportFunctionList	@ tmp138,
	mov	r0, #4	@,
	ldr	r1, [r2, #0]	@ g_pOTPExportFunctionList, g_pOTPExportFunctionList
	ldr	r3, [r1, #0]	@ <variable>.HAL_OTP_V200_Read, <variable>.HAL_OTP_V200_Read
	blx	r3	@ <variable>.HAL_OTP_V200_Read
	mov	r3, #0	@ ret,
	ubfx	r0, r0, #15, #1	@ tmp143,,,
	str	r0, [r4, #0]	@ tmp143,* pu32Disable
.L233:
	mov	r0, r3	@, ret
	sub	sp, fp, #16
	ldmfd	sp, {r4, fp, sp, pc}
	.fnend
	.size	DRV_CA_OTP_V200_GetTsOutDisable, .-DRV_CA_OTP_V200_GetTsOutDisable
	.align	2
	.global	DRV_CA_OTP_V200_GetTsOutDisableLock
	.type	DRV_CA_OTP_V200_GetTsOutDisableLock, %function
DRV_CA_OTP_V200_GetTsOutDisableLock:
	.fnstart
.LFB933:
	@ args = 0, pretend = 0, frame = 8
	@ frame_needed = 1, uses_anonymous_args = 0
	.movsp ip
	mov	ip, sp	@,
	stmfd	sp!, {r4, fp, ip, lr, pc}	@,
	.pad #4
	.save {r4, fp, ip, lr}
	.setfp fp, ip, #-4
	sub	fp, ip, #4	@,,
	.pad #12
	sub	sp, sp, #12	@,,
	push	{lr}
	bl	__gnu_mcount_nc
	subs	r4, r0, #0	@ pu32Lock, pu32Lock
	movweq	r3, #:lower16:-2142371835	@ ret,
	movteq	r3, #:upper16:-2142371835	@ ret,
	beq	.L237	@,
	movw	r2, #:lower16:g_pOTPExportFunctionList	@ tmp138,
	movt	r2, #:upper16:g_pOTPExportFunctionList	@ tmp138,
	mov	r0, #12	@,
	ldr	r1, [r2, #0]	@ g_pOTPExportFunctionList, g_pOTPExportFunctionList
	ldr	r3, [r1, #0]	@ <variable>.HAL_OTP_V200_Read, <variable>.HAL_OTP_V200_Read
	blx	r3	@ <variable>.HAL_OTP_V200_Read
	mov	r3, #0	@ ret,
	ubfx	r0, r0, #15, #1	@ tmp143,,,
	str	r0, [r4, #0]	@ tmp143,* pu32Lock
.L237:
	mov	r0, r3	@, ret
	sub	sp, fp, #16
	ldmfd	sp, {r4, fp, sp, pc}
	.fnend
	.size	DRV_CA_OTP_V200_GetTsOutDisableLock, .-DRV_CA_OTP_V200_GetTsOutDisableLock
	.align	2
	.global	DRV_CA_OTP_V200_GetLpcEnLock
	.type	DRV_CA_OTP_V200_GetLpcEnLock, %function
DRV_CA_OTP_V200_GetLpcEnLock:
	.fnstart
.LFB935:
	@ args = 0, pretend = 0, frame = 8
	@ frame_needed = 1, uses_anonymous_args = 0
	.movsp ip
	mov	ip, sp	@,
	stmfd	sp!, {r4, fp, ip, lr, pc}	@,
	.pad #4
	.save {r4, fp, ip, lr}
	.setfp fp, ip, #-4
	sub	fp, ip, #4	@,,
	.pad #12
	sub	sp, sp, #12	@,,
	push	{lr}
	bl	__gnu_mcount_nc
	subs	r4, r0, #0	@ pu32Lock, pu32Lock
	movweq	r3, #:lower16:-2142371835	@ ret,
	movteq	r3, #:upper16:-2142371835	@ ret,
	beq	.L241	@,
	movw	r2, #:lower16:g_pOTPExportFunctionList	@ tmp138,
	movt	r2, #:upper16:g_pOTPExportFunctionList	@ tmp138,
	mov	r0, #12	@,
	ldr	r1, [r2, #0]	@ g_pOTPExportFunctionList, g_pOTPExportFunctionList
	ldr	r3, [r1, #0]	@ <variable>.HAL_OTP_V200_Read, <variable>.HAL_OTP_V200_Read
	blx	r3	@ <variable>.HAL_OTP_V200_Read
	mov	r3, #0	@ ret,
	ubfx	r0, r0, #16, #1	@ tmp143,,,
	str	r0, [r4, #0]	@ tmp143,* pu32Lock
.L241:
	mov	r0, r3	@, ret
	sub	sp, fp, #16
	ldmfd	sp, {r4, fp, sp, pc}
	.fnend
	.size	DRV_CA_OTP_V200_GetLpcEnLock, .-DRV_CA_OTP_V200_GetLpcEnLock
	.align	2
	.global	DRV_CA_OTP_V200_GetLpcMasterEnLock
	.type	DRV_CA_OTP_V200_GetLpcMasterEnLock, %function
DRV_CA_OTP_V200_GetLpcMasterEnLock:
	.fnstart
.LFB937:
	@ args = 0, pretend = 0, frame = 8
	@ frame_needed = 1, uses_anonymous_args = 0
	.movsp ip
	mov	ip, sp	@,
	stmfd	sp!, {r4, fp, ip, lr, pc}	@,
	.pad #4
	.save {r4, fp, ip, lr}
	.setfp fp, ip, #-4
	sub	fp, ip, #4	@,,
	.pad #12
	sub	sp, sp, #12	@,,
	push	{lr}
	bl	__gnu_mcount_nc
	subs	r4, r0, #0	@ pu32Lock, pu32Lock
	movweq	r3, #:lower16:-2142371835	@ ret,
	movteq	r3, #:upper16:-2142371835	@ ret,
	beq	.L245	@,
	movw	r2, #:lower16:g_pOTPExportFunctionList	@ tmp138,
	movt	r2, #:upper16:g_pOTPExportFunctionList	@ tmp138,
	mov	r0, #12	@,
	ldr	r1, [r2, #0]	@ g_pOTPExportFunctionList, g_pOTPExportFunctionList
	ldr	r3, [r1, #0]	@ <variable>.HAL_OTP_V200_Read, <variable>.HAL_OTP_V200_Read
	blx	r3	@ <variable>.HAL_OTP_V200_Read
	mov	r3, #0	@ ret,
	ubfx	r0, r0, #17, #1	@ tmp143,,,
	str	r0, [r4, #0]	@ tmp143,* pu32Lock
.L245:
	mov	r0, r3	@, ret
	sub	sp, fp, #16
	ldmfd	sp, {r4, fp, sp, pc}
	.fnend
	.size	DRV_CA_OTP_V200_GetLpcMasterEnLock, .-DRV_CA_OTP_V200_GetLpcMasterEnLock
	.align	2
	.global	DRV_CA_OTP_V200_GetSecureChipFlagLock
	.type	DRV_CA_OTP_V200_GetSecureChipFlagLock, %function
DRV_CA_OTP_V200_GetSecureChipFlagLock:
	.fnstart
.LFB939:
	@ args = 0, pretend = 0, frame = 8
	@ frame_needed = 1, uses_anonymous_args = 0
	.movsp ip
	mov	ip, sp	@,
	stmfd	sp!, {r4, fp, ip, lr, pc}	@,
	.pad #4
	.save {r4, fp, ip, lr}
	.setfp fp, ip, #-4
	sub	fp, ip, #4	@,,
	.pad #12
	sub	sp, sp, #12	@,,
	push	{lr}
	bl	__gnu_mcount_nc
	subs	r4, r0, #0	@ pu32Lock, pu32Lock
	movweq	r3, #:lower16:-2142371835	@ ret,
	movteq	r3, #:upper16:-2142371835	@ ret,
	beq	.L249	@,
	movw	r2, #:lower16:g_pOTPExportFunctionList	@ tmp138,
	movt	r2, #:upper16:g_pOTPExportFunctionList	@ tmp138,
	mov	r0, #12	@,
	ldr	r1, [r2, #0]	@ g_pOTPExportFunctionList, g_pOTPExportFunctionList
	ldr	r3, [r1, #0]	@ <variable>.HAL_OTP_V200_Read, <variable>.HAL_OTP_V200_Read
	blx	r3	@ <variable>.HAL_OTP_V200_Read
	mov	r3, #0	@ ret,
	and	r0, r0, #1	@ tmp143,,
	str	r0, [r4, #0]	@ tmp143,* pu32Lock
.L249:
	mov	r0, r3	@, ret
	sub	sp, fp, #16
	ldmfd	sp, {r4, fp, sp, pc}
	.fnend
	.size	DRV_CA_OTP_V200_GetSecureChipFlagLock, .-DRV_CA_OTP_V200_GetSecureChipFlagLock
	.align	2
	.global	DRV_CA_OTP_V200_GetBootSelCtrl
	.type	DRV_CA_OTP_V200_GetBootSelCtrl, %function
DRV_CA_OTP_V200_GetBootSelCtrl:
	.fnstart
.LFB941:
	@ args = 0, pretend = 0, frame = 8
	@ frame_needed = 1, uses_anonymous_args = 0
	.movsp ip
	mov	ip, sp	@,
	stmfd	sp!, {r4, fp, ip, lr, pc}	@,
	.pad #4
	.save {r4, fp, ip, lr}
	.setfp fp, ip, #-4
	sub	fp, ip, #4	@,,
	.pad #12
	sub	sp, sp, #12	@,,
	push	{lr}
	bl	__gnu_mcount_nc
	subs	r4, r0, #0	@ pu32BootSel, pu32BootSel
	movweq	r3, #:lower16:-2142371835	@ ret,
	movteq	r3, #:upper16:-2142371835	@ ret,
	beq	.L253	@,
	movw	r2, #:lower16:g_pOTPExportFunctionList	@ tmp138,
	movt	r2, #:upper16:g_pOTPExportFunctionList	@ tmp138,
	mov	r0, #4	@,
	ldr	r1, [r2, #0]	@ g_pOTPExportFunctionList, g_pOTPExportFunctionList
	ldr	r3, [r1, #0]	@ <variable>.HAL_OTP_V200_Read, <variable>.HAL_OTP_V200_Read
	blx	r3	@ <variable>.HAL_OTP_V200_Read
	mov	r3, #0	@ ret,
	ubfx	r0, r0, #18, #1	@ tmp143,,,
	str	r0, [r4, #0]	@ tmp143,* pu32BootSel
.L253:
	mov	r0, r3	@, ret
	sub	sp, fp, #16
	ldmfd	sp, {r4, fp, sp, pc}
	.fnend
	.size	DRV_CA_OTP_V200_GetBootSelCtrl, .-DRV_CA_OTP_V200_GetBootSelCtrl
	.align	2
	.global	DRV_CA_OTP_V200_GetBootSelCtrlLock
	.type	DRV_CA_OTP_V200_GetBootSelCtrlLock, %function
DRV_CA_OTP_V200_GetBootSelCtrlLock:
	.fnstart
.LFB943:
	@ args = 0, pretend = 0, frame = 8
	@ frame_needed = 1, uses_anonymous_args = 0
	.movsp ip
	mov	ip, sp	@,
	stmfd	sp!, {r4, fp, ip, lr, pc}	@,
	.pad #4
	.save {r4, fp, ip, lr}
	.setfp fp, ip, #-4
	sub	fp, ip, #4	@,,
	.pad #12
	sub	sp, sp, #12	@,,
	push	{lr}
	bl	__gnu_mcount_nc
	subs	r4, r0, #0	@ pu32Lock, pu32Lock
	movweq	r3, #:lower16:-2142371835	@ ret,
	movteq	r3, #:upper16:-2142371835	@ ret,
	beq	.L257	@,
	movw	r2, #:lower16:g_pOTPExportFunctionList	@ tmp138,
	movt	r2, #:upper16:g_pOTPExportFunctionList	@ tmp138,
	mov	r0, #12	@,
	ldr	r1, [r2, #0]	@ g_pOTPExportFunctionList, g_pOTPExportFunctionList
	ldr	r3, [r1, #0]	@ <variable>.HAL_OTP_V200_Read, <variable>.HAL_OTP_V200_Read
	blx	r3	@ <variable>.HAL_OTP_V200_Read
	mov	r3, #0	@ ret,
	ubfx	r0, r0, #18, #1	@ tmp143,,,
	str	r0, [r4, #0]	@ tmp143,* pu32Lock
.L257:
	mov	r0, r3	@, ret
	sub	sp, fp, #16
	ldmfd	sp, {r4, fp, sp, pc}
	.fnend
	.size	DRV_CA_OTP_V200_GetBootSelCtrlLock, .-DRV_CA_OTP_V200_GetBootSelCtrlLock
	.align	2
	.global	DRV_CA_OTP_V200_GetCSA3Deactive
	.type	DRV_CA_OTP_V200_GetCSA3Deactive, %function
DRV_CA_OTP_V200_GetCSA3Deactive:
	.fnstart
.LFB945:
	@ args = 0, pretend = 0, frame = 0
	@ frame_needed = 1, uses_anonymous_args = 0
	.movsp ip
	mov	ip, sp	@,
	stmfd	sp!, {r3, r4, fp, ip, lr, pc}	@,
	.pad #4
	.save {r3, r4, fp, ip, lr}
	.setfp fp, ip, #-4
	sub	fp, ip, #4	@,,
	push	{lr}
	bl	__gnu_mcount_nc
	subs	r4, r0, #0	@ pu32Deactive, pu32Deactive
	movweq	r3, #:lower16:-2142371835	@ ret,
	movteq	r3, #:upper16:-2142371835	@ ret,
	beq	.L261	@,
	movw	r2, #:lower16:g_pOTPExportFunctionList	@ tmp139,
	movt	r2, #:upper16:g_pOTPExportFunctionList	@ tmp139,
	mov	r0, #24	@,
	ldr	r1, [r2, #0]	@ g_pOTPExportFunctionList, g_pOTPExportFunctionList
	ldr	r3, [r1, #0]	@ <variable>.HAL_OTP_V200_Read, <variable>.HAL_OTP_V200_Read
	blx	r3	@ <variable>.HAL_OTP_V200_Read
	mov	r3, #0	@ ret,
	ubfx	r0, r0, #4, #1	@ tmp142,,,
	str	r0, [r4, #0]	@ tmp142,* pu32Deactive
.L261:
	mov	r0, r3	@, ret
	ldmfd	sp, {r3, r4, fp, sp, pc}	@
	.fnend
	.size	DRV_CA_OTP_V200_GetCSA3Deactive, .-DRV_CA_OTP_V200_GetCSA3Deactive
	.align	2
	.global	DRV_CA_OTP_V200_GetJtagReadDisable
	.type	DRV_CA_OTP_V200_GetJtagReadDisable, %function
DRV_CA_OTP_V200_GetJtagReadDisable:
	.fnstart
.LFB947:
	@ args = 0, pretend = 0, frame = 0
	@ frame_needed = 1, uses_anonymous_args = 0
	.movsp ip
	mov	ip, sp	@,
	stmfd	sp!, {r3, r4, fp, ip, lr, pc}	@,
	.pad #4
	.save {r3, r4, fp, ip, lr}
	.setfp fp, ip, #-4
	sub	fp, ip, #4	@,,
	push	{lr}
	bl	__gnu_mcount_nc
	subs	r4, r0, #0	@ pu32Disable, pu32Disable
	movweq	r3, #:lower16:-2142371835	@ ret,
	movteq	r3, #:upper16:-2142371835	@ ret,
	beq	.L265	@,
	movw	r2, #:lower16:g_pOTPExportFunctionList	@ tmp139,
	movt	r2, #:upper16:g_pOTPExportFunctionList	@ tmp139,
	mov	r0, #24	@,
	ldr	r1, [r2, #0]	@ g_pOTPExportFunctionList, g_pOTPExportFunctionList
	ldr	r3, [r1, #0]	@ <variable>.HAL_OTP_V200_Read, <variable>.HAL_OTP_V200_Read
	blx	r3	@ <variable>.HAL_OTP_V200_Read
	mov	r3, #0	@ ret,
	ubfx	r0, r0, #7, #1	@ tmp142,,,
	str	r0, [r4, #0]	@ tmp142,* pu32Disable
.L265:
	mov	r0, r3	@, ret
	ldmfd	sp, {r3, r4, fp, sp, pc}	@
	.fnend
	.size	DRV_CA_OTP_V200_GetJtagReadDisable, .-DRV_CA_OTP_V200_GetJtagReadDisable
	.align	2
	.global	DRV_CA_OTP_V200_GetDebugDisable
	.type	DRV_CA_OTP_V200_GetDebugDisable, %function
DRV_CA_OTP_V200_GetDebugDisable:
	.fnstart
.LFB949:
	@ args = 0, pretend = 0, frame = 0
	@ frame_needed = 1, uses_anonymous_args = 0
	.movsp ip
	mov	ip, sp	@,
	stmfd	sp!, {r3, r4, fp, ip, lr, pc}	@,
	.pad #4
	.save {r3, r4, fp, ip, lr}
	.setfp fp, ip, #-4
	sub	fp, ip, #4	@,,
	push	{lr}
	bl	__gnu_mcount_nc
	subs	r4, r0, #0	@ pu32Disable, pu32Disable
	movweq	r3, #:lower16:-2142371835	@ ret,
	movteq	r3, #:upper16:-2142371835	@ ret,
	beq	.L269	@,
	movw	r2, #:lower16:g_pOTPExportFunctionList	@ tmp139,
	movt	r2, #:upper16:g_pOTPExportFunctionList	@ tmp139,
	mov	r0, #24	@,
	ldr	r1, [r2, #0]	@ g_pOTPExportFunctionList, g_pOTPExportFunctionList
	ldr	r3, [r1, #0]	@ <variable>.HAL_OTP_V200_Read, <variable>.HAL_OTP_V200_Read
	blx	r3	@ <variable>.HAL_OTP_V200_Read
	mov	r3, #0	@ ret,
	ubfx	r0, r0, #9, #1	@ tmp142,,,
	str	r0, [r4, #0]	@ tmp142,* pu32Disable
.L269:
	mov	r0, r3	@, ret
	ldmfd	sp, {r3, r4, fp, sp, pc}	@
	.fnend
	.size	DRV_CA_OTP_V200_GetDebugDisable, .-DRV_CA_OTP_V200_GetDebugDisable
	.align	2
	.global	DRV_CA_OTP_V200_GetRigthCtrlEn
	.type	DRV_CA_OTP_V200_GetRigthCtrlEn, %function
DRV_CA_OTP_V200_GetRigthCtrlEn:
	.fnstart
.LFB951:
	@ args = 0, pretend = 0, frame = 0
	@ frame_needed = 1, uses_anonymous_args = 0
	.movsp ip
	mov	ip, sp	@,
	stmfd	sp!, {r3, r4, fp, ip, lr, pc}	@,
	.pad #4
	.save {r3, r4, fp, ip, lr}
	.setfp fp, ip, #-4
	sub	fp, ip, #4	@,,
	push	{lr}
	bl	__gnu_mcount_nc
	subs	r4, r0, #0	@ pu32Enable, pu32Enable
	movweq	r3, #:lower16:-2142371835	@ ret,
	movteq	r3, #:upper16:-2142371835	@ ret,
	beq	.L273	@,
	movw	r2, #:lower16:g_pOTPExportFunctionList	@ tmp139,
	movt	r2, #:upper16:g_pOTPExportFunctionList	@ tmp139,
	mov	r0, #24	@,
	ldr	r1, [r2, #0]	@ g_pOTPExportFunctionList, g_pOTPExportFunctionList
	ldr	r3, [r1, #0]	@ <variable>.HAL_OTP_V200_Read, <variable>.HAL_OTP_V200_Read
	blx	r3	@ <variable>.HAL_OTP_V200_Read
	mov	r3, #0	@ ret,
	ubfx	r0, r0, #11, #1	@ tmp142,,,
	str	r0, [r4, #0]	@ tmp142,* pu32Enable
.L273:
	mov	r0, r3	@, ret
	ldmfd	sp, {r3, r4, fp, sp, pc}	@
	.fnend
	.size	DRV_CA_OTP_V200_GetRigthCtrlEn, .-DRV_CA_OTP_V200_GetRigthCtrlEn
	.align	2
	.global	DRV_CA_OTP_V200_GetMiscKlLevel
	.type	DRV_CA_OTP_V200_GetMiscKlLevel, %function
DRV_CA_OTP_V200_GetMiscKlLevel:
	.fnstart
.LFB971:
	@ args = 0, pretend = 0, frame = 8
	@ frame_needed = 1, uses_anonymous_args = 0
	.movsp ip
	mov	ip, sp	@,
	stmfd	sp!, {r4, fp, ip, lr, pc}	@,
	.pad #4
	.save {r4, fp, ip, lr}
	.setfp fp, ip, #-4
	sub	fp, ip, #4	@,,
	.pad #12
	sub	sp, sp, #12	@,,
	push	{lr}
	bl	__gnu_mcount_nc
	subs	r4, r0, #0	@ penValue, penValue
	movweq	r0, #:lower16:-2142371835	@ D.24345,
	movteq	r0, #:upper16:-2142371835	@ D.24345,
	beq	.L277	@,
	movw	ip, #:lower16:g_pOTPExportFunctionList	@ tmp138,
	movt	ip, #:upper16:g_pOTPExportFunctionList	@ tmp138,
	mov	r0, #4	@,
	ldr	r2, [ip, #0]	@ g_pOTPExportFunctionList, g_pOTPExportFunctionList
	ldr	r3, [r2, #0]	@ <variable>.HAL_OTP_V200_Read, <variable>.HAL_OTP_V200_Read
	blx	r3	@ <variable>.HAL_OTP_V200_Read
	mov	r1, r0, lsr #24	@ tmp141,,
	and	r0, r1, #2	@ tmp143, tmp141,
	uxtb	r0, r0	@ tmp144, tmp143
	cmp	r0, #0	@ tmp144,
	movne	r0, #0	@ D.24345,
	moveq	r3, #1	@ tmp145,
	movne	r3, #2	@ tmp146,
	str	r3, [r4, #0]	@ tmp146,* penValue
.L277:
	sub	sp, fp, #16
	ldmfd	sp, {r4, fp, sp, pc}
	.fnend
	.size	DRV_CA_OTP_V200_GetMiscKlLevel, .-DRV_CA_OTP_V200_GetMiscKlLevel
	.align	2
	.global	DRV_CA_OTP_V200_GetVersionIdCheckLock
	.type	DRV_CA_OTP_V200_GetVersionIdCheckLock, %function
DRV_CA_OTP_V200_GetVersionIdCheckLock:
	.fnstart
.LFB984:
	@ args = 0, pretend = 0, frame = 0
	@ frame_needed = 1, uses_anonymous_args = 0
	.movsp ip
	mov	ip, sp	@,
	stmfd	sp!, {r3, r4, fp, ip, lr, pc}	@,
	.pad #4
	.save {r3, r4, fp, ip, lr}
	.setfp fp, ip, #-4
	sub	fp, ip, #4	@,,
	push	{lr}
	bl	__gnu_mcount_nc
	subs	r4, r0, #0	@ pu32VersionIdCheckP, pu32VersionIdCheckP
	movweq	r3, #:lower16:-2142371835	@ ret,
	movteq	r3, #:upper16:-2142371835	@ ret,
	beq	.L282	@,
	movw	r2, #:lower16:g_pOTPExportFunctionList	@ tmp139,
	movt	r2, #:upper16:g_pOTPExportFunctionList	@ tmp139,
	mov	r0, #16	@,
	ldr	r1, [r2, #0]	@ g_pOTPExportFunctionList, g_pOTPExportFunctionList
	ldr	r3, [r1, #0]	@ <variable>.HAL_OTP_V200_Read, <variable>.HAL_OTP_V200_Read
	blx	r3	@ <variable>.HAL_OTP_V200_Read
	mov	r3, #0	@ ret,
	ubfx	r0, r0, #9, #1	@ tmp142,,,
	str	r0, [r4, #0]	@ tmp142,* pu32VersionIdCheckP
.L282:
	mov	r0, r3	@, ret
	ldmfd	sp, {r3, r4, fp, sp, pc}	@
	.fnend
	.size	DRV_CA_OTP_V200_GetVersionIdCheckLock, .-DRV_CA_OTP_V200_GetVersionIdCheckLock
	.align	2
	.global	DRV_CA_OTP_V200_GetBloadDecEn
	.type	DRV_CA_OTP_V200_GetBloadDecEn, %function
DRV_CA_OTP_V200_GetBloadDecEn:
	.fnstart
.LFB985:
	@ args = 0, pretend = 0, frame = 0
	@ frame_needed = 1, uses_anonymous_args = 0
	.movsp ip
	mov	ip, sp	@,
	stmfd	sp!, {r3, r4, fp, ip, lr, pc}	@,
	.pad #4
	.save {r3, r4, fp, ip, lr}
	.setfp fp, ip, #-4
	sub	fp, ip, #4	@,,
	push	{lr}
	bl	__gnu_mcount_nc
	subs	r4, r0, #0	@ pu32Enable, pu32Enable
	movweq	r3, #:lower16:-2142371835	@ ret,
	movteq	r3, #:upper16:-2142371835	@ ret,
	beq	.L286	@,
	movw	r2, #:lower16:g_pOTPExportFunctionList	@ tmp139,
	movt	r2, #:upper16:g_pOTPExportFunctionList	@ tmp139,
	mov	r0, #0	@,
	ldr	r1, [r2, #0]	@ g_pOTPExportFunctionList, g_pOTPExportFunctionList
	ldr	r3, [r1, #0]	@ <variable>.HAL_OTP_V200_Read, <variable>.HAL_OTP_V200_Read
	blx	r3	@ <variable>.HAL_OTP_V200_Read
	mov	r3, #0	@ ret,
	ubfx	r0, r0, #2, #1	@ tmp142,,,
	str	r0, [r4, #0]	@ tmp142,* pu32Enable
.L286:
	mov	r0, r3	@, ret
	ldmfd	sp, {r3, r4, fp, sp, pc}	@
	.fnend
	.size	DRV_CA_OTP_V200_GetBloadDecEn, .-DRV_CA_OTP_V200_GetBloadDecEn
	.align	2
	.global	DRV_CA_OTP_V200_GetBloadDecEnLock
	.type	DRV_CA_OTP_V200_GetBloadDecEnLock, %function
DRV_CA_OTP_V200_GetBloadDecEnLock:
	.fnstart
.LFB986:
	@ args = 0, pretend = 0, frame = 0
	@ frame_needed = 1, uses_anonymous_args = 0
	.movsp ip
	mov	ip, sp	@,
	stmfd	sp!, {r3, r4, fp, ip, lr, pc}	@,
	.pad #4
	.save {r3, r4, fp, ip, lr}
	.setfp fp, ip, #-4
	sub	fp, ip, #4	@,,
	push	{lr}
	bl	__gnu_mcount_nc
	subs	r4, r0, #0	@ pu32BloadDecEncLock, pu32BloadDecEncLock
	movweq	r3, #:lower16:-2142371835	@ ret,
	movteq	r3, #:upper16:-2142371835	@ ret,
	beq	.L290	@,
	movw	r2, #:lower16:g_pOTPExportFunctionList	@ tmp139,
	movt	r2, #:upper16:g_pOTPExportFunctionList	@ tmp139,
	mov	r0, #8	@,
	ldr	r1, [r2, #0]	@ g_pOTPExportFunctionList, g_pOTPExportFunctionList
	ldr	r3, [r1, #0]	@ <variable>.HAL_OTP_V200_Read, <variable>.HAL_OTP_V200_Read
	blx	r3	@ <variable>.HAL_OTP_V200_Read
	mov	r3, #0	@ ret,
	ubfx	r0, r0, #2, #1	@ tmp142,,,
	str	r0, [r4, #0]	@ tmp142,* pu32BloadDecEncLock
.L290:
	mov	r0, r3	@, ret
	ldmfd	sp, {r3, r4, fp, sp, pc}	@
	.fnend
	.size	DRV_CA_OTP_V200_GetBloadDecEnLock, .-DRV_CA_OTP_V200_GetBloadDecEnLock
	.align	2
	.global	DRV_CA_OTP_V200_GetLinkProtectDisableLock
	.type	DRV_CA_OTP_V200_GetLinkProtectDisableLock, %function
DRV_CA_OTP_V200_GetLinkProtectDisableLock:
	.fnstart
.LFB987:
	@ args = 0, pretend = 0, frame = 0
	@ frame_needed = 1, uses_anonymous_args = 0
	.movsp ip
	mov	ip, sp	@,
	stmfd	sp!, {r3, r4, fp, ip, lr, pc}	@,
	.pad #4
	.save {r3, r4, fp, ip, lr}
	.setfp fp, ip, #-4
	sub	fp, ip, #4	@,,
	push	{lr}
	bl	__gnu_mcount_nc
	subs	r4, r0, #0	@ pu32Disable, pu32Disable
	movweq	r3, #:lower16:-2142371835	@ ret,
	movteq	r3, #:upper16:-2142371835	@ ret,
	beq	.L294	@,
	movw	r2, #:lower16:g_pOTPExportFunctionList	@ tmp139,
	movt	r2, #:upper16:g_pOTPExportFunctionList	@ tmp139,
	mov	r0, #8	@,
	ldr	r1, [r2, #0]	@ g_pOTPExportFunctionList, g_pOTPExportFunctionList
	ldr	r3, [r1, #0]	@ <variable>.HAL_OTP_V200_Read, <variable>.HAL_OTP_V200_Read
	blx	r3	@ <variable>.HAL_OTP_V200_Read
	mov	r3, #0	@ ret,
	ubfx	r0, r0, #9, #1	@ tmp142,,,
	str	r0, [r4, #0]	@ tmp142,* pu32Disable
.L294:
	mov	r0, r3	@, ret
	ldmfd	sp, {r3, r4, fp, sp, pc}	@
	.fnend
	.size	DRV_CA_OTP_V200_GetLinkProtectDisableLock, .-DRV_CA_OTP_V200_GetLinkProtectDisableLock
	.align	2
	.global	DRV_CA_OTP_V200_GetTSCSA3HardonlyEn
	.type	DRV_CA_OTP_V200_GetTSCSA3HardonlyEn, %function
DRV_CA_OTP_V200_GetTSCSA3HardonlyEn:
	.fnstart
.LFB988:
	@ args = 0, pretend = 0, frame = 0
	@ frame_needed = 1, uses_anonymous_args = 0
	.movsp ip
	mov	ip, sp	@,
	stmfd	sp!, {r3, r4, fp, ip, lr, pc}	@,
	.pad #4
	.save {r3, r4, fp, ip, lr}
	.setfp fp, ip, #-4
	sub	fp, ip, #4	@,,
	push	{lr}
	bl	__gnu_mcount_nc
	subs	r4, r0, #0	@ pu32Enable, pu32Enable
	movweq	r3, #:lower16:-2142371835	@ ret,
	movteq	r3, #:upper16:-2142371835	@ ret,
	beq	.L298	@,
	movw	r2, #:lower16:g_pOTPExportFunctionList	@ tmp139,
	movt	r2, #:upper16:g_pOTPExportFunctionList	@ tmp139,
	mov	r0, #0	@,
	ldr	r1, [r2, #0]	@ g_pOTPExportFunctionList, g_pOTPExportFunctionList
	ldr	r3, [r1, #0]	@ <variable>.HAL_OTP_V200_Read, <variable>.HAL_OTP_V200_Read
	blx	r3	@ <variable>.HAL_OTP_V200_Read
	mov	r3, #0	@ ret,
	ubfx	r0, r0, #14, #1	@ tmp142,,,
	str	r0, [r4, #0]	@ tmp142,* pu32Enable
.L298:
	mov	r0, r3	@, ret
	ldmfd	sp, {r3, r4, fp, sp, pc}	@
	.fnend
	.size	DRV_CA_OTP_V200_GetTSCSA3HardonlyEn, .-DRV_CA_OTP_V200_GetTSCSA3HardonlyEn
	.align	2
	.global	DRV_CA_OTP_V200_GetTSCSA3HardonlyEnLock
	.type	DRV_CA_OTP_V200_GetTSCSA3HardonlyEnLock, %function
DRV_CA_OTP_V200_GetTSCSA3HardonlyEnLock:
	.fnstart
.LFB989:
	@ args = 0, pretend = 0, frame = 0
	@ frame_needed = 1, uses_anonymous_args = 0
	.movsp ip
	mov	ip, sp	@,
	stmfd	sp!, {r3, r4, fp, ip, lr, pc}	@,
	.pad #4
	.save {r3, r4, fp, ip, lr}
	.setfp fp, ip, #-4
	sub	fp, ip, #4	@,,
	push	{lr}
	bl	__gnu_mcount_nc
	subs	r4, r0, #0	@ pu32Lock, pu32Lock
	movweq	r3, #:lower16:-2142371835	@ ret,
	movteq	r3, #:upper16:-2142371835	@ ret,
	beq	.L302	@,
	movw	r2, #:lower16:g_pOTPExportFunctionList	@ tmp139,
	movt	r2, #:upper16:g_pOTPExportFunctionList	@ tmp139,
	mov	r0, #8	@,
	ldr	r1, [r2, #0]	@ g_pOTPExportFunctionList, g_pOTPExportFunctionList
	ldr	r3, [r1, #0]	@ <variable>.HAL_OTP_V200_Read, <variable>.HAL_OTP_V200_Read
	blx	r3	@ <variable>.HAL_OTP_V200_Read
	mov	r3, #0	@ ret,
	ubfx	r0, r0, #14, #1	@ tmp142,,,
	str	r0, [r4, #0]	@ tmp142,* pu32Lock
.L302:
	mov	r0, r3	@, ret
	ldmfd	sp, {r3, r4, fp, sp, pc}	@
	.fnend
	.size	DRV_CA_OTP_V200_GetTSCSA3HardonlyEnLock, .-DRV_CA_OTP_V200_GetTSCSA3HardonlyEnLock
	.align	2
	.global	DRV_CA_OTP_V200_GetTSSPHardonlyEn
	.type	DRV_CA_OTP_V200_GetTSSPHardonlyEn, %function
DRV_CA_OTP_V200_GetTSSPHardonlyEn:
	.fnstart
.LFB990:
	@ args = 0, pretend = 0, frame = 0
	@ frame_needed = 1, uses_anonymous_args = 0
	.movsp ip
	mov	ip, sp	@,
	stmfd	sp!, {r3, r4, fp, ip, lr, pc}	@,
	.pad #4
	.save {r3, r4, fp, ip, lr}
	.setfp fp, ip, #-4
	sub	fp, ip, #4	@,,
	push	{lr}
	bl	__gnu_mcount_nc
	subs	r4, r0, #0	@ pu32Enable, pu32Enable
	movweq	r3, #:lower16:-2142371835	@ ret,
	movteq	r3, #:upper16:-2142371835	@ ret,
	beq	.L306	@,
	movw	r2, #:lower16:g_pOTPExportFunctionList	@ tmp139,
	movt	r2, #:upper16:g_pOTPExportFunctionList	@ tmp139,
	mov	r0, #0	@,
	ldr	r1, [r2, #0]	@ g_pOTPExportFunctionList, g_pOTPExportFunctionList
	ldr	r3, [r1, #0]	@ <variable>.HAL_OTP_V200_Read, <variable>.HAL_OTP_V200_Read
	blx	r3	@ <variable>.HAL_OTP_V200_Read
	mov	r3, #0	@ ret,
	ubfx	r0, r0, #11, #1	@ tmp142,,,
	str	r0, [r4, #0]	@ tmp142,* pu32Enable
.L306:
	mov	r0, r3	@, ret
	ldmfd	sp, {r3, r4, fp, sp, pc}	@
	.fnend
	.size	DRV_CA_OTP_V200_GetTSSPHardonlyEn, .-DRV_CA_OTP_V200_GetTSSPHardonlyEn
	.align	2
	.global	DRV_CA_OTP_V200_GetTSSPHardonlyEnLock
	.type	DRV_CA_OTP_V200_GetTSSPHardonlyEnLock, %function
DRV_CA_OTP_V200_GetTSSPHardonlyEnLock:
	.fnstart
.LFB991:
	@ args = 0, pretend = 0, frame = 0
	@ frame_needed = 1, uses_anonymous_args = 0
	.movsp ip
	mov	ip, sp	@,
	stmfd	sp!, {r3, r4, fp, ip, lr, pc}	@,
	.pad #4
	.save {r3, r4, fp, ip, lr}
	.setfp fp, ip, #-4
	sub	fp, ip, #4	@,,
	push	{lr}
	bl	__gnu_mcount_nc
	subs	r4, r0, #0	@ pu32Lock, pu32Lock
	movweq	r3, #:lower16:-2142371835	@ ret,
	movteq	r3, #:upper16:-2142371835	@ ret,
	beq	.L310	@,
	movw	r2, #:lower16:g_pOTPExportFunctionList	@ tmp139,
	movt	r2, #:upper16:g_pOTPExportFunctionList	@ tmp139,
	mov	r0, #8	@,
	ldr	r1, [r2, #0]	@ g_pOTPExportFunctionList, g_pOTPExportFunctionList
	ldr	r3, [r1, #0]	@ <variable>.HAL_OTP_V200_Read, <variable>.HAL_OTP_V200_Read
	blx	r3	@ <variable>.HAL_OTP_V200_Read
	mov	r3, #0	@ ret,
	ubfx	r0, r0, #11, #1	@ tmp142,,,
	str	r0, [r4, #0]	@ tmp142,* pu32Lock
.L310:
	mov	r0, r3	@, ret
	ldmfd	sp, {r3, r4, fp, sp, pc}	@
	.fnend
	.size	DRV_CA_OTP_V200_GetTSSPHardonlyEnLock, .-DRV_CA_OTP_V200_GetTSSPHardonlyEnLock
	.align	2
	.global	DRV_CA_OTP_V200_GetBlMSIDCheckEn
	.type	DRV_CA_OTP_V200_GetBlMSIDCheckEn, %function
DRV_CA_OTP_V200_GetBlMSIDCheckEn:
	.fnstart
.LFB992:
	@ args = 0, pretend = 0, frame = 8
	@ frame_needed = 1, uses_anonymous_args = 0
	.movsp ip
	mov	ip, sp	@,
	stmfd	sp!, {r4, fp, ip, lr, pc}	@,
	.pad #4
	.save {r4, fp, ip, lr}
	.setfp fp, ip, #-4
	sub	fp, ip, #4	@,,
	.pad #12
	sub	sp, sp, #12	@,,
	push	{lr}
	bl	__gnu_mcount_nc
	subs	r4, r0, #0	@ pu32BlMSIDCheckEn, pu32BlMSIDCheckEn
	movweq	r3, #:lower16:-2142371835	@ ret,
	movteq	r3, #:upper16:-2142371835	@ ret,
	beq	.L314	@,
	movw	r2, #:lower16:g_pOTPExportFunctionList	@ tmp138,
	movt	r2, #:upper16:g_pOTPExportFunctionList	@ tmp138,
	mov	r0, #4	@,
	ldr	r1, [r2, #0]	@ g_pOTPExportFunctionList, g_pOTPExportFunctionList
	ldr	r3, [r1, #0]	@ <variable>.HAL_OTP_V200_Read, <variable>.HAL_OTP_V200_Read
	blx	r3	@ <variable>.HAL_OTP_V200_Read
	mov	r3, #0	@ ret,
	ubfx	r0, r0, #27, #1	@ tmp143,,,
	str	r0, [r4, #0]	@ tmp143,* pu32BlMSIDCheckEn
.L314:
	mov	r0, r3	@, ret
	sub	sp, fp, #16
	ldmfd	sp, {r4, fp, sp, pc}
	.fnend
	.size	DRV_CA_OTP_V200_GetBlMSIDCheckEn, .-DRV_CA_OTP_V200_GetBlMSIDCheckEn
	.align	2
	.global	DRV_CA_OTP_V200_GetBlMSIDCheckEnLock
	.type	DRV_CA_OTP_V200_GetBlMSIDCheckEnLock, %function
DRV_CA_OTP_V200_GetBlMSIDCheckEnLock:
	.fnstart
.LFB993:
	@ args = 0, pretend = 0, frame = 8
	@ frame_needed = 1, uses_anonymous_args = 0
	.movsp ip
	mov	ip, sp	@,
	stmfd	sp!, {r4, fp, ip, lr, pc}	@,
	.pad #4
	.save {r4, fp, ip, lr}
	.setfp fp, ip, #-4
	sub	fp, ip, #4	@,,
	.pad #12
	sub	sp, sp, #12	@,,
	push	{lr}
	bl	__gnu_mcount_nc
	subs	r4, r0, #0	@ pu32Lock, pu32Lock
	movweq	r3, #:lower16:-2142371835	@ ret,
	movteq	r3, #:upper16:-2142371835	@ ret,
	beq	.L318	@,
	movw	r2, #:lower16:g_pOTPExportFunctionList	@ tmp138,
	movt	r2, #:upper16:g_pOTPExportFunctionList	@ tmp138,
	mov	r0, #12	@,
	ldr	r1, [r2, #0]	@ g_pOTPExportFunctionList, g_pOTPExportFunctionList
	ldr	r3, [r1, #0]	@ <variable>.HAL_OTP_V200_Read, <variable>.HAL_OTP_V200_Read
	blx	r3	@ <variable>.HAL_OTP_V200_Read
	mov	r3, #0	@ ret,
	ubfx	r0, r0, #27, #1	@ tmp143,,,
	str	r0, [r4, #0]	@ tmp143,* pu32Lock
.L318:
	mov	r0, r3	@, ret
	sub	sp, fp, #16
	ldmfd	sp, {r4, fp, sp, pc}
	.fnend
	.size	DRV_CA_OTP_V200_GetBlMSIDCheckEnLock, .-DRV_CA_OTP_V200_GetBlMSIDCheckEnLock
	.align	2
	.global	DRV_CA_OTP_V200_GetVersionIDCheckEn
	.type	DRV_CA_OTP_V200_GetVersionIDCheckEn, %function
DRV_CA_OTP_V200_GetVersionIDCheckEn:
	.fnstart
.LFB994:
	@ args = 0, pretend = 0, frame = 8
	@ frame_needed = 1, uses_anonymous_args = 0
	.movsp ip
	mov	ip, sp	@,
	stmfd	sp!, {r4, fp, ip, lr, pc}	@,
	.pad #4
	.save {r4, fp, ip, lr}
	.setfp fp, ip, #-4
	sub	fp, ip, #4	@,,
	.pad #12
	sub	sp, sp, #12	@,,
	push	{lr}
	bl	__gnu_mcount_nc
	subs	r4, r0, #0	@ pu32VersionIDCheckEn, pu32VersionIDCheckEn
	movweq	r3, #:lower16:-2142371835	@ ret,
	movteq	r3, #:upper16:-2142371835	@ ret,
	beq	.L322	@,
	movw	r2, #:lower16:g_pOTPExportFunctionList	@ tmp138,
	movt	r2, #:upper16:g_pOTPExportFunctionList	@ tmp138,
	mov	r0, #4	@,
	ldr	r1, [r2, #0]	@ g_pOTPExportFunctionList, g_pOTPExportFunctionList
	ldr	r3, [r1, #0]	@ <variable>.HAL_OTP_V200_Read, <variable>.HAL_OTP_V200_Read
	blx	r3	@ <variable>.HAL_OTP_V200_Read
	mov	r3, #0	@ ret,
	ubfx	r0, r0, #26, #1	@ tmp143,,,
	str	r0, [r4, #0]	@ tmp143,* pu32VersionIDCheckEn
.L322:
	mov	r0, r3	@, ret
	sub	sp, fp, #16
	ldmfd	sp, {r4, fp, sp, pc}
	.fnend
	.size	DRV_CA_OTP_V200_GetVersionIDCheckEn, .-DRV_CA_OTP_V200_GetVersionIDCheckEn
	.align	2
	.global	DRV_CA_OTP_V200_GetVersionIDCheckEnLock
	.type	DRV_CA_OTP_V200_GetVersionIDCheckEnLock, %function
DRV_CA_OTP_V200_GetVersionIDCheckEnLock:
	.fnstart
.LFB995:
	@ args = 0, pretend = 0, frame = 8
	@ frame_needed = 1, uses_anonymous_args = 0
	.movsp ip
	mov	ip, sp	@,
	stmfd	sp!, {r4, fp, ip, lr, pc}	@,
	.pad #4
	.save {r4, fp, ip, lr}
	.setfp fp, ip, #-4
	sub	fp, ip, #4	@,,
	.pad #12
	sub	sp, sp, #12	@,,
	push	{lr}
	bl	__gnu_mcount_nc
	subs	r4, r0, #0	@ pu32Lock, pu32Lock
	movweq	r3, #:lower16:-2142371835	@ ret,
	movteq	r3, #:upper16:-2142371835	@ ret,
	beq	.L326	@,
	movw	r2, #:lower16:g_pOTPExportFunctionList	@ tmp138,
	movt	r2, #:upper16:g_pOTPExportFunctionList	@ tmp138,
	mov	r0, #12	@,
	ldr	r1, [r2, #0]	@ g_pOTPExportFunctionList, g_pOTPExportFunctionList
	ldr	r3, [r1, #0]	@ <variable>.HAL_OTP_V200_Read, <variable>.HAL_OTP_V200_Read
	blx	r3	@ <variable>.HAL_OTP_V200_Read
	mov	r3, #0	@ ret,
	ubfx	r0, r0, #26, #1	@ tmp143,,,
	str	r0, [r4, #0]	@ tmp143,* pu32Lock
.L326:
	mov	r0, r3	@, ret
	sub	sp, fp, #16
	ldmfd	sp, {r4, fp, sp, pc}
	.fnend
	.size	DRV_CA_OTP_V200_GetVersionIDCheckEnLock, .-DRV_CA_OTP_V200_GetVersionIDCheckEnLock
	.align	2
	.global	DRV_CA_OTP_V200_GetWakeupDDRCheckEn
	.type	DRV_CA_OTP_V200_GetWakeupDDRCheckEn, %function
DRV_CA_OTP_V200_GetWakeupDDRCheckEn:
	.fnstart
.LFB996:
	@ args = 0, pretend = 0, frame = 8
	@ frame_needed = 1, uses_anonymous_args = 0
	.movsp ip
	mov	ip, sp	@,
	stmfd	sp!, {r4, fp, ip, lr, pc}	@,
	.pad #4
	.save {r4, fp, ip, lr}
	.setfp fp, ip, #-4
	sub	fp, ip, #4	@,,
	.pad #12
	sub	sp, sp, #12	@,,
	push	{lr}
	bl	__gnu_mcount_nc
	subs	r4, r0, #0	@ pu32Disable, pu32Disable
	movweq	r3, #:lower16:-2142371835	@ ret,
	movteq	r3, #:upper16:-2142371835	@ ret,
	beq	.L330	@,
	movw	r2, #:lower16:g_pOTPExportFunctionList	@ tmp138,
	movt	r2, #:upper16:g_pOTPExportFunctionList	@ tmp138,
	mov	r0, #4	@,
	ldr	r1, [r2, #0]	@ g_pOTPExportFunctionList, g_pOTPExportFunctionList
	ldr	r3, [r1, #0]	@ <variable>.HAL_OTP_V200_Read, <variable>.HAL_OTP_V200_Read
	blx	r3	@ <variable>.HAL_OTP_V200_Read
	mov	r3, #0	@ ret,
	ubfx	r0, r0, #24, #1	@ tmp143,,,
	str	r0, [r4, #0]	@ tmp143,* pu32Disable
.L330:
	mov	r0, r3	@, ret
	sub	sp, fp, #16
	ldmfd	sp, {r4, fp, sp, pc}
	.fnend
	.size	DRV_CA_OTP_V200_GetWakeupDDRCheckEn, .-DRV_CA_OTP_V200_GetWakeupDDRCheckEn
	.align	2
	.global	DRV_CA_OTP_V200_GetWakeupDDRCheckEnLock
	.type	DRV_CA_OTP_V200_GetWakeupDDRCheckEnLock, %function
DRV_CA_OTP_V200_GetWakeupDDRCheckEnLock:
	.fnstart
.LFB997:
	@ args = 0, pretend = 0, frame = 8
	@ frame_needed = 1, uses_anonymous_args = 0
	.movsp ip
	mov	ip, sp	@,
	stmfd	sp!, {r4, fp, ip, lr, pc}	@,
	.pad #4
	.save {r4, fp, ip, lr}
	.setfp fp, ip, #-4
	sub	fp, ip, #4	@,,
	.pad #12
	sub	sp, sp, #12	@,,
	push	{lr}
	bl	__gnu_mcount_nc
	subs	r4, r0, #0	@ pu32Lock, pu32Lock
	movweq	r3, #:lower16:-2142371835	@ ret,
	movteq	r3, #:upper16:-2142371835	@ ret,
	beq	.L334	@,
	movw	r2, #:lower16:g_pOTPExportFunctionList	@ tmp138,
	movt	r2, #:upper16:g_pOTPExportFunctionList	@ tmp138,
	mov	r0, #12	@,
	ldr	r1, [r2, #0]	@ g_pOTPExportFunctionList, g_pOTPExportFunctionList
	ldr	r3, [r1, #0]	@ <variable>.HAL_OTP_V200_Read, <variable>.HAL_OTP_V200_Read
	blx	r3	@ <variable>.HAL_OTP_V200_Read
	mov	r3, #0	@ ret,
	ubfx	r0, r0, #24, #1	@ tmp143,,,
	str	r0, [r4, #0]	@ tmp143,* pu32Lock
.L334:
	mov	r0, r3	@, ret
	sub	sp, fp, #16
	ldmfd	sp, {r4, fp, sp, pc}
	.fnend
	.size	DRV_CA_OTP_V200_GetWakeupDDRCheckEnLock, .-DRV_CA_OTP_V200_GetWakeupDDRCheckEnLock
	.align	2
	.global	DRV_CA_OTP_V200_GetRuntimeCheckEn
	.type	DRV_CA_OTP_V200_GetRuntimeCheckEn, %function
DRV_CA_OTP_V200_GetRuntimeCheckEn:
	.fnstart
.LFB998:
	@ args = 0, pretend = 0, frame = 8
	@ frame_needed = 1, uses_anonymous_args = 0
	.movsp ip
	mov	ip, sp	@,
	stmfd	sp!, {r4, fp, ip, lr, pc}	@,
	.pad #4
	.save {r4, fp, ip, lr}
	.setfp fp, ip, #-4
	sub	fp, ip, #4	@,,
	.pad #12
	sub	sp, sp, #12	@,,
	push	{lr}
	bl	__gnu_mcount_nc
	subs	r4, r0, #0	@ pu32Disable, pu32Disable
	movweq	r3, #:lower16:-2142371835	@ ret,
	movteq	r3, #:upper16:-2142371835	@ ret,
	beq	.L338	@,
	movw	r2, #:lower16:g_pOTPExportFunctionList	@ tmp138,
	movt	r2, #:upper16:g_pOTPExportFunctionList	@ tmp138,
	mov	r0, #4	@,
	ldr	r1, [r2, #0]	@ g_pOTPExportFunctionList, g_pOTPExportFunctionList
	ldr	r3, [r1, #0]	@ <variable>.HAL_OTP_V200_Read, <variable>.HAL_OTP_V200_Read
	blx	r3	@ <variable>.HAL_OTP_V200_Read
	mov	r3, #0	@ ret,
	ubfx	r0, r0, #20, #1	@ tmp143,,,
	str	r0, [r4, #0]	@ tmp143,* pu32Disable
.L338:
	mov	r0, r3	@, ret
	sub	sp, fp, #16
	ldmfd	sp, {r4, fp, sp, pc}
	.fnend
	.size	DRV_CA_OTP_V200_GetRuntimeCheckEn, .-DRV_CA_OTP_V200_GetRuntimeCheckEn
	.align	2
	.global	DRV_CA_OTP_V200_GetRuntimeCheckEnLock
	.type	DRV_CA_OTP_V200_GetRuntimeCheckEnLock, %function
DRV_CA_OTP_V200_GetRuntimeCheckEnLock:
	.fnstart
.LFB999:
	@ args = 0, pretend = 0, frame = 8
	@ frame_needed = 1, uses_anonymous_args = 0
	.movsp ip
	mov	ip, sp	@,
	stmfd	sp!, {r4, fp, ip, lr, pc}	@,
	.pad #4
	.save {r4, fp, ip, lr}
	.setfp fp, ip, #-4
	sub	fp, ip, #4	@,,
	.pad #12
	sub	sp, sp, #12	@,,
	push	{lr}
	bl	__gnu_mcount_nc
	subs	r4, r0, #0	@ pu32Lock, pu32Lock
	movweq	r3, #:lower16:-2142371835	@ ret,
	movteq	r3, #:upper16:-2142371835	@ ret,
	beq	.L342	@,
	movw	r2, #:lower16:g_pOTPExportFunctionList	@ tmp138,
	movt	r2, #:upper16:g_pOTPExportFunctionList	@ tmp138,
	mov	r0, #12	@,
	ldr	r1, [r2, #0]	@ g_pOTPExportFunctionList, g_pOTPExportFunctionList
	ldr	r3, [r1, #0]	@ <variable>.HAL_OTP_V200_Read, <variable>.HAL_OTP_V200_Read
	blx	r3	@ <variable>.HAL_OTP_V200_Read
	mov	r3, #0	@ ret,
	ubfx	r0, r0, #20, #1	@ tmp143,,,
	str	r0, [r4, #0]	@ tmp143,* pu32Lock
.L342:
	mov	r0, r3	@, ret
	sub	sp, fp, #16
	ldmfd	sp, {r4, fp, sp, pc}
	.fnend
	.size	DRV_CA_OTP_V200_GetRuntimeCheckEnLock, .-DRV_CA_OTP_V200_GetRuntimeCheckEnLock
	.align	2
	.global	DRV_CA_OTP_V200_GetOtpGlobalLockEn
	.type	DRV_CA_OTP_V200_GetOtpGlobalLockEn, %function
DRV_CA_OTP_V200_GetOtpGlobalLockEn:
	.fnstart
.LFB1000:
	@ args = 0, pretend = 0, frame = 0
	@ frame_needed = 1, uses_anonymous_args = 0
	.movsp ip
	mov	ip, sp	@,
	stmfd	sp!, {r3, r4, fp, ip, lr, pc}	@,
	.pad #4
	.save {r3, r4, fp, ip, lr}
	.setfp fp, ip, #-4
	sub	fp, ip, #4	@,,
	push	{lr}
	bl	__gnu_mcount_nc
	subs	r4, r0, #0	@ pu32Enable, pu32Enable
	movweq	r3, #:lower16:-2142371835	@ ret,
	movteq	r3, #:upper16:-2142371835	@ ret,
	beq	.L346	@,
	movw	r2, #:lower16:g_pOTPExportFunctionList	@ tmp139,
	movt	r2, #:upper16:g_pOTPExportFunctionList	@ tmp139,
	mov	r0, #0	@,
	ldr	r1, [r2, #0]	@ g_pOTPExportFunctionList, g_pOTPExportFunctionList
	ldr	r3, [r1, #0]	@ <variable>.HAL_OTP_V200_Read, <variable>.HAL_OTP_V200_Read
	blx	r3	@ <variable>.HAL_OTP_V200_Read
	mov	r3, #0	@ ret,
	mov	r0, r0, lsr #31	@ tmp142,,
	str	r0, [r4, #0]	@ tmp142,* pu32Enable
.L346:
	mov	r0, r3	@, ret
	ldmfd	sp, {r3, r4, fp, sp, pc}	@
	.fnend
	.size	DRV_CA_OTP_V200_GetOtpGlobalLockEn, .-DRV_CA_OTP_V200_GetOtpGlobalLockEn
	.align	2
	.global	DRV_CA_OTP_V200_GetOtpGlobalLockEnLock
	.type	DRV_CA_OTP_V200_GetOtpGlobalLockEnLock, %function
DRV_CA_OTP_V200_GetOtpGlobalLockEnLock:
	.fnstart
.LFB1001:
	@ args = 0, pretend = 0, frame = 0
	@ frame_needed = 1, uses_anonymous_args = 0
	.movsp ip
	mov	ip, sp	@,
	stmfd	sp!, {r3, r4, fp, ip, lr, pc}	@,
	.pad #4
	.save {r3, r4, fp, ip, lr}
	.setfp fp, ip, #-4
	sub	fp, ip, #4	@,,
	push	{lr}
	bl	__gnu_mcount_nc
	subs	r4, r0, #0	@ pu32Lock, pu32Lock
	movweq	r3, #:lower16:-2142371835	@ ret,
	movteq	r3, #:upper16:-2142371835	@ ret,
	beq	.L350	@,
	movw	r2, #:lower16:g_pOTPExportFunctionList	@ tmp139,
	movt	r2, #:upper16:g_pOTPExportFunctionList	@ tmp139,
	mov	r0, #8	@,
	ldr	r1, [r2, #0]	@ g_pOTPExportFunctionList, g_pOTPExportFunctionList
	ldr	r3, [r1, #0]	@ <variable>.HAL_OTP_V200_Read, <variable>.HAL_OTP_V200_Read
	blx	r3	@ <variable>.HAL_OTP_V200_Read
	mov	r3, #0	@ ret,
	mov	r0, r0, lsr #31	@ tmp142,,
	str	r0, [r4, #0]	@ tmp142,* pu32Lock
.L350:
	mov	r0, r3	@, ret
	ldmfd	sp, {r3, r4, fp, sp, pc}	@
	.fnend
	.size	DRV_CA_OTP_V200_GetOtpGlobalLockEnLock, .-DRV_CA_OTP_V200_GetOtpGlobalLockEnLock
	.align	2
	.global	DRV_CA_OTP_V200_GetDDRScrambleEnLock
	.type	DRV_CA_OTP_V200_GetDDRScrambleEnLock, %function
DRV_CA_OTP_V200_GetDDRScrambleEnLock:
	.fnstart
.LFB1002:
	@ args = 0, pretend = 0, frame = 0
	@ frame_needed = 1, uses_anonymous_args = 0
	.movsp ip
	mov	ip, sp	@,
	stmfd	sp!, {r3, r4, fp, ip, lr, pc}	@,
	.pad #4
	.save {r3, r4, fp, ip, lr}
	.setfp fp, ip, #-4
	sub	fp, ip, #4	@,,
	push	{lr}
	bl	__gnu_mcount_nc
	subs	r4, r0, #0	@ pu32Lock, pu32Lock
	movweq	r3, #:lower16:-2142371835	@ ret,
	movteq	r3, #:upper16:-2142371835	@ ret,
	beq	.L354	@,
	movw	r2, #:lower16:g_pOTPExportFunctionList	@ tmp139,
	movt	r2, #:upper16:g_pOTPExportFunctionList	@ tmp139,
	mov	r0, #8	@,
	ldr	r1, [r2, #0]	@ g_pOTPExportFunctionList, g_pOTPExportFunctionList
	ldr	r3, [r1, #0]	@ <variable>.HAL_OTP_V200_Read, <variable>.HAL_OTP_V200_Read
	blx	r3	@ <variable>.HAL_OTP_V200_Read
	mov	r3, #0	@ ret,
	ubfx	r0, r0, #30, #1	@ tmp142,,,
	str	r0, [r4, #0]	@ tmp142,* pu32Lock
.L354:
	mov	r0, r3	@, ret
	ldmfd	sp, {r3, r4, fp, sp, pc}	@
	.fnend
	.size	DRV_CA_OTP_V200_GetDDRScrambleEnLock, .-DRV_CA_OTP_V200_GetDDRScrambleEnLock
	.align	2
	.global	DRV_CA_OTP_V200_GetBloadModeSel
	.type	DRV_CA_OTP_V200_GetBloadModeSel, %function
DRV_CA_OTP_V200_GetBloadModeSel:
	.fnstart
.LFB1003:
	@ args = 0, pretend = 0, frame = 0
	@ frame_needed = 1, uses_anonymous_args = 0
	.movsp ip
	mov	ip, sp	@,
	stmfd	sp!, {r3, r4, fp, ip, lr, pc}	@,
	.pad #4
	.save {r3, r4, fp, ip, lr}
	.setfp fp, ip, #-4
	sub	fp, ip, #4	@,,
	push	{lr}
	bl	__gnu_mcount_nc
	subs	r4, r0, #0	@ pu32Mode, pu32Mode
	movweq	r3, #:lower16:-2142371835	@ ret,
	movteq	r3, #:upper16:-2142371835	@ ret,
	beq	.L358	@,
	movw	r2, #:lower16:g_pOTPExportFunctionList	@ tmp139,
	movt	r2, #:upper16:g_pOTPExportFunctionList	@ tmp139,
	mov	r0, #0	@,
	ldr	r1, [r2, #0]	@ g_pOTPExportFunctionList, g_pOTPExportFunctionList
	ldr	r3, [r1, #0]	@ <variable>.HAL_OTP_V200_Read, <variable>.HAL_OTP_V200_Read
	blx	r3	@ <variable>.HAL_OTP_V200_Read
	mov	r3, #0	@ ret,
	ubfx	r0, r0, #29, #1	@ tmp142,,,
	str	r0, [r4, #0]	@ tmp142,* pu32Mode
.L358:
	mov	r0, r3	@, ret
	ldmfd	sp, {r3, r4, fp, sp, pc}	@
	.fnend
	.size	DRV_CA_OTP_V200_GetBloadModeSel, .-DRV_CA_OTP_V200_GetBloadModeSel
	.align	2
	.global	DRV_CA_OTP_V200_GetBloadModeSelLock
	.type	DRV_CA_OTP_V200_GetBloadModeSelLock, %function
DRV_CA_OTP_V200_GetBloadModeSelLock:
	.fnstart
.LFB1004:
	@ args = 0, pretend = 0, frame = 0
	@ frame_needed = 1, uses_anonymous_args = 0
	.movsp ip
	mov	ip, sp	@,
	stmfd	sp!, {r3, r4, fp, ip, lr, pc}	@,
	.pad #4
	.save {r3, r4, fp, ip, lr}
	.setfp fp, ip, #-4
	sub	fp, ip, #4	@,,
	push	{lr}
	bl	__gnu_mcount_nc
	subs	r4, r0, #0	@ pu32Lock, pu32Lock
	movweq	r3, #:lower16:-2142371835	@ ret,
	movteq	r3, #:upper16:-2142371835	@ ret,
	beq	.L362	@,
	movw	r2, #:lower16:g_pOTPExportFunctionList	@ tmp139,
	movt	r2, #:upper16:g_pOTPExportFunctionList	@ tmp139,
	mov	r0, #8	@,
	ldr	r1, [r2, #0]	@ g_pOTPExportFunctionList, g_pOTPExportFunctionList
	ldr	r3, [r1, #0]	@ <variable>.HAL_OTP_V200_Read, <variable>.HAL_OTP_V200_Read
	blx	r3	@ <variable>.HAL_OTP_V200_Read
	mov	r3, #0	@ ret,
	ubfx	r0, r0, #29, #1	@ tmp142,,,
	str	r0, [r4, #0]	@ tmp142,* pu32Lock
.L362:
	mov	r0, r3	@, ret
	ldmfd	sp, {r3, r4, fp, sp, pc}	@
	.fnend
	.size	DRV_CA_OTP_V200_GetBloadModeSelLock, .-DRV_CA_OTP_V200_GetBloadModeSelLock
	.align	2
	.global	DRV_CA_OTP_V200_GetTSCsa2HardonlyEn
	.type	DRV_CA_OTP_V200_GetTSCsa2HardonlyEn, %function
DRV_CA_OTP_V200_GetTSCsa2HardonlyEn:
	.fnstart
.LFB1011:
	@ args = 0, pretend = 0, frame = 0
	@ frame_needed = 1, uses_anonymous_args = 0
	.movsp ip
	mov	ip, sp	@,
	stmfd	sp!, {r3, r4, fp, ip, lr, pc}	@,
	.pad #4
	.save {r3, r4, fp, ip, lr}
	.setfp fp, ip, #-4
	sub	fp, ip, #4	@,,
	push	{lr}
	bl	__gnu_mcount_nc
	subs	r4, r0, #0	@ pu32Enable, pu32Enable
	movweq	r3, #:lower16:-2142371835	@ ret,
	movteq	r3, #:upper16:-2142371835	@ ret,
	beq	.L366	@,
	movw	r2, #:lower16:g_pOTPExportFunctionList	@ tmp139,
	movt	r2, #:upper16:g_pOTPExportFunctionList	@ tmp139,
	mov	r0, #0	@,
	ldr	r1, [r2, #0]	@ g_pOTPExportFunctionList, g_pOTPExportFunctionList
	ldr	r3, [r1, #0]	@ <variable>.HAL_OTP_V200_Read, <variable>.HAL_OTP_V200_Read
	blx	r3	@ <variable>.HAL_OTP_V200_Read
	mov	r3, #0	@ ret,
	ubfx	r0, r0, #10, #1	@ tmp142,,,
	str	r0, [r4, #0]	@ tmp142,* pu32Enable
.L366:
	mov	r0, r3	@, ret
	ldmfd	sp, {r3, r4, fp, sp, pc}	@
	.fnend
	.size	DRV_CA_OTP_V200_GetTSCsa2HardonlyEn, .-DRV_CA_OTP_V200_GetTSCsa2HardonlyEn
	.align	2
	.global	DRV_CA_OTP_V200_GetTSCsa2HardonlyEnLock
	.type	DRV_CA_OTP_V200_GetTSCsa2HardonlyEnLock, %function
DRV_CA_OTP_V200_GetTSCsa2HardonlyEnLock:
	.fnstart
.LFB1012:
	@ args = 0, pretend = 0, frame = 0
	@ frame_needed = 1, uses_anonymous_args = 0
	.movsp ip
	mov	ip, sp	@,
	stmfd	sp!, {r3, r4, fp, ip, lr, pc}	@,
	.pad #4
	.save {r3, r4, fp, ip, lr}
	.setfp fp, ip, #-4
	sub	fp, ip, #4	@,,
	push	{lr}
	bl	__gnu_mcount_nc
	subs	r4, r0, #0	@ pu32Enable, pu32Enable
	movweq	r3, #:lower16:-2142371835	@ ret,
	movteq	r3, #:upper16:-2142371835	@ ret,
	beq	.L370	@,
	movw	r2, #:lower16:g_pOTPExportFunctionList	@ tmp139,
	movt	r2, #:upper16:g_pOTPExportFunctionList	@ tmp139,
	mov	r0, #8	@,
	ldr	r1, [r2, #0]	@ g_pOTPExportFunctionList, g_pOTPExportFunctionList
	ldr	r3, [r1, #0]	@ <variable>.HAL_OTP_V200_Read, <variable>.HAL_OTP_V200_Read
	blx	r3	@ <variable>.HAL_OTP_V200_Read
	mov	r3, #0	@ ret,
	ubfx	r0, r0, #10, #1	@ tmp142,,,
	str	r0, [r4, #0]	@ tmp142,* pu32Enable
.L370:
	mov	r0, r3	@, ret
	ldmfd	sp, {r3, r4, fp, sp, pc}	@
	.fnend
	.size	DRV_CA_OTP_V200_GetTSCsa2HardonlyEnLock, .-DRV_CA_OTP_V200_GetTSCsa2HardonlyEnLock
	.align	2
	.global	DRV_CA_OTP_V200_GetLinkProtectDisable
	.type	DRV_CA_OTP_V200_GetLinkProtectDisable, %function
DRV_CA_OTP_V200_GetLinkProtectDisable:
	.fnstart
.LFB1013:
	@ args = 0, pretend = 0, frame = 0
	@ frame_needed = 1, uses_anonymous_args = 0
	.movsp ip
	mov	ip, sp	@,
	stmfd	sp!, {r3, r4, fp, ip, lr, pc}	@,
	.pad #4
	.save {r3, r4, fp, ip, lr}
	.setfp fp, ip, #-4
	sub	fp, ip, #4	@,,
	push	{lr}
	bl	__gnu_mcount_nc
	subs	r4, r0, #0	@ pu32Disable, pu32Disable
	movweq	r3, #:lower16:-2142371835	@ ret,
	movteq	r3, #:upper16:-2142371835	@ ret,
	beq	.L374	@,
	movw	r2, #:lower16:g_pOTPExportFunctionList	@ tmp139,
	movt	r2, #:upper16:g_pOTPExportFunctionList	@ tmp139,
	mov	r0, #0	@,
	ldr	r1, [r2, #0]	@ g_pOTPExportFunctionList, g_pOTPExportFunctionList
	ldr	r3, [r1, #0]	@ <variable>.HAL_OTP_V200_Read, <variable>.HAL_OTP_V200_Read
	blx	r3	@ <variable>.HAL_OTP_V200_Read
	mov	r3, #0	@ ret,
	ubfx	r0, r0, #9, #1	@ tmp142,,,
	str	r0, [r4, #0]	@ tmp142,* pu32Disable
.L374:
	mov	r0, r3	@, ret
	ldmfd	sp, {r3, r4, fp, sp, pc}	@
	.fnend
	.size	DRV_CA_OTP_V200_GetLinkProtectDisable, .-DRV_CA_OTP_V200_GetLinkProtectDisable
	.align	2
	.global	DRV_CA_OTP_V200_GetDcasKLDisable
	.type	DRV_CA_OTP_V200_GetDcasKLDisable, %function
DRV_CA_OTP_V200_GetDcasKLDisable:
	.fnstart
.LFB1015:
	@ args = 0, pretend = 0, frame = 8
	@ frame_needed = 1, uses_anonymous_args = 0
	.movsp ip
	mov	ip, sp	@,
	stmfd	sp!, {r4, fp, ip, lr, pc}	@,
	.pad #4
	.save {r4, fp, ip, lr}
	.setfp fp, ip, #-4
	sub	fp, ip, #4	@,,
	.pad #12
	sub	sp, sp, #12	@,,
	push	{lr}
	bl	__gnu_mcount_nc
	subs	r4, r0, #0	@ pu32Disable, pu32Disable
	movweq	r3, #:lower16:-2142371835	@ ret,
	movteq	r3, #:upper16:-2142371835	@ ret,
	beq	.L378	@,
	movw	r2, #:lower16:g_pOTPExportFunctionList	@ tmp138,
	movt	r2, #:upper16:g_pOTPExportFunctionList	@ tmp138,
	mov	r0, #4	@,
	ldr	r1, [r2, #0]	@ g_pOTPExportFunctionList, g_pOTPExportFunctionList
	ldr	r3, [r1, #0]	@ <variable>.HAL_OTP_V200_Read, <variable>.HAL_OTP_V200_Read
	blx	r3	@ <variable>.HAL_OTP_V200_Read
	mov	r3, #0	@ ret,
	ubfx	r0, r0, #5, #1	@ tmp143,,,
	str	r0, [r4, #0]	@ tmp143,* pu32Disable
.L378:
	mov	r0, r3	@, ret
	sub	sp, fp, #16
	ldmfd	sp, {r4, fp, sp, pc}
	.fnend
	.size	DRV_CA_OTP_V200_GetDcasKLDisable, .-DRV_CA_OTP_V200_GetDcasKLDisable
	.align	2
	.global	DRV_CA_OTP_V200_GetDcasKLDisableLock
	.type	DRV_CA_OTP_V200_GetDcasKLDisableLock, %function
DRV_CA_OTP_V200_GetDcasKLDisableLock:
	.fnstart
.LFB1016:
	@ args = 0, pretend = 0, frame = 8
	@ frame_needed = 1, uses_anonymous_args = 0
	.movsp ip
	mov	ip, sp	@,
	stmfd	sp!, {r4, fp, ip, lr, pc}	@,
	.pad #4
	.save {r4, fp, ip, lr}
	.setfp fp, ip, #-4
	sub	fp, ip, #4	@,,
	.pad #12
	sub	sp, sp, #12	@,,
	push	{lr}
	bl	__gnu_mcount_nc
	subs	r4, r0, #0	@ pu32Lock, pu32Lock
	movweq	r3, #:lower16:-2142371835	@ ret,
	movteq	r3, #:upper16:-2142371835	@ ret,
	beq	.L382	@,
	movw	r2, #:lower16:g_pOTPExportFunctionList	@ tmp138,
	movt	r2, #:upper16:g_pOTPExportFunctionList	@ tmp138,
	mov	r0, #12	@,
	ldr	r1, [r2, #0]	@ g_pOTPExportFunctionList, g_pOTPExportFunctionList
	ldr	r3, [r1, #0]	@ <variable>.HAL_OTP_V200_Read, <variable>.HAL_OTP_V200_Read
	blx	r3	@ <variable>.HAL_OTP_V200_Read
	mov	r3, #0	@ ret,
	ubfx	r0, r0, #5, #1	@ tmp143,,,
	str	r0, [r4, #0]	@ tmp143,* pu32Lock
.L382:
	mov	r0, r3	@, ret
	sub	sp, fp, #16
	ldmfd	sp, {r4, fp, sp, pc}
	.fnend
	.size	DRV_CA_OTP_V200_GetDcasKLDisableLock, .-DRV_CA_OTP_V200_GetDcasKLDisableLock
	.align	2
	.global	DRV_CA_OTP_V200_SetDcasKLDisableLock
	.type	DRV_CA_OTP_V200_SetDcasKLDisableLock, %function
DRV_CA_OTP_V200_SetDcasKLDisableLock:
	.fnstart
.LFB1014:
	@ args = 0, pretend = 0, frame = 8
	@ frame_needed = 1, uses_anonymous_args = 0
	.movsp ip
	mov	ip, sp	@,
	stmfd	sp!, {r4, fp, ip, lr, pc}	@,
	.pad #4
	.save {r4, fp, ip, lr}
	.setfp fp, ip, #-4
	sub	fp, ip, #4	@,,
	.pad #20
	sub	sp, sp, #20	@,,
	push	{lr}
	bl	__gnu_mcount_nc
	movw	r0, #:lower16:g_pOTPExportFunctionList	@ tmp141,
	movt	r0, #:upper16:g_pOTPExportFunctionList	@ tmp141,
	mov	r1, #0	@ tmp135,
	mov	r2, #32	@ tmp138,
	str	r1, [fp, #-28]	@ tmp135, PVLOCK_1.u32
	ldr	r4, [r0, #0]	@ g_pOTPExportFunctionList, g_pOTPExportFunctionList
	mov	r0, #12	@,
	strb	r2, [fp, #-28]	@ tmp138,
	ldr	r1, [fp, #-28]	@, PVLOCK_1.u32
	ldr	r3, [r4, #8]	@ <variable>.HAL_OTP_V200_Write, <variable>.HAL_OTP_V200_Write
	blx	r3	@ <variable>.HAL_OTP_V200_Write
	subs	r4, r0, #0	@ ret,
	beq	.L385	@,
	movw	r2, #:lower16:.LANCHOR0	@,
	mov	r0, #1	@,
	movt	r2, #:upper16:.LANCHOR0	@,
	mov	r1, #97	@,
	movw	r3, #7656	@,
	movw	ip, #:lower16:.LC0	@ tmp145,
	movt	ip, #:upper16:.LC0	@ tmp145,
	str	ip, [sp, #0]	@ tmp145,
	bl	HI_LogOut	@
.L385:
	mov	r0, r4	@, ret
	sub	sp, fp, #16
	ldmfd	sp, {r4, fp, sp, pc}
	.fnend
	.size	DRV_CA_OTP_V200_SetDcasKLDisableLock, .-DRV_CA_OTP_V200_SetDcasKLDisableLock
	.align	2
	.global	DRV_CA_OTP_V200_SetBlMSIDCheckEnLock
	.type	DRV_CA_OTP_V200_SetBlMSIDCheckEnLock, %function
DRV_CA_OTP_V200_SetBlMSIDCheckEnLock:
	.fnstart
.LFB983:
	@ args = 0, pretend = 0, frame = 8
	@ frame_needed = 1, uses_anonymous_args = 0
	.movsp ip
	mov	ip, sp	@,
	stmfd	sp!, {r4, fp, ip, lr, pc}	@,
	.pad #4
	.save {r4, fp, ip, lr}
	.setfp fp, ip, #-4
	sub	fp, ip, #4	@,,
	.pad #20
	sub	sp, sp, #20	@,,
	push	{lr}
	bl	__gnu_mcount_nc
	movw	r0, #:lower16:g_pOTPExportFunctionList	@ tmp141,
	movt	r0, #:upper16:g_pOTPExportFunctionList	@ tmp141,
	mov	r1, #0	@ tmp135,
	mov	r2, #8	@ tmp138,
	str	r1, [fp, #-28]	@ tmp135, PVLOCK_1.u32
	ldr	r4, [r0, #0]	@ g_pOTPExportFunctionList, g_pOTPExportFunctionList
	mov	r0, #12	@,
	strb	r2, [fp, #-25]	@ tmp138,
	ldr	r1, [fp, #-28]	@, PVLOCK_1.u32
	ldr	r3, [r4, #8]	@ <variable>.HAL_OTP_V200_Write, <variable>.HAL_OTP_V200_Write
	blx	r3	@ <variable>.HAL_OTP_V200_Write
	subs	r4, r0, #0	@ ret,
	beq	.L388	@,
	mov	r0, #1	@,
	mov	r1, #97	@,
	ldr	r2, .L390	@,
	movw	r3, #7061	@,
	movw	ip, #:lower16:.LC0	@ tmp146,
	movt	ip, #:upper16:.LC0	@ tmp146,
	str	ip, [sp, #0]	@ tmp146,
	bl	HI_LogOut	@
.L388:
	mov	r0, r4	@, ret
	sub	sp, fp, #16
	ldmfd	sp, {r4, fp, sp, pc}
.L391:
	.align	2
.L390:
	.word	.LANCHOR0+40
	.fnend
	.size	DRV_CA_OTP_V200_SetBlMSIDCheckEnLock, .-DRV_CA_OTP_V200_SetBlMSIDCheckEnLock
	.align	2
	.global	DRV_CA_OTP_V200_SetVersionIdCheckEnLock
	.type	DRV_CA_OTP_V200_SetVersionIdCheckEnLock, %function
DRV_CA_OTP_V200_SetVersionIdCheckEnLock:
	.fnstart
.LFB982:
	@ args = 0, pretend = 0, frame = 8
	@ frame_needed = 1, uses_anonymous_args = 0
	.movsp ip
	mov	ip, sp	@,
	stmfd	sp!, {r4, fp, ip, lr, pc}	@,
	.pad #4
	.save {r4, fp, ip, lr}
	.setfp fp, ip, #-4
	sub	fp, ip, #4	@,,
	.pad #20
	sub	sp, sp, #20	@,,
	push	{lr}
	bl	__gnu_mcount_nc
	movw	r0, #:lower16:g_pOTPExportFunctionList	@ tmp141,
	movt	r0, #:upper16:g_pOTPExportFunctionList	@ tmp141,
	mov	r1, #0	@ tmp135,
	mov	r2, #4	@ tmp138,
	str	r1, [fp, #-28]	@ tmp135, PVLOCK_1.u32
	ldr	r4, [r0, #0]	@ g_pOTPExportFunctionList, g_pOTPExportFunctionList
	mov	r0, #12	@,
	strb	r2, [fp, #-25]	@ tmp138,
	ldr	r1, [fp, #-28]	@, PVLOCK_1.u32
	ldr	r3, [r4, #8]	@ <variable>.HAL_OTP_V200_Write, <variable>.HAL_OTP_V200_Write
	blx	r3	@ <variable>.HAL_OTP_V200_Write
	subs	r4, r0, #0	@ ret,
	beq	.L393	@,
	mov	r0, #1	@,
	mov	r1, #97	@,
	ldr	r2, .L395	@,
	movw	r3, #7043	@,
	movw	ip, #:lower16:.LC0	@ tmp146,
	movt	ip, #:upper16:.LC0	@ tmp146,
	str	ip, [sp, #0]	@ tmp146,
	bl	HI_LogOut	@
.L393:
	mov	r0, r4	@, ret
	sub	sp, fp, #16
	ldmfd	sp, {r4, fp, sp, pc}
.L396:
	.align	2
.L395:
	.word	.LANCHOR0+80
	.fnend
	.size	DRV_CA_OTP_V200_SetVersionIdCheckEnLock, .-DRV_CA_OTP_V200_SetVersionIdCheckEnLock
	.align	2
	.global	DRV_CA_OTP_V200_SetWakeupDDRCheckEnLock
	.type	DRV_CA_OTP_V200_SetWakeupDDRCheckEnLock, %function
DRV_CA_OTP_V200_SetWakeupDDRCheckEnLock:
	.fnstart
.LFB981:
	@ args = 0, pretend = 0, frame = 8
	@ frame_needed = 1, uses_anonymous_args = 0
	.movsp ip
	mov	ip, sp	@,
	stmfd	sp!, {r4, fp, ip, lr, pc}	@,
	.pad #4
	.save {r4, fp, ip, lr}
	.setfp fp, ip, #-4
	sub	fp, ip, #4	@,,
	.pad #20
	sub	sp, sp, #20	@,,
	push	{lr}
	bl	__gnu_mcount_nc
	movw	r0, #:lower16:g_pOTPExportFunctionList	@ tmp141,
	movt	r0, #:upper16:g_pOTPExportFunctionList	@ tmp141,
	mov	r1, #0	@ tmp135,
	mov	r2, #1	@ tmp138,
	str	r1, [fp, #-28]	@ tmp135, PVLOCK_1.u32
	ldr	r4, [r0, #0]	@ g_pOTPExportFunctionList, g_pOTPExportFunctionList
	mov	r0, #12	@,
	strb	r2, [fp, #-25]	@ tmp138,
	ldr	r1, [fp, #-28]	@, PVLOCK_1.u32
	ldr	r3, [r4, #8]	@ <variable>.HAL_OTP_V200_Write, <variable>.HAL_OTP_V200_Write
	blx	r3	@ <variable>.HAL_OTP_V200_Write
	subs	r4, r0, #0	@ ret,
	beq	.L398	@,
	mov	r0, #1	@,
	mov	r1, #97	@,
	ldr	r2, .L400	@,
	movw	r3, #7025	@,
	movw	ip, #:lower16:.LC0	@ tmp146,
	movt	ip, #:upper16:.LC0	@ tmp146,
	str	ip, [sp, #0]	@ tmp146,
	bl	HI_LogOut	@
.L398:
	mov	r0, r4	@, ret
	sub	sp, fp, #16
	ldmfd	sp, {r4, fp, sp, pc}
.L401:
	.align	2
.L400:
	.word	.LANCHOR0+120
	.fnend
	.size	DRV_CA_OTP_V200_SetWakeupDDRCheckEnLock, .-DRV_CA_OTP_V200_SetWakeupDDRCheckEnLock
	.align	2
	.global	DRV_CA_OTP_V200_SetRuntimeCheckEnLock
	.type	DRV_CA_OTP_V200_SetRuntimeCheckEnLock, %function
DRV_CA_OTP_V200_SetRuntimeCheckEnLock:
	.fnstart
.LFB980:
	@ args = 0, pretend = 0, frame = 8
	@ frame_needed = 1, uses_anonymous_args = 0
	.movsp ip
	mov	ip, sp	@,
	stmfd	sp!, {r4, fp, ip, lr, pc}	@,
	.pad #4
	.save {r4, fp, ip, lr}
	.setfp fp, ip, #-4
	sub	fp, ip, #4	@,,
	.pad #20
	sub	sp, sp, #20	@,,
	push	{lr}
	bl	__gnu_mcount_nc
	movw	r0, #:lower16:g_pOTPExportFunctionList	@ tmp141,
	movt	r0, #:upper16:g_pOTPExportFunctionList	@ tmp141,
	mov	r1, #0	@ tmp135,
	mov	r2, #16	@ tmp138,
	str	r1, [fp, #-28]	@ tmp135, PVLOCK_1.u32
	ldr	r4, [r0, #0]	@ g_pOTPExportFunctionList, g_pOTPExportFunctionList
	mov	r0, #12	@,
	strb	r2, [fp, #-26]	@ tmp138,
	ldr	r1, [fp, #-28]	@, PVLOCK_1.u32
	ldr	r3, [r4, #8]	@ <variable>.HAL_OTP_V200_Write, <variable>.HAL_OTP_V200_Write
	blx	r3	@ <variable>.HAL_OTP_V200_Write
	subs	r4, r0, #0	@ ret,
	beq	.L403	@,
	mov	r0, #1	@,
	mov	r1, #97	@,
	ldr	r2, .L405	@,
	movw	r3, #7007	@,
	movw	ip, #:lower16:.LC0	@ tmp146,
	movt	ip, #:upper16:.LC0	@ tmp146,
	str	ip, [sp, #0]	@ tmp146,
	bl	HI_LogOut	@
.L403:
	mov	r0, r4	@, ret
	sub	sp, fp, #16
	ldmfd	sp, {r4, fp, sp, pc}
.L406:
	.align	2
.L405:
	.word	.LANCHOR0+160
	.fnend
	.size	DRV_CA_OTP_V200_SetRuntimeCheckEnLock, .-DRV_CA_OTP_V200_SetRuntimeCheckEnLock
	.align	2
	.global	DRV_CA_OTP_V200_SetOtpGlobalLockEnLock
	.type	DRV_CA_OTP_V200_SetOtpGlobalLockEnLock, %function
DRV_CA_OTP_V200_SetOtpGlobalLockEnLock:
	.fnstart
.LFB979:
	@ args = 0, pretend = 0, frame = 0
	@ frame_needed = 1, uses_anonymous_args = 0
	.movsp ip
	mov	ip, sp	@,
	stmfd	sp!, {r4, fp, ip, lr, pc}	@,
	.pad #4
	.save {r4, fp, ip, lr}
	.setfp fp, ip, #-4
	sub	fp, ip, #4	@,,
	.pad #12
	sub	sp, sp, #12	@,,
	push	{lr}
	bl	__gnu_mcount_nc
	movw	r4, #:lower16:g_pOTPExportFunctionList	@ tmp138,
	movt	r4, #:upper16:g_pOTPExportFunctionList	@ tmp138,
	mov	r0, #8	@,
	mov	r1, #-2147483648	@,
	ldr	r2, [r4, #0]	@ g_pOTPExportFunctionList, g_pOTPExportFunctionList
	ldr	r3, [r2, #8]	@ <variable>.HAL_OTP_V200_Write, <variable>.HAL_OTP_V200_Write
	blx	r3	@ <variable>.HAL_OTP_V200_Write
	subs	r4, r0, #0	@ ret,
	beq	.L408	@,
	mov	r0, #1	@,
	mov	r1, #97	@,
	ldr	r2, .L410	@,
	movw	r3, #6988	@,
	movw	ip, #:lower16:.LC0	@ tmp142,
	movt	ip, #:upper16:.LC0	@ tmp142,
	str	ip, [sp, #0]	@ tmp142,
	bl	HI_LogOut	@
.L408:
	mov	r0, r4	@, ret
	sub	sp, fp, #16
	ldmfd	sp, {r4, fp, sp, pc}
.L411:
	.align	2
.L410:
	.word	.LANCHOR0+200
	.fnend
	.size	DRV_CA_OTP_V200_SetOtpGlobalLockEnLock, .-DRV_CA_OTP_V200_SetOtpGlobalLockEnLock
	.align	2
	.global	DRV_CA_OTP_V200_SetDDRScrambleEnLock
	.type	DRV_CA_OTP_V200_SetDDRScrambleEnLock, %function
DRV_CA_OTP_V200_SetDDRScrambleEnLock:
	.fnstart
.LFB978:
	@ args = 0, pretend = 0, frame = 0
	@ frame_needed = 1, uses_anonymous_args = 0
	.movsp ip
	mov	ip, sp	@,
	stmfd	sp!, {r4, fp, ip, lr, pc}	@,
	.pad #4
	.save {r4, fp, ip, lr}
	.setfp fp, ip, #-4
	sub	fp, ip, #4	@,,
	.pad #12
	sub	sp, sp, #12	@,,
	push	{lr}
	bl	__gnu_mcount_nc
	movw	r4, #:lower16:g_pOTPExportFunctionList	@ tmp138,
	movt	r4, #:upper16:g_pOTPExportFunctionList	@ tmp138,
	mov	r0, #8	@,
	mov	r1, #1073741824	@,
	ldr	r2, [r4, #0]	@ g_pOTPExportFunctionList, g_pOTPExportFunctionList
	ldr	r3, [r2, #8]	@ <variable>.HAL_OTP_V200_Write, <variable>.HAL_OTP_V200_Write
	blx	r3	@ <variable>.HAL_OTP_V200_Write
	subs	r4, r0, #0	@ ret,
	beq	.L413	@,
	mov	r0, #1	@,
	mov	r1, #97	@,
	ldr	r2, .L415	@,
	movw	r3, #6970	@,
	movw	ip, #:lower16:.LC0	@ tmp142,
	movt	ip, #:upper16:.LC0	@ tmp142,
	str	ip, [sp, #0]	@ tmp142,
	bl	HI_LogOut	@
.L413:
	mov	r0, r4	@, ret
	sub	sp, fp, #16
	ldmfd	sp, {r4, fp, sp, pc}
.L416:
	.align	2
.L415:
	.word	.LANCHOR0+240
	.fnend
	.size	DRV_CA_OTP_V200_SetDDRScrambleEnLock, .-DRV_CA_OTP_V200_SetDDRScrambleEnLock
	.align	2
	.global	DRV_CA_OTP_V200_SetBloadModeSelLock
	.type	DRV_CA_OTP_V200_SetBloadModeSelLock, %function
DRV_CA_OTP_V200_SetBloadModeSelLock:
	.fnstart
.LFB977:
	@ args = 0, pretend = 0, frame = 0
	@ frame_needed = 1, uses_anonymous_args = 0
	.movsp ip
	mov	ip, sp	@,
	stmfd	sp!, {r4, fp, ip, lr, pc}	@,
	.pad #4
	.save {r4, fp, ip, lr}
	.setfp fp, ip, #-4
	sub	fp, ip, #4	@,,
	.pad #12
	sub	sp, sp, #12	@,,
	push	{lr}
	bl	__gnu_mcount_nc
	movw	r4, #:lower16:g_pOTPExportFunctionList	@ tmp138,
	movt	r4, #:upper16:g_pOTPExportFunctionList	@ tmp138,
	mov	r0, #8	@,
	mov	r1, #536870912	@,
	ldr	r2, [r4, #0]	@ g_pOTPExportFunctionList, g_pOTPExportFunctionList
	ldr	r3, [r2, #8]	@ <variable>.HAL_OTP_V200_Write, <variable>.HAL_OTP_V200_Write
	blx	r3	@ <variable>.HAL_OTP_V200_Write
	subs	r4, r0, #0	@ ret,
	beq	.L418	@,
	mov	r0, #1	@,
	mov	r1, #97	@,
	ldr	r2, .L420	@,
	movw	r3, #6953	@,
	movw	ip, #:lower16:.LC0	@ tmp142,
	movt	ip, #:upper16:.LC0	@ tmp142,
	str	ip, [sp, #0]	@ tmp142,
	bl	HI_LogOut	@
.L418:
	mov	r0, r4	@, ret
	sub	sp, fp, #16
	ldmfd	sp, {r4, fp, sp, pc}
.L421:
	.align	2
.L420:
	.word	.LANCHOR0+280
	.fnend
	.size	DRV_CA_OTP_V200_SetBloadModeSelLock, .-DRV_CA_OTP_V200_SetBloadModeSelLock
	.align	2
	.global	DRV_CA_OTP_V200_SetCSA3HardOnlyEnLock
	.type	DRV_CA_OTP_V200_SetCSA3HardOnlyEnLock, %function
DRV_CA_OTP_V200_SetCSA3HardOnlyEnLock:
	.fnstart
.LFB976:
	@ args = 0, pretend = 0, frame = 0
	@ frame_needed = 1, uses_anonymous_args = 0
	.movsp ip
	mov	ip, sp	@,
	stmfd	sp!, {r4, fp, ip, lr, pc}	@,
	.pad #4
	.save {r4, fp, ip, lr}
	.setfp fp, ip, #-4
	sub	fp, ip, #4	@,,
	.pad #12
	sub	sp, sp, #12	@,,
	push	{lr}
	bl	__gnu_mcount_nc
	movw	r4, #:lower16:g_pOTPExportFunctionList	@ tmp138,
	movt	r4, #:upper16:g_pOTPExportFunctionList	@ tmp138,
	mov	r0, #8	@,
	mov	r1, #16384	@,
	ldr	r2, [r4, #0]	@ g_pOTPExportFunctionList, g_pOTPExportFunctionList
	ldr	r3, [r2, #8]	@ <variable>.HAL_OTP_V200_Write, <variable>.HAL_OTP_V200_Write
	blx	r3	@ <variable>.HAL_OTP_V200_Write
	subs	r4, r0, #0	@ ret,
	beq	.L423	@,
	mov	r0, #1	@,
	mov	r1, #97	@,
	ldr	r2, .L425	@,
	movw	r3, #6936	@,
	movw	ip, #:lower16:.LC0	@ tmp142,
	movt	ip, #:upper16:.LC0	@ tmp142,
	str	ip, [sp, #0]	@ tmp142,
	bl	HI_LogOut	@
.L423:
	mov	r0, r4	@, ret
	sub	sp, fp, #16
	ldmfd	sp, {r4, fp, sp, pc}
.L426:
	.align	2
.L425:
	.word	.LANCHOR0+316
	.fnend
	.size	DRV_CA_OTP_V200_SetCSA3HardOnlyEnLock, .-DRV_CA_OTP_V200_SetCSA3HardOnlyEnLock
	.align	2
	.global	DRV_CA_OTP_V200_SetVersionIdLock
	.type	DRV_CA_OTP_V200_SetVersionIdLock, %function
DRV_CA_OTP_V200_SetVersionIdLock:
	.fnstart
.LFB975:
	@ args = 0, pretend = 0, frame = 0
	@ frame_needed = 1, uses_anonymous_args = 0
	.movsp ip
	mov	ip, sp	@,
	stmfd	sp!, {r4, fp, ip, lr, pc}	@,
	.pad #4
	.save {r4, fp, ip, lr}
	.setfp fp, ip, #-4
	sub	fp, ip, #4	@,,
	.pad #12
	sub	sp, sp, #12	@,,
	push	{lr}
	bl	__gnu_mcount_nc
	movw	r4, #:lower16:g_pOTPExportFunctionList	@ tmp138,
	movt	r4, #:upper16:g_pOTPExportFunctionList	@ tmp138,
	mov	r0, #16	@,
	mov	r1, #512	@,
	ldr	r2, [r4, #0]	@ g_pOTPExportFunctionList, g_pOTPExportFunctionList
	ldr	r3, [r2, #8]	@ <variable>.HAL_OTP_V200_Write, <variable>.HAL_OTP_V200_Write
	blx	r3	@ <variable>.HAL_OTP_V200_Write
	subs	r4, r0, #0	@ ret,
	beq	.L428	@,
	mov	r0, #1	@,
	mov	r1, #97	@,
	ldr	r2, .L430	@,
	movw	r3, #6918	@,
	movw	ip, #:lower16:.LC0	@ tmp142,
	movt	ip, #:upper16:.LC0	@ tmp142,
	str	ip, [sp, #0]	@ tmp142,
	bl	HI_LogOut	@
.L428:
	mov	r0, r4	@, ret
	sub	sp, fp, #16
	ldmfd	sp, {r4, fp, sp, pc}
.L431:
	.align	2
.L430:
	.word	.LANCHOR0+356
	.fnend
	.size	DRV_CA_OTP_V200_SetVersionIdLock, .-DRV_CA_OTP_V200_SetVersionIdLock
	.align	2
	.global	DRV_CA_OTP_V200_SetSelftestDisable
	.type	DRV_CA_OTP_V200_SetSelftestDisable, %function
DRV_CA_OTP_V200_SetSelftestDisable:
	.fnstart
.LFB974:
	@ args = 0, pretend = 0, frame = 0
	@ frame_needed = 1, uses_anonymous_args = 0
	.movsp ip
	mov	ip, sp	@,
	stmfd	sp!, {r4, fp, ip, lr, pc}	@,
	.pad #4
	.save {r4, fp, ip, lr}
	.setfp fp, ip, #-4
	sub	fp, ip, #4	@,,
	.pad #12
	sub	sp, sp, #12	@,,
	push	{lr}
	bl	__gnu_mcount_nc
	movw	r4, #:lower16:g_pOTPExportFunctionList	@ tmp138,
	movt	r4, #:upper16:g_pOTPExportFunctionList	@ tmp138,
	mov	r0, #24	@,
	mov	r1, #1024	@,
	ldr	r2, [r4, #0]	@ g_pOTPExportFunctionList, g_pOTPExportFunctionList
	ldr	r3, [r2, #8]	@ <variable>.HAL_OTP_V200_Write, <variable>.HAL_OTP_V200_Write
	blx	r3	@ <variable>.HAL_OTP_V200_Write
	subs	r4, r0, #0	@ ret,
	beq	.L433	@,
	mov	r0, #1	@,
	mov	r1, #97	@,
	ldr	r2, .L435	@,
	movw	r3, #6900	@,
	movw	ip, #:lower16:.LC0	@ tmp142,
	movt	ip, #:upper16:.LC0	@ tmp142,
	str	ip, [sp, #0]	@ tmp142,
	bl	HI_LogOut	@
.L433:
	mov	r0, r4	@, ret
	sub	sp, fp, #16
	ldmfd	sp, {r4, fp, sp, pc}
.L436:
	.align	2
.L435:
	.word	.LANCHOR0+392
	.fnend
	.size	DRV_CA_OTP_V200_SetSelftestDisable, .-DRV_CA_OTP_V200_SetSelftestDisable
	.align	2
	.global	DRV_CA_OTP_V200_SetBlMSIDCheckEn
	.type	DRV_CA_OTP_V200_SetBlMSIDCheckEn, %function
DRV_CA_OTP_V200_SetBlMSIDCheckEn:
	.fnstart
.LFB973:
	@ args = 0, pretend = 0, frame = 16
	@ frame_needed = 1, uses_anonymous_args = 0
	.movsp ip
	mov	ip, sp	@,
	stmfd	sp!, {r4, r5, r6, fp, ip, lr, pc}	@,
	.pad #4
	.save {r4, r5, r6, fp, ip, lr}
	.setfp fp, ip, #-4
	sub	fp, ip, #4	@,,
	.pad #28
	sub	sp, sp, #28	@,,
	push	{lr}
	bl	__gnu_mcount_nc
	cmp	r0, #1	@ u32Disable,
	mov	r5, r0	@ u32Disable, u32Disable
	movwhi	r4, #:lower16:-2142371835	@ ret,
	movthi	r4, #:upper16:-2142371835	@ ret,
	bls	.L444	@,
.L439:
	mov	r0, r4	@, ret
	sub	sp, fp, #24
	ldmfd	sp, {r4, r5, r6, fp, sp, pc}
.L444:
	movw	r6, #:lower16:g_pOTPExportFunctionList	@ tmp178,
	movt	r6, #:upper16:g_pOTPExportFunctionList	@ tmp178,
	mov	r0, #12	@,
	ldr	ip, [r6, #0]	@ g_pOTPExportFunctionList, g_pOTPExportFunctionList
	ldr	r3, [ip, #0]	@ <variable>.HAL_OTP_V200_Read, <variable>.HAL_OTP_V200_Read
	blx	r3	@ <variable>.HAL_OTP_V200_Read
	mov	r1, r0, lsr #24	@ tmp142, D.24399,
	str	r0, [fp, #-44]	@ D.24399, PVLOCK_1.u32
	and	r2, r1, #8	@ tmp144, tmp142,
	uxtb	r2, r2	@ tmp145, tmp144
	cmp	r2, #0	@ tmp145,
	bne	.L445	@,
	cmp	r5, #1	@ u32Disable,
	beq	.L446	@,
.L442:
	ldr	r1, [r6, #0]	@ g_pOTPExportFunctionList, g_pOTPExportFunctionList
	mov	r4, #0	@ tmp165,
	mov	r0, #8	@ tmp168,
	str	r4, [fp, #-44]	@ tmp165, PVLOCK_1.u32
	strb	r0, [fp, #-41]	@ tmp168,
	mov	r0, #12	@,
	ldr	r2, [r1, #8]	@ <variable>.HAL_OTP_V200_Write, <variable>.HAL_OTP_V200_Write
	ldr	r1, [fp, #-44]	@, PVLOCK_1.u32
	blx	r2	@ <variable>.HAL_OTP_V200_Write
	subs	r4, r0, #0	@ ret,
	beq	.L439	@,
	mov	r0, #1	@,
	mov	r1, #97	@,
	ldr	r2, .L447	@,
	movw	r3, #6881	@,
	movw	ip, #:lower16:.LC0	@ tmp176,
	movt	ip, #:upper16:.LC0	@ tmp176,
	str	ip, [sp, #0]	@ tmp176,
	bl	HI_LogOut	@
	b	.L439	@
.L445:
	ldr	lr, [r6, #0]	@ g_pOTPExportFunctionList, g_pOTPExportFunctionList
	mov	r0, #4	@,
	ldr	r1, [lr, #0]	@ <variable>.HAL_OTP_V200_Read, <variable>.HAL_OTP_V200_Read
	blx	r1	@ <variable>.HAL_OTP_V200_Read
	movw	r2, #:lower16:-2142371830	@ tmp180,
	movt	r2, #:upper16:-2142371830	@ tmp180,
	ubfx	r0, r0, #27, #1	@ tmp152,,,
	cmp	r0, r5	@ tmp152, u32Disable
	movne	r4, r2	@ ret, tmp180
	moveq	r4, #0	@ ret,
	b	.L439	@
.L446:
	ldr	r3, [r6, #0]	@ g_pOTPExportFunctionList, g_pOTPExportFunctionList
	mov	ip, #8	@ tmp156,
	str	r2, [fp, #-36]	@ tmp145, PV_1.u32
	mov	r0, #4	@,
	strb	ip, [fp, #-33]	@ tmp156,
	ldr	r1, [fp, #-36]	@, PV_1.u32
	ldr	r4, [r3, #8]	@ <variable>.HAL_OTP_V200_Write, <variable>.HAL_OTP_V200_Write
	blx	r4	@ <variable>.HAL_OTP_V200_Write
	subs	r4, r0, #0	@ ret,
	beq	.L442	@,
	mov	r0, r5	@, u32Disable
	mov	r1, #97	@,
	ldr	r2, .L447	@,
	movw	r3, #6870	@,
	movw	lr, #:lower16:.LC0	@ tmp164,
	movt	lr, #:upper16:.LC0	@ tmp164,
	str	lr, [sp, #0]	@ tmp164,
	bl	HI_LogOut	@
	b	.L439	@
.L448:
	.align	2
.L447:
	.word	.LANCHOR0+428
	.fnend
	.size	DRV_CA_OTP_V200_SetBlMSIDCheckEn, .-DRV_CA_OTP_V200_SetBlMSIDCheckEn
	.align	2
	.global	DRV_CA_OTP_V200_SetVersionIdCheckEn
	.type	DRV_CA_OTP_V200_SetVersionIdCheckEn, %function
DRV_CA_OTP_V200_SetVersionIdCheckEn:
	.fnstart
.LFB972:
	@ args = 0, pretend = 0, frame = 16
	@ frame_needed = 1, uses_anonymous_args = 0
	.movsp ip
	mov	ip, sp	@,
	stmfd	sp!, {r4, r5, r6, fp, ip, lr, pc}	@,
	.pad #4
	.save {r4, r5, r6, fp, ip, lr}
	.setfp fp, ip, #-4
	sub	fp, ip, #4	@,,
	.pad #28
	sub	sp, sp, #28	@,,
	push	{lr}
	bl	__gnu_mcount_nc
	cmp	r0, #1	@ u32Disable,
	mov	r5, r0	@ u32Disable, u32Disable
	movwhi	r4, #:lower16:-2142371835	@ ret,
	movthi	r4, #:upper16:-2142371835	@ ret,
	bls	.L456	@,
.L451:
	mov	r0, r4	@, ret
	sub	sp, fp, #24
	ldmfd	sp, {r4, r5, r6, fp, sp, pc}
.L456:
	movw	r6, #:lower16:g_pOTPExportFunctionList	@ tmp178,
	movt	r6, #:upper16:g_pOTPExportFunctionList	@ tmp178,
	mov	r0, #12	@,
	ldr	ip, [r6, #0]	@ g_pOTPExportFunctionList, g_pOTPExportFunctionList
	ldr	r3, [ip, #0]	@ <variable>.HAL_OTP_V200_Read, <variable>.HAL_OTP_V200_Read
	blx	r3	@ <variable>.HAL_OTP_V200_Read
	mov	r1, r0, lsr #24	@ tmp142, D.24366,
	str	r0, [fp, #-44]	@ D.24366, PVLOCK_1.u32
	and	r2, r1, #4	@ tmp144, tmp142,
	uxtb	r2, r2	@ tmp145, tmp144
	cmp	r2, #0	@ tmp145,
	bne	.L457	@,
	cmp	r5, #1	@ u32Disable,
	beq	.L458	@,
.L454:
	ldr	r1, [r6, #0]	@ g_pOTPExportFunctionList, g_pOTPExportFunctionList
	mov	r4, #0	@ tmp165,
	mov	r0, #4	@ tmp168,
	str	r4, [fp, #-44]	@ tmp165, PVLOCK_1.u32
	strb	r0, [fp, #-41]	@ tmp168,
	mov	r0, #12	@,
	ldr	r2, [r1, #8]	@ <variable>.HAL_OTP_V200_Write, <variable>.HAL_OTP_V200_Write
	ldr	r1, [fp, #-44]	@, PVLOCK_1.u32
	blx	r2	@ <variable>.HAL_OTP_V200_Write
	subs	r4, r0, #0	@ ret,
	beq	.L451	@,
	mov	r0, #1	@,
	mov	r1, #97	@,
	ldr	r2, .L459	@,
	movw	r3, #6828	@,
	movw	ip, #:lower16:.LC0	@ tmp176,
	movt	ip, #:upper16:.LC0	@ tmp176,
	str	ip, [sp, #0]	@ tmp176,
	bl	HI_LogOut	@
	b	.L451	@
.L457:
	ldr	lr, [r6, #0]	@ g_pOTPExportFunctionList, g_pOTPExportFunctionList
	mov	r0, #4	@,
	ldr	r1, [lr, #0]	@ <variable>.HAL_OTP_V200_Read, <variable>.HAL_OTP_V200_Read
	blx	r1	@ <variable>.HAL_OTP_V200_Read
	movw	r2, #:lower16:-2142371830	@ tmp180,
	movt	r2, #:upper16:-2142371830	@ tmp180,
	ubfx	r0, r0, #26, #1	@ tmp152,,,
	cmp	r0, r5	@ tmp152, u32Disable
	movne	r4, r2	@ ret, tmp180
	moveq	r4, #0	@ ret,
	b	.L451	@
.L458:
	ldr	r3, [r6, #0]	@ g_pOTPExportFunctionList, g_pOTPExportFunctionList
	mov	r0, #4	@,
	str	r2, [fp, #-36]	@ tmp145, PV_1.u32
	strb	r0, [fp, #-33]	@ tmp156,
	ldr	r1, [fp, #-36]	@, PV_1.u32
	ldr	r4, [r3, #8]	@ <variable>.HAL_OTP_V200_Write, <variable>.HAL_OTP_V200_Write
	blx	r4	@ <variable>.HAL_OTP_V200_Write
	subs	r4, r0, #0	@ ret,
	beq	.L454	@,
	mov	r0, r5	@, u32Disable
	mov	r1, #97	@,
	ldr	r2, .L459	@,
	movw	r3, #6817	@,
	movw	lr, #:lower16:.LC0	@ tmp164,
	movt	lr, #:upper16:.LC0	@ tmp164,
	str	lr, [sp, #0]	@ tmp164,
	bl	HI_LogOut	@
	b	.L451	@
.L460:
	.align	2
.L459:
	.word	.LANCHOR0+464
	.fnend
	.size	DRV_CA_OTP_V200_SetVersionIdCheckEn, .-DRV_CA_OTP_V200_SetVersionIdCheckEn
	.align	2
	.global	DRV_CA_OTP_V200_SetMiscKlLevel
	.type	DRV_CA_OTP_V200_SetMiscKlLevel, %function
DRV_CA_OTP_V200_SetMiscKlLevel:
	.fnstart
.LFB970:
	@ args = 0, pretend = 0, frame = 8
	@ frame_needed = 1, uses_anonymous_args = 0
	.movsp ip
	mov	ip, sp	@,
	stmfd	sp!, {r4, r5, fp, ip, lr, pc}	@,
	.pad #4
	.save {r4, r5, fp, ip, lr}
	.setfp fp, ip, #-4
	sub	fp, ip, #4	@,,
	.pad #16
	sub	sp, sp, #16	@,,
	push	{lr}
	bl	__gnu_mcount_nc
	cmp	r0, #1	@ bValue,
	mov	r5, r0	@ bValue, bValue
	bls	.L462	@,
.L467:
	movw	r4, #:lower16:-2142371835	@ ret,
	movt	r4, #:upper16:-2142371835	@ ret,
.L463:
	mov	r0, r4	@, ret
	sub	sp, fp, #20
	ldmfd	sp, {r4, r5, fp, sp, pc}
.L462:
	beq	.L468	@,
	movw	r1, #:lower16:g_pOTPExportFunctionList	@ tmp157,
	movt	r1, #:upper16:g_pOTPExportFunctionList	@ tmp157,
	mov	r0, #4	@,
	ldr	r3, [r1, #0]	@ g_pOTPExportFunctionList, g_pOTPExportFunctionList
	ldr	r4, [r3, #0]	@ <variable>.HAL_OTP_V200_Read, <variable>.HAL_OTP_V200_Read
	blx	r4	@ <variable>.HAL_OTP_V200_Read
	tst	r0, #33554432	@ D.24336,
	str	r0, [fp, #-28]	@ D.24336, PV_1.u32
	bne	.L469	@,
.L465:
	mov	r4, #0	@ ret,
	b	.L463	@
.L468:
	movw	r4, #:lower16:g_pOTPExportFunctionList	@ tmp139,
	movt	r4, #:upper16:g_pOTPExportFunctionList	@ tmp139,
	mov	r0, #4	@,
	ldr	r1, [r4, #0]	@ g_pOTPExportFunctionList, g_pOTPExportFunctionList
	ldr	r3, [r1, #0]	@ <variable>.HAL_OTP_V200_Read, <variable>.HAL_OTP_V200_Read
	blx	r3	@ <variable>.HAL_OTP_V200_Read
	mov	r2, r0, lsr #24	@ tmp142, D.24325,
	str	r0, [fp, #-28]	@ D.24325, PV_1.u32
	tst	r2, #2	@ tmp142,
	bne	.L465	@,
	ldr	ip, [r4, #0]	@ g_pOTPExportFunctionList, g_pOTPExportFunctionList
	orr	r0, r2, #2	@ tmp147, tmp142,
	strb	r0, [fp, #-25]	@ tmp147,
	mov	r0, #4	@,
	ldr	r1, [fp, #-28]	@, PV_1.u32
	ldr	r2, [ip, #8]	@ <variable>.HAL_OTP_V200_Write, <variable>.HAL_OTP_V200_Write
	blx	r2	@ <variable>.HAL_OTP_V200_Write
	subs	r4, r0, #0	@ ret,
	beq	.L463	@,
	mov	r0, r5	@, bValue
	mov	r1, #97	@,
	ldr	r2, .L470	@,
	movw	r3, #6735	@,
	movw	lr, #:lower16:.LC0	@ tmp155,
	movt	lr, #:upper16:.LC0	@ tmp155,
	str	lr, [sp, #0]	@ tmp155,
	bl	HI_LogOut	@
	b	.L463	@
.L469:
	mov	r0, #1	@,
	mov	r1, #97	@,
	ldr	r2, .L470	@,
	movw	r3, #6751	@,
	movw	ip, #:lower16:.LC1	@ tmp165,
	movt	ip, #:upper16:.LC1	@ tmp165,
	str	ip, [sp, #0]	@ tmp165,
	bl	HI_LogOut	@
	b	.L467	@
.L471:
	.align	2
.L470:
	.word	.LANCHOR0+500
	.fnend
	.size	DRV_CA_OTP_V200_SetMiscKlLevel, .-DRV_CA_OTP_V200_SetMiscKlLevel
	.align	2
	.global	DRV_CA_OTP_V200_SetWakeupDDRCheckEn
	.type	DRV_CA_OTP_V200_SetWakeupDDRCheckEn, %function
DRV_CA_OTP_V200_SetWakeupDDRCheckEn:
	.fnstart
.LFB969:
	@ args = 0, pretend = 0, frame = 16
	@ frame_needed = 1, uses_anonymous_args = 0
	.movsp ip
	mov	ip, sp	@,
	stmfd	sp!, {r4, r5, r6, fp, ip, lr, pc}	@,
	.pad #4
	.save {r4, r5, r6, fp, ip, lr}
	.setfp fp, ip, #-4
	sub	fp, ip, #4	@,,
	.pad #28
	sub	sp, sp, #28	@,,
	push	{lr}
	bl	__gnu_mcount_nc
	cmp	r0, #1	@ u32Disable,
	mov	r5, r0	@ u32Disable, u32Disable
	movwhi	r4, #:lower16:-2142371835	@ ret,
	movthi	r4, #:upper16:-2142371835	@ ret,
	bls	.L479	@,
.L474:
	mov	r0, r4	@, ret
	sub	sp, fp, #24
	ldmfd	sp, {r4, r5, r6, fp, sp, pc}
.L479:
	movw	r6, #:lower16:g_pOTPExportFunctionList	@ tmp178,
	movt	r6, #:upper16:g_pOTPExportFunctionList	@ tmp178,
	mov	r0, #12	@,
	ldr	r1, [r6, #0]	@ g_pOTPExportFunctionList, g_pOTPExportFunctionList
	ldr	r3, [r1, #0]	@ <variable>.HAL_OTP_V200_Read, <variable>.HAL_OTP_V200_Read
	blx	r3	@ <variable>.HAL_OTP_V200_Read
	ubfx	r2, r0, #24, #1	@ tmp145, D.24291,,
	str	r0, [fp, #-44]	@ D.24291, PVLOCK_1.u32
	cmp	r2, #0	@ tmp145,
	bne	.L480	@,
	cmp	r5, #1	@ u32Disable,
	beq	.L481	@,
.L477:
	ldr	lr, [r6, #0]	@ g_pOTPExportFunctionList, g_pOTPExportFunctionList
	mov	r4, #0	@ tmp165,
	mov	r0, #1	@ tmp168,
	str	r4, [fp, #-44]	@ tmp165, PVLOCK_1.u32
	strb	r0, [fp, #-41]	@ tmp168,
	mov	r0, #12	@,
	ldr	r2, [lr, #8]	@ <variable>.HAL_OTP_V200_Write, <variable>.HAL_OTP_V200_Write
	ldr	r1, [fp, #-44]	@, PVLOCK_1.u32
	blx	r2	@ <variable>.HAL_OTP_V200_Write
	subs	r4, r0, #0	@ ret,
	beq	.L474	@,
	mov	r0, #1	@,
	mov	r1, #97	@,
	ldr	r2, .L482	@,
	movw	r3, #6703	@,
	movw	ip, #:lower16:.LC0	@ tmp176,
	movt	ip, #:upper16:.LC0	@ tmp176,
	str	ip, [sp, #0]	@ tmp176,
	bl	HI_LogOut	@
	b	.L474	@
.L480:
	ldr	lr, [r6, #0]	@ g_pOTPExportFunctionList, g_pOTPExportFunctionList
	mov	r0, #4	@,
	ldr	ip, [lr, #0]	@ <variable>.HAL_OTP_V200_Read, <variable>.HAL_OTP_V200_Read
	blx	ip	@ <variable>.HAL_OTP_V200_Read
	movw	r2, #:lower16:-2142371830	@ tmp180,
	movt	r2, #:upper16:-2142371830	@ tmp180,
	ubfx	r0, r0, #24, #1	@ tmp152,,,
	cmp	r0, r5	@ tmp152, u32Disable
	movne	r4, r2	@ ret, tmp180
	moveq	r4, #0	@ ret,
	b	.L474	@
.L481:
	ldr	r3, [r6, #0]	@ g_pOTPExportFunctionList, g_pOTPExportFunctionList
	mov	r1, #1	@ tmp156,
	str	r2, [fp, #-36]	@ tmp145, PV_1.u32
	mov	r0, #4	@,
	strb	r1, [fp, #-33]	@ tmp156,
	ldr	r1, [fp, #-36]	@, PV_1.u32
	ldr	r4, [r3, #8]	@ <variable>.HAL_OTP_V200_Write, <variable>.HAL_OTP_V200_Write
	blx	r4	@ <variable>.HAL_OTP_V200_Write
	subs	r4, r0, #0	@ ret,
	beq	.L477	@,
	mov	r0, r5	@, u32Disable
	mov	r1, #97	@,
	ldr	r2, .L482	@,
	movw	r3, #6692	@,
	movw	ip, #:lower16:.LC0	@ tmp164,
	movt	ip, #:upper16:.LC0	@ tmp164,
	str	ip, [sp, #0]	@ tmp164,
	bl	HI_LogOut	@
	b	.L474	@
.L483:
	.align	2
.L482:
	.word	.LANCHOR0+532
	.fnend
	.size	DRV_CA_OTP_V200_SetWakeupDDRCheckEn, .-DRV_CA_OTP_V200_SetWakeupDDRCheckEn
	.align	2
	.global	DRV_CA_OTP_V200_SetRuntimeCheckEn
	.type	DRV_CA_OTP_V200_SetRuntimeCheckEn, %function
DRV_CA_OTP_V200_SetRuntimeCheckEn:
	.fnstart
.LFB968:
	@ args = 0, pretend = 0, frame = 16
	@ frame_needed = 1, uses_anonymous_args = 0
	.movsp ip
	mov	ip, sp	@,
	stmfd	sp!, {r4, r5, r6, fp, ip, lr, pc}	@,
	.pad #4
	.save {r4, r5, r6, fp, ip, lr}
	.setfp fp, ip, #-4
	sub	fp, ip, #4	@,,
	.pad #28
	sub	sp, sp, #28	@,,
	push	{lr}
	bl	__gnu_mcount_nc
	cmp	r0, #1	@ u32Disable,
	mov	r5, r0	@ u32Disable, u32Disable
	movwhi	r4, #:lower16:-2142371835	@ ret,
	movthi	r4, #:upper16:-2142371835	@ ret,
	bls	.L491	@,
.L486:
	mov	r0, r4	@, ret
	sub	sp, fp, #24
	ldmfd	sp, {r4, r5, r6, fp, sp, pc}
.L491:
	movw	r6, #:lower16:g_pOTPExportFunctionList	@ tmp178,
	movt	r6, #:upper16:g_pOTPExportFunctionList	@ tmp178,
	mov	r0, #12	@,
	ldr	ip, [r6, #0]	@ g_pOTPExportFunctionList, g_pOTPExportFunctionList
	ldr	r3, [ip, #0]	@ <variable>.HAL_OTP_V200_Read, <variable>.HAL_OTP_V200_Read
	blx	r3	@ <variable>.HAL_OTP_V200_Read
	ubfx	r1, r0, #16, #8	@ tmp142, D.24258,,
	str	r0, [fp, #-44]	@ D.24258, PVLOCK_1.u32
	and	r2, r1, #16	@ tmp144, tmp142,
	uxtb	r2, r2	@ tmp145, tmp144
	cmp	r2, #0	@ tmp145,
	bne	.L492	@,
	cmp	r5, #1	@ u32Disable,
	beq	.L493	@,
.L489:
	ldr	r1, [r6, #0]	@ g_pOTPExportFunctionList, g_pOTPExportFunctionList
	mov	r4, #0	@ tmp165,
	mov	r0, #16	@ tmp168,
	str	r4, [fp, #-44]	@ tmp165, PVLOCK_1.u32
	strb	r0, [fp, #-42]	@ tmp168,
	mov	r0, #12	@,
	ldr	r2, [r1, #8]	@ <variable>.HAL_OTP_V200_Write, <variable>.HAL_OTP_V200_Write
	ldr	r1, [fp, #-44]	@, PVLOCK_1.u32
	blx	r2	@ <variable>.HAL_OTP_V200_Write
	subs	r4, r0, #0	@ ret,
	beq	.L486	@,
	mov	r0, #1	@,
	mov	r1, #97	@,
	ldr	r2, .L494	@,
	movw	r3, #6650	@,
	movw	ip, #:lower16:.LC0	@ tmp176,
	movt	ip, #:upper16:.LC0	@ tmp176,
	str	ip, [sp, #0]	@ tmp176,
	bl	HI_LogOut	@
	b	.L486	@
.L492:
	ldr	lr, [r6, #0]	@ g_pOTPExportFunctionList, g_pOTPExportFunctionList
	mov	r0, #4	@,
	ldr	r1, [lr, #0]	@ <variable>.HAL_OTP_V200_Read, <variable>.HAL_OTP_V200_Read
	blx	r1	@ <variable>.HAL_OTP_V200_Read
	movw	r2, #:lower16:-2142371830	@ tmp180,
	movt	r2, #:upper16:-2142371830	@ tmp180,
	ubfx	r0, r0, #20, #1	@ tmp152,,,
	cmp	r0, r5	@ tmp152, u32Disable
	movne	r4, r2	@ ret, tmp180
	moveq	r4, #0	@ ret,
	b	.L486	@
.L493:
	ldr	r3, [r6, #0]	@ g_pOTPExportFunctionList, g_pOTPExportFunctionList
	mov	ip, #16	@ tmp156,
	str	r2, [fp, #-36]	@ tmp145, PV_1.u32
	mov	r0, #4	@,
	strb	ip, [fp, #-34]	@ tmp156,
	ldr	r1, [fp, #-36]	@, PV_1.u32
	ldr	r4, [r3, #8]	@ <variable>.HAL_OTP_V200_Write, <variable>.HAL_OTP_V200_Write
	blx	r4	@ <variable>.HAL_OTP_V200_Write
	subs	r4, r0, #0	@ ret,
	beq	.L489	@,
	mov	r0, r5	@, u32Disable
	mov	r1, #97	@,
	ldr	r2, .L494	@,
	movw	r3, #6639	@,
	movw	lr, #:lower16:.LC0	@ tmp164,
	movt	lr, #:upper16:.LC0	@ tmp164,
	str	lr, [sp, #0]	@ tmp164,
	bl	HI_LogOut	@
	b	.L486	@
.L495:
	.align	2
.L494:
	.word	.LANCHOR0+568
	.fnend
	.size	DRV_CA_OTP_V200_SetRuntimeCheckEn, .-DRV_CA_OTP_V200_SetRuntimeCheckEn
	.align	2
	.global	DRV_CA_OTP_V200_SetOtpGlobalLockEn
	.type	DRV_CA_OTP_V200_SetOtpGlobalLockEn, %function
DRV_CA_OTP_V200_SetOtpGlobalLockEn:
	.fnstart
.LFB967:
	@ args = 0, pretend = 0, frame = 0
	@ frame_needed = 1, uses_anonymous_args = 0
	.movsp ip
	mov	ip, sp	@,
	stmfd	sp!, {r4, r5, r6, fp, ip, lr, pc}	@,
	.pad #4
	.save {r4, r5, r6, fp, ip, lr}
	.setfp fp, ip, #-4
	sub	fp, ip, #4	@,,
	.pad #12
	sub	sp, sp, #12	@,,
	push	{lr}
	bl	__gnu_mcount_nc
	cmp	r0, #1	@ u32Enable,
	mov	r5, r0	@ u32Enable, u32Enable
	movwhi	r4, #:lower16:-2142371835	@ ret,
	movthi	r4, #:upper16:-2142371835	@ ret,
	bls	.L503	@,
.L498:
	mov	r0, r4	@, ret
	sub	sp, fp, #24
	ldmfd	sp, {r4, r5, r6, fp, sp, pc}
.L503:
	movw	r6, #:lower16:g_pOTPExportFunctionList	@ tmp167,
	movt	r6, #:upper16:g_pOTPExportFunctionList	@ tmp167,
	mov	r0, #8	@,
	ldr	r2, [r6, #0]	@ g_pOTPExportFunctionList, g_pOTPExportFunctionList
	ldr	r3, [r2, #0]	@ <variable>.HAL_OTP_V200_Read, <variable>.HAL_OTP_V200_Read
	blx	r3	@ <variable>.HAL_OTP_V200_Read
	mov	r1, r0, lsr #24	@ tmp143,,
	and	r0, r1, #128	@ tmp145, tmp143,
	uxtb	r0, r0	@ tmp146, tmp145
	cmp	r0, #0	@ tmp146,
	bne	.L504	@,
	cmp	r5, #1	@ u32Enable,
	beq	.L505	@,
.L501:
	ldr	r4, [r6, #0]	@ g_pOTPExportFunctionList, g_pOTPExportFunctionList
	mov	r0, #8	@,
	mov	r1, #-2147483648	@,
	ldr	r2, [r4, #8]	@ <variable>.HAL_OTP_V200_Write, <variable>.HAL_OTP_V200_Write
	blx	r2	@ <variable>.HAL_OTP_V200_Write
	subs	r4, r0, #0	@ ret,
	beq	.L498	@,
	mov	r0, #1	@,
	mov	r1, #97	@,
	ldr	r2, .L506	@,
	movw	r3, #6597	@,
	movw	lr, #:lower16:.LC0	@ tmp165,
	movt	lr, #:upper16:.LC0	@ tmp165,
	str	lr, [sp, #0]	@ tmp165,
	bl	HI_LogOut	@
	b	.L498	@
.L504:
	ldr	ip, [r6, #0]	@ g_pOTPExportFunctionList, g_pOTPExportFunctionList
	mov	r0, #0	@,
	ldr	r4, [ip, #0]	@ <variable>.HAL_OTP_V200_Read, <variable>.HAL_OTP_V200_Read
	blx	r4	@ <variable>.HAL_OTP_V200_Read
	movw	r4, #:lower16:-2142371830	@ tmp169,
	movt	r4, #:upper16:-2142371830	@ tmp169,
	cmp	r5, r0, lsr #31	@ u32Enable,,
	moveq	r4, #0	@, ret,
	b	.L498	@
.L505:
	ldr	lr, [r6, #0]	@ g_pOTPExportFunctionList, g_pOTPExportFunctionList
	mov	r1, #-2147483648	@,
	ldr	r3, [lr, #8]	@ <variable>.HAL_OTP_V200_Write, <variable>.HAL_OTP_V200_Write
	blx	r3	@ <variable>.HAL_OTP_V200_Write
	subs	r4, r0, #0	@ ret,
	beq	.L501	@,
	mov	r0, r5	@, u32Enable
	mov	r1, #97	@,
	ldr	r2, .L506	@,
	movw	r3, #6586	@,
	movw	ip, #:lower16:.LC0	@ tmp158,
	movt	ip, #:upper16:.LC0	@ tmp158,
	str	ip, [sp, #0]	@ tmp158,
	bl	HI_LogOut	@
	b	.L498	@
.L507:
	.align	2
.L506:
	.word	.LANCHOR0+604
	.fnend
	.size	DRV_CA_OTP_V200_SetOtpGlobalLockEn, .-DRV_CA_OTP_V200_SetOtpGlobalLockEn
	.align	2
	.global	DRV_CA_OTP_V200_SetTSCSA3HardonlyEn
	.type	DRV_CA_OTP_V200_SetTSCSA3HardonlyEn, %function
DRV_CA_OTP_V200_SetTSCSA3HardonlyEn:
	.fnstart
.LFB963:
	@ args = 0, pretend = 0, frame = 0
	@ frame_needed = 1, uses_anonymous_args = 0
	.movsp ip
	mov	ip, sp	@,
	stmfd	sp!, {r4, r5, r6, fp, ip, lr, pc}	@,
	.pad #4
	.save {r4, r5, r6, fp, ip, lr}
	.setfp fp, ip, #-4
	sub	fp, ip, #4	@,,
	.pad #12
	sub	sp, sp, #12	@,,
	push	{lr}
	bl	__gnu_mcount_nc
	cmp	r0, #1	@ u32Enable,
	mov	r5, r0	@ u32Enable, u32Enable
	movwhi	r4, #:lower16:-2142371835	@ ret,
	movthi	r4, #:upper16:-2142371835	@ ret,
	bls	.L515	@,
.L510:
	mov	r0, r4	@, ret
	sub	sp, fp, #24
	ldmfd	sp, {r4, r5, r6, fp, sp, pc}
.L515:
	movw	r6, #:lower16:g_pOTPExportFunctionList	@ tmp167,
	movt	r6, #:upper16:g_pOTPExportFunctionList	@ tmp167,
	mov	r0, #8	@,
	ldr	r2, [r6, #0]	@ g_pOTPExportFunctionList, g_pOTPExportFunctionList
	ldr	r3, [r2, #0]	@ <variable>.HAL_OTP_V200_Read, <variable>.HAL_OTP_V200_Read
	blx	r3	@ <variable>.HAL_OTP_V200_Read
	ubfx	r1, r0, #8, #8	@ tmp143,,,
	and	r0, r1, #64	@ tmp145, tmp143,
	uxtb	r0, r0	@ tmp146, tmp145
	cmp	r0, #0	@ tmp146,
	bne	.L516	@,
	cmp	r5, #1	@ u32Enable,
	beq	.L517	@,
.L513:
	ldr	lr, [r6, #0]	@ g_pOTPExportFunctionList, g_pOTPExportFunctionList
	mov	r0, #8	@,
	mov	r1, #16384	@,
	ldr	r2, [lr, #8]	@ <variable>.HAL_OTP_V200_Write, <variable>.HAL_OTP_V200_Write
	blx	r2	@ <variable>.HAL_OTP_V200_Write
	subs	r4, r0, #0	@ ret,
	beq	.L510	@,
	mov	r0, #1	@,
	mov	r1, #97	@,
	ldr	r2, .L518	@,
	movw	r3, #6340	@,
	movw	ip, #:lower16:.LC0	@ tmp165,
	movt	ip, #:upper16:.LC0	@ tmp165,
	str	ip, [sp, #0]	@ tmp165,
	bl	HI_LogOut	@
	b	.L510	@
.L516:
	ldr	lr, [r6, #0]	@ g_pOTPExportFunctionList, g_pOTPExportFunctionList
	mov	r0, #0	@,
	ldr	r1, [lr, #0]	@ <variable>.HAL_OTP_V200_Read, <variable>.HAL_OTP_V200_Read
	blx	r1	@ <variable>.HAL_OTP_V200_Read
	movw	ip, #:lower16:-2142371830	@ tmp169,
	movt	ip, #:upper16:-2142371830	@ tmp169,
	ubfx	r0, r0, #14, #1	@ tmp151,,,
	cmp	r0, r5	@ tmp151, u32Enable
	movne	r4, ip	@ ret, tmp169
	moveq	r4, #0	@ ret,
	b	.L510	@
.L517:
	ldr	r3, [r6, #0]	@ g_pOTPExportFunctionList, g_pOTPExportFunctionList
	mov	r1, #16384	@,
	ldr	r4, [r3, #8]	@ <variable>.HAL_OTP_V200_Write, <variable>.HAL_OTP_V200_Write
	blx	r4	@ <variable>.HAL_OTP_V200_Write
	subs	r4, r0, #0	@ ret,
	beq	.L513	@,
	mov	r0, r5	@, u32Enable
	mov	r1, #97	@,
	ldr	r2, .L518	@,
	movw	r3, #6329	@,
	movw	ip, #:lower16:.LC0	@ tmp158,
	movt	ip, #:upper16:.LC0	@ tmp158,
	str	ip, [sp, #0]	@ tmp158,
	bl	HI_LogOut	@
	b	.L510	@
.L519:
	.align	2
.L518:
	.word	.LANCHOR0+640
	.fnend
	.size	DRV_CA_OTP_V200_SetTSCSA3HardonlyEn, .-DRV_CA_OTP_V200_SetTSCSA3HardonlyEn
	.align	2
	.global	DRV_CA_OTP_V200_SetTSNVHardonlyEn
	.type	DRV_CA_OTP_V200_SetTSNVHardonlyEn, %function
DRV_CA_OTP_V200_SetTSNVHardonlyEn:
	.fnstart
.LFB962:
	@ args = 0, pretend = 0, frame = 0
	@ frame_needed = 1, uses_anonymous_args = 0
	.movsp ip
	mov	ip, sp	@,
	stmfd	sp!, {r4, r5, r6, fp, ip, lr, pc}	@,
	.pad #4
	.save {r4, r5, r6, fp, ip, lr}
	.setfp fp, ip, #-4
	sub	fp, ip, #4	@,,
	.pad #12
	sub	sp, sp, #12	@,,
	push	{lr}
	bl	__gnu_mcount_nc
	cmp	r0, #1	@ u32Enable,
	mov	r5, r0	@ u32Enable, u32Enable
	movwhi	r4, #:lower16:-2142371835	@ ret,
	movthi	r4, #:upper16:-2142371835	@ ret,
	bls	.L527	@,
.L522:
	mov	r0, r4	@, ret
	sub	sp, fp, #24
	ldmfd	sp, {r4, r5, r6, fp, sp, pc}
.L527:
	movw	r6, #:lower16:g_pOTPExportFunctionList	@ tmp167,
	movt	r6, #:upper16:g_pOTPExportFunctionList	@ tmp167,
	mov	r0, #8	@,
	ldr	r2, [r6, #0]	@ g_pOTPExportFunctionList, g_pOTPExportFunctionList
	ldr	r3, [r2, #0]	@ <variable>.HAL_OTP_V200_Read, <variable>.HAL_OTP_V200_Read
	blx	r3	@ <variable>.HAL_OTP_V200_Read
	ubfx	r1, r0, #8, #8	@ tmp143,,,
	and	r0, r1, #32	@ tmp145, tmp143,
	uxtb	r0, r0	@ tmp146, tmp145
	cmp	r0, #0	@ tmp146,
	bne	.L528	@,
	cmp	r5, #1	@ u32Enable,
	beq	.L529	@,
.L525:
	ldr	lr, [r6, #0]	@ g_pOTPExportFunctionList, g_pOTPExportFunctionList
	mov	r0, #8	@,
	mov	r1, #8192	@,
	ldr	r2, [lr, #8]	@ <variable>.HAL_OTP_V200_Write, <variable>.HAL_OTP_V200_Write
	blx	r2	@ <variable>.HAL_OTP_V200_Write
	subs	r4, r0, #0	@ ret,
	beq	.L522	@,
	mov	r0, #1	@,
	mov	r1, #97	@,
	ldr	r2, .L530	@,
	movw	r3, #6287	@,
	movw	ip, #:lower16:.LC0	@ tmp165,
	movt	ip, #:upper16:.LC0	@ tmp165,
	str	ip, [sp, #0]	@ tmp165,
	bl	HI_LogOut	@
	b	.L522	@
.L528:
	ldr	lr, [r6, #0]	@ g_pOTPExportFunctionList, g_pOTPExportFunctionList
	mov	r0, #0	@,
	ldr	r1, [lr, #0]	@ <variable>.HAL_OTP_V200_Read, <variable>.HAL_OTP_V200_Read
	blx	r1	@ <variable>.HAL_OTP_V200_Read
	movw	ip, #:lower16:-2142371830	@ tmp169,
	movt	ip, #:upper16:-2142371830	@ tmp169,
	ubfx	r0, r0, #13, #1	@ tmp151,,,
	cmp	r0, r5	@ tmp151, u32Enable
	movne	r4, ip	@ ret, tmp169
	moveq	r4, #0	@ ret,
	b	.L522	@
.L529:
	ldr	r3, [r6, #0]	@ g_pOTPExportFunctionList, g_pOTPExportFunctionList
	mov	r1, #8192	@,
	ldr	r4, [r3, #8]	@ <variable>.HAL_OTP_V200_Write, <variable>.HAL_OTP_V200_Write
	blx	r4	@ <variable>.HAL_OTP_V200_Write
	subs	r4, r0, #0	@ ret,
	beq	.L525	@,
	mov	r0, r5	@, u32Enable
	mov	r1, #97	@,
	ldr	r2, .L530	@,
	movw	r3, #6276	@,
	movw	ip, #:lower16:.LC0	@ tmp158,
	movt	ip, #:upper16:.LC0	@ tmp158,
	str	ip, [sp, #0]	@ tmp158,
	bl	HI_LogOut	@
	b	.L522	@
.L531:
	.align	2
.L530:
	.word	.LANCHOR0+676
	.fnend
	.size	DRV_CA_OTP_V200_SetTSNVHardonlyEn, .-DRV_CA_OTP_V200_SetTSNVHardonlyEn
	.align	2
	.global	DRV_CA_OTP_V200_SetTSSPEHardonlyEn
	.type	DRV_CA_OTP_V200_SetTSSPEHardonlyEn, %function
DRV_CA_OTP_V200_SetTSSPEHardonlyEn:
	.fnstart
.LFB960:
	@ args = 0, pretend = 0, frame = 0
	@ frame_needed = 1, uses_anonymous_args = 0
	.movsp ip
	mov	ip, sp	@,
	stmfd	sp!, {r4, r5, r6, fp, ip, lr, pc}	@,
	.pad #4
	.save {r4, r5, r6, fp, ip, lr}
	.setfp fp, ip, #-4
	sub	fp, ip, #4	@,,
	.pad #12
	sub	sp, sp, #12	@,,
	push	{lr}
	bl	__gnu_mcount_nc
	cmp	r0, #1	@ u32Enable,
	mov	r5, r0	@ u32Enable, u32Enable
	movwhi	r4, #:lower16:-2142371835	@ ret,
	movthi	r4, #:upper16:-2142371835	@ ret,
	bls	.L539	@,
.L534:
	mov	r0, r4	@, ret
	sub	sp, fp, #24
	ldmfd	sp, {r4, r5, r6, fp, sp, pc}
.L539:
	movw	r6, #:lower16:g_pOTPExportFunctionList	@ tmp167,
	movt	r6, #:upper16:g_pOTPExportFunctionList	@ tmp167,
	mov	r0, #8	@,
	ldr	r2, [r6, #0]	@ g_pOTPExportFunctionList, g_pOTPExportFunctionList
	ldr	r3, [r2, #0]	@ <variable>.HAL_OTP_V200_Read, <variable>.HAL_OTP_V200_Read
	blx	r3	@ <variable>.HAL_OTP_V200_Read
	ubfx	r1, r0, #8, #8	@ tmp143,,,
	and	r0, r1, #8	@ tmp145, tmp143,
	uxtb	r0, r0	@ tmp146, tmp145
	cmp	r0, #0	@ tmp146,
	bne	.L540	@,
	cmp	r5, #1	@ u32Enable,
	beq	.L541	@,
.L537:
	ldr	lr, [r6, #0]	@ g_pOTPExportFunctionList, g_pOTPExportFunctionList
	mov	r0, #8	@,
	mov	r1, #2048	@,
	ldr	r2, [lr, #8]	@ <variable>.HAL_OTP_V200_Write, <variable>.HAL_OTP_V200_Write
	blx	r2	@ <variable>.HAL_OTP_V200_Write
	subs	r4, r0, #0	@ ret,
	beq	.L534	@,
	mov	r0, #1	@,
	mov	r1, #97	@,
	ldr	r2, .L542	@,
	movw	r3, #6166	@,
	movw	ip, #:lower16:.LC0	@ tmp165,
	movt	ip, #:upper16:.LC0	@ tmp165,
	str	ip, [sp, #0]	@ tmp165,
	bl	HI_LogOut	@
	b	.L534	@
.L540:
	ldr	lr, [r6, #0]	@ g_pOTPExportFunctionList, g_pOTPExportFunctionList
	mov	r0, #0	@,
	ldr	r1, [lr, #0]	@ <variable>.HAL_OTP_V200_Read, <variable>.HAL_OTP_V200_Read
	blx	r1	@ <variable>.HAL_OTP_V200_Read
	movw	ip, #:lower16:-2142371830	@ tmp169,
	movt	ip, #:upper16:-2142371830	@ tmp169,
	ubfx	r0, r0, #11, #1	@ tmp151,,,
	cmp	r0, r5	@ tmp151, u32Enable
	movne	r4, ip	@ ret, tmp169
	moveq	r4, #0	@ ret,
	b	.L534	@
.L541:
	ldr	r3, [r6, #0]	@ g_pOTPExportFunctionList, g_pOTPExportFunctionList
	mov	r1, #2048	@,
	ldr	r4, [r3, #8]	@ <variable>.HAL_OTP_V200_Write, <variable>.HAL_OTP_V200_Write
	blx	r4	@ <variable>.HAL_OTP_V200_Write
	subs	r4, r0, #0	@ ret,
	beq	.L537	@,
	mov	r0, r5	@, u32Enable
	mov	r1, #97	@,
	ldr	r2, .L542	@,
	movw	r3, #6155	@,
	movw	ip, #:lower16:.LC0	@ tmp158,
	movt	ip, #:upper16:.LC0	@ tmp158,
	str	ip, [sp, #0]	@ tmp158,
	bl	HI_LogOut	@
	b	.L534	@
.L543:
	.align	2
.L542:
	.word	.LANCHOR0+712
	.fnend
	.size	DRV_CA_OTP_V200_SetTSSPEHardonlyEn, .-DRV_CA_OTP_V200_SetTSSPEHardonlyEn
	.align	2
	.global	DRV_CA_OTP_V200_SetTSCsa2HardonlyEn
	.type	DRV_CA_OTP_V200_SetTSCsa2HardonlyEn, %function
DRV_CA_OTP_V200_SetTSCsa2HardonlyEn:
	.fnstart
.LFB959:
	@ args = 0, pretend = 0, frame = 0
	@ frame_needed = 1, uses_anonymous_args = 0
	.movsp ip
	mov	ip, sp	@,
	stmfd	sp!, {r4, r5, r6, fp, ip, lr, pc}	@,
	.pad #4
	.save {r4, r5, r6, fp, ip, lr}
	.setfp fp, ip, #-4
	sub	fp, ip, #4	@,,
	.pad #12
	sub	sp, sp, #12	@,,
	push	{lr}
	bl	__gnu_mcount_nc
	cmp	r0, #1	@ u32Enable,
	mov	r5, r0	@ u32Enable, u32Enable
	movwhi	r4, #:lower16:-2142371835	@ ret,
	movthi	r4, #:upper16:-2142371835	@ ret,
	bls	.L551	@,
.L546:
	mov	r0, r4	@, ret
	sub	sp, fp, #24
	ldmfd	sp, {r4, r5, r6, fp, sp, pc}
.L551:
	movw	r6, #:lower16:g_pOTPExportFunctionList	@ tmp167,
	movt	r6, #:upper16:g_pOTPExportFunctionList	@ tmp167,
	mov	r0, #8	@,
	ldr	r2, [r6, #0]	@ g_pOTPExportFunctionList, g_pOTPExportFunctionList
	ldr	r3, [r2, #0]	@ <variable>.HAL_OTP_V200_Read, <variable>.HAL_OTP_V200_Read
	blx	r3	@ <variable>.HAL_OTP_V200_Read
	ubfx	r1, r0, #8, #8	@ tmp143,,,
	and	r0, r1, #4	@ tmp145, tmp143,
	uxtb	r0, r0	@ tmp146, tmp145
	cmp	r0, #0	@ tmp146,
	bne	.L552	@,
	cmp	r5, #1	@ u32Enable,
	beq	.L553	@,
.L549:
	ldr	lr, [r6, #0]	@ g_pOTPExportFunctionList, g_pOTPExportFunctionList
	mov	r0, #8	@,
	mov	r1, #1024	@,
	ldr	r2, [lr, #8]	@ <variable>.HAL_OTP_V200_Write, <variable>.HAL_OTP_V200_Write
	blx	r2	@ <variable>.HAL_OTP_V200_Write
	subs	r4, r0, #0	@ ret,
	beq	.L546	@,
	mov	r0, #1	@,
	mov	r1, #97	@,
	ldr	r2, .L554	@,
	movw	r3, #6113	@,
	movw	ip, #:lower16:.LC0	@ tmp165,
	movt	ip, #:upper16:.LC0	@ tmp165,
	str	ip, [sp, #0]	@ tmp165,
	bl	HI_LogOut	@
	b	.L546	@
.L552:
	ldr	lr, [r6, #0]	@ g_pOTPExportFunctionList, g_pOTPExportFunctionList
	mov	r0, #0	@,
	ldr	r1, [lr, #0]	@ <variable>.HAL_OTP_V200_Read, <variable>.HAL_OTP_V200_Read
	blx	r1	@ <variable>.HAL_OTP_V200_Read
	movw	ip, #:lower16:-2142371830	@ tmp169,
	movt	ip, #:upper16:-2142371830	@ tmp169,
	ubfx	r0, r0, #10, #1	@ tmp151,,,
	cmp	r0, r5	@ tmp151, u32Enable
	movne	r4, ip	@ ret, tmp169
	moveq	r4, #0	@ ret,
	b	.L546	@
.L553:
	ldr	r3, [r6, #0]	@ g_pOTPExportFunctionList, g_pOTPExportFunctionList
	mov	r1, #1024	@,
	ldr	r4, [r3, #8]	@ <variable>.HAL_OTP_V200_Write, <variable>.HAL_OTP_V200_Write
	blx	r4	@ <variable>.HAL_OTP_V200_Write
	subs	r4, r0, #0	@ ret,
	beq	.L549	@,
	mov	r0, r5	@, u32Enable
	mov	r1, #97	@,
	ldr	r2, .L554	@,
	movw	r3, #6102	@,
	movw	ip, #:lower16:.LC0	@ tmp158,
	movt	ip, #:upper16:.LC0	@ tmp158,
	str	ip, [sp, #0]	@ tmp158,
	bl	HI_LogOut	@
	b	.L546	@
.L555:
	.align	2
.L554:
	.word	.LANCHOR0+748
	.fnend
	.size	DRV_CA_OTP_V200_SetTSCsa2HardonlyEn, .-DRV_CA_OTP_V200_SetTSCsa2HardonlyEn
	.align	2
	.global	DRV_CA_OTP_V200_SetBloadDecEn
	.type	DRV_CA_OTP_V200_SetBloadDecEn, %function
DRV_CA_OTP_V200_SetBloadDecEn:
	.fnstart
.LFB958:
	@ args = 0, pretend = 0, frame = 0
	@ frame_needed = 1, uses_anonymous_args = 0
	.movsp ip
	mov	ip, sp	@,
	stmfd	sp!, {r4, r5, r6, fp, ip, lr, pc}	@,
	.pad #4
	.save {r4, r5, r6, fp, ip, lr}
	.setfp fp, ip, #-4
	sub	fp, ip, #4	@,,
	.pad #12
	sub	sp, sp, #12	@,,
	push	{lr}
	bl	__gnu_mcount_nc
	cmp	r0, #1	@ u32Enable,
	mov	r5, r0	@ u32Enable, u32Enable
	movwhi	r4, #:lower16:-2142371835	@ ret,
	movthi	r4, #:upper16:-2142371835	@ ret,
	bls	.L563	@,
.L558:
	mov	r0, r4	@, ret
	sub	sp, fp, #24
	ldmfd	sp, {r4, r5, r6, fp, sp, pc}
.L563:
	movw	r6, #:lower16:g_pOTPExportFunctionList	@ tmp167,
	movt	r6, #:upper16:g_pOTPExportFunctionList	@ tmp167,
	mov	r0, #8	@,
	ldr	r1, [r6, #0]	@ g_pOTPExportFunctionList, g_pOTPExportFunctionList
	ldr	r3, [r1, #0]	@ <variable>.HAL_OTP_V200_Read, <variable>.HAL_OTP_V200_Read
	blx	r3	@ <variable>.HAL_OTP_V200_Read
	and	r0, r0, #4	@ tmp145,,
	uxtb	r0, r0	@ tmp146, tmp145
	cmp	r0, #0	@ tmp146,
	bne	.L564	@,
	cmp	r5, #1	@ u32Enable,
	beq	.L565	@,
.L561:
	ldr	lr, [r6, #0]	@ g_pOTPExportFunctionList, g_pOTPExportFunctionList
	mov	r0, #8	@,
	mov	r1, #4	@,
	ldr	r3, [lr, #8]	@ <variable>.HAL_OTP_V200_Write, <variable>.HAL_OTP_V200_Write
	blx	r3	@ <variable>.HAL_OTP_V200_Write
	subs	r4, r0, #0	@ ret,
	beq	.L558	@,
	mov	r0, #1	@,
	mov	r1, #97	@,
	ldr	r2, .L566	@,
	movw	r3, #6060	@,
	movw	ip, #:lower16:.LC0	@ tmp165,
	movt	ip, #:upper16:.LC0	@ tmp165,
	str	ip, [sp, #0]	@ tmp165,
	bl	HI_LogOut	@
	b	.L558	@
.L564:
	ldr	lr, [r6, #0]	@ g_pOTPExportFunctionList, g_pOTPExportFunctionList
	mov	r0, #0	@,
	ldr	r3, [lr, #0]	@ <variable>.HAL_OTP_V200_Read, <variable>.HAL_OTP_V200_Read
	blx	r3	@ <variable>.HAL_OTP_V200_Read
	movw	r2, #:lower16:-2142371830	@ tmp169,
	movt	r2, #:upper16:-2142371830	@ tmp169,
	ubfx	ip, r0, #2, #1	@ tmp151,,,
	cmp	ip, r5	@ tmp151, u32Enable
	movne	r4, r2	@ ret, tmp169
	moveq	r4, #0	@ ret,
	b	.L558	@
.L565:
	ldr	r2, [r6, #0]	@ g_pOTPExportFunctionList, g_pOTPExportFunctionList
	mov	r1, #4	@,
	ldr	r4, [r2, #8]	@ <variable>.HAL_OTP_V200_Write, <variable>.HAL_OTP_V200_Write
	blx	r4	@ <variable>.HAL_OTP_V200_Write
	subs	r4, r0, #0	@ ret,
	beq	.L561	@,
	mov	r0, r5	@, u32Enable
	mov	r1, #97	@,
	ldr	r2, .L566	@,
	movw	r3, #6049	@,
	movw	ip, #:lower16:.LC0	@ tmp158,
	movt	ip, #:upper16:.LC0	@ tmp158,
	str	ip, [sp, #0]	@ tmp158,
	bl	HI_LogOut	@
	b	.L558	@
.L567:
	.align	2
.L566:
	.word	.LANCHOR0+784
	.fnend
	.size	DRV_CA_OTP_V200_SetBloadDecEn, .-DRV_CA_OTP_V200_SetBloadDecEn
	.align	2
	.global	DRV_CA_OTP_V200_SetBloadEncDisable
	.type	DRV_CA_OTP_V200_SetBloadEncDisable, %function
DRV_CA_OTP_V200_SetBloadEncDisable:
	.fnstart
.LFB956:
	@ args = 0, pretend = 0, frame = 16
	@ frame_needed = 1, uses_anonymous_args = 0
	.movsp ip
	mov	ip, sp	@,
	stmfd	sp!, {r4, r5, r6, fp, ip, lr, pc}	@,
	.pad #4
	.save {r4, r5, r6, fp, ip, lr}
	.setfp fp, ip, #-4
	sub	fp, ip, #4	@,,
	.pad #28
	sub	sp, sp, #28	@,,
	push	{lr}
	bl	__gnu_mcount_nc
	cmp	r0, #1	@ u32Disable,
	mov	r5, r0	@ u32Disable, u32Disable
	movwhi	r4, #:lower16:-2142371835	@ ret,
	movthi	r4, #:upper16:-2142371835	@ ret,
	bls	.L575	@,
.L570:
	mov	r0, r4	@, ret
	sub	sp, fp, #24
	ldmfd	sp, {r4, r5, r6, fp, sp, pc}
.L575:
	movw	r6, #:lower16:g_pOTPExportFunctionList	@ tmp178,
	movt	r6, #:upper16:g_pOTPExportFunctionList	@ tmp178,
	mov	r0, #12	@,
	ldr	ip, [r6, #0]	@ g_pOTPExportFunctionList, g_pOTPExportFunctionList
	ldr	r3, [ip, #0]	@ <variable>.HAL_OTP_V200_Read, <variable>.HAL_OTP_V200_Read
	blx	r3	@ <variable>.HAL_OTP_V200_Read
	ubfx	r1, r0, #16, #8	@ tmp142, D.23807,,
	str	r0, [fp, #-44]	@ D.23807, PVLOCK_1.u32
	and	r2, r1, #8	@ tmp144, tmp142,
	uxtb	r2, r2	@ tmp145, tmp144
	cmp	r2, #0	@ tmp145,
	bne	.L576	@,
	cmp	r5, #1	@ u32Disable,
	beq	.L577	@,
.L573:
	ldr	r1, [r6, #0]	@ g_pOTPExportFunctionList, g_pOTPExportFunctionList
	mov	r4, #0	@ tmp165,
	mov	r0, #8	@ tmp168,
	str	r4, [fp, #-44]	@ tmp165, PVLOCK_1.u32
	strb	r0, [fp, #-42]	@ tmp168,
	mov	r0, #12	@,
	ldr	r2, [r1, #8]	@ <variable>.HAL_OTP_V200_Write, <variable>.HAL_OTP_V200_Write
	ldr	r1, [fp, #-44]	@, PVLOCK_1.u32
	blx	r2	@ <variable>.HAL_OTP_V200_Write
	subs	r4, r0, #0	@ ret,
	beq	.L570	@,
	mov	r0, #1	@,
	mov	r1, #97	@,
	ldr	r2, .L578	@,
	movw	r3, #5939	@,
	movw	ip, #:lower16:.LC0	@ tmp176,
	movt	ip, #:upper16:.LC0	@ tmp176,
	str	ip, [sp, #0]	@ tmp176,
	bl	HI_LogOut	@
	b	.L570	@
.L576:
	ldr	lr, [r6, #0]	@ g_pOTPExportFunctionList, g_pOTPExportFunctionList
	mov	r0, #4	@,
	ldr	r1, [lr, #0]	@ <variable>.HAL_OTP_V200_Read, <variable>.HAL_OTP_V200_Read
	blx	r1	@ <variable>.HAL_OTP_V200_Read
	movw	r2, #:lower16:-2142371830	@ tmp180,
	movt	r2, #:upper16:-2142371830	@ tmp180,
	ubfx	r0, r0, #19, #1	@ tmp152,,,
	cmp	r0, r5	@ tmp152, u32Disable
	movne	r4, r2	@ ret, tmp180
	moveq	r4, #0	@ ret,
	b	.L570	@
.L577:
	ldr	r3, [r6, #0]	@ g_pOTPExportFunctionList, g_pOTPExportFunctionList
	mov	ip, #8	@ tmp156,
	str	r2, [fp, #-36]	@ tmp145, PV_1.u32
	mov	r0, #4	@,
	strb	ip, [fp, #-34]	@ tmp156,
	ldr	r1, [fp, #-36]	@, PV_1.u32
	ldr	r4, [r3, #8]	@ <variable>.HAL_OTP_V200_Write, <variable>.HAL_OTP_V200_Write
	blx	r4	@ <variable>.HAL_OTP_V200_Write
	subs	r4, r0, #0	@ ret,
	beq	.L573	@,
	mov	r0, r5	@, u32Disable
	mov	r1, #97	@,
	ldr	r2, .L578	@,
	movw	r3, #5928	@,
	movw	lr, #:lower16:.LC0	@ tmp164,
	movt	lr, #:upper16:.LC0	@ tmp164,
	str	lr, [sp, #0]	@ tmp164,
	bl	HI_LogOut	@
	b	.L570	@
.L579:
	.align	2
.L578:
	.word	.LANCHOR0+816
	.fnend
	.size	DRV_CA_OTP_V200_SetBloadEncDisable, .-DRV_CA_OTP_V200_SetBloadEncDisable
	.align	2
	.global	DRV_CA_OTP_V200_SetDcasKLDisable
	.type	DRV_CA_OTP_V200_SetDcasKLDisable, %function
DRV_CA_OTP_V200_SetDcasKLDisable:
	.fnstart
.LFB955:
	@ args = 0, pretend = 0, frame = 16
	@ frame_needed = 1, uses_anonymous_args = 0
	.movsp ip
	mov	ip, sp	@,
	stmfd	sp!, {r4, r5, r6, fp, ip, lr, pc}	@,
	.pad #4
	.save {r4, r5, r6, fp, ip, lr}
	.setfp fp, ip, #-4
	sub	fp, ip, #4	@,,
	.pad #28
	sub	sp, sp, #28	@,,
	push	{lr}
	bl	__gnu_mcount_nc
	cmp	r0, #1	@ u32Disable,
	mov	r5, r0	@ u32Disable, u32Disable
	movwhi	r4, #:lower16:-2142371835	@ ret,
	movthi	r4, #:upper16:-2142371835	@ ret,
	bls	.L587	@,
.L582:
	mov	r0, r4	@, ret
	sub	sp, fp, #24
	ldmfd	sp, {r4, r5, r6, fp, sp, pc}
.L587:
	movw	r6, #:lower16:g_pOTPExportFunctionList	@ tmp178,
	movt	r6, #:upper16:g_pOTPExportFunctionList	@ tmp178,
	mov	r0, #12	@,
	ldr	r1, [r6, #0]	@ g_pOTPExportFunctionList, g_pOTPExportFunctionList
	ldr	r3, [r1, #0]	@ <variable>.HAL_OTP_V200_Read, <variable>.HAL_OTP_V200_Read
	blx	r3	@ <variable>.HAL_OTP_V200_Read
	and	r2, r0, #32	@ tmp144, D.23774,
	str	r0, [fp, #-44]	@ D.23774, PVLOCK_1.u32
	uxtb	r2, r2	@ tmp145, tmp144
	cmp	r2, #0	@ tmp145,
	bne	.L588	@,
	cmp	r5, #1	@ u32Disable,
	beq	.L589	@,
.L585:
	ldr	lr, [r6, #0]	@ g_pOTPExportFunctionList, g_pOTPExportFunctionList
	mov	r4, #0	@ tmp165,
	mov	r0, #32	@ tmp168,
	str	r4, [fp, #-44]	@ tmp165, PVLOCK_1.u32
	strb	r0, [fp, #-44]	@ tmp168,
	mov	r0, #12	@,
	ldr	r2, [lr, #8]	@ <variable>.HAL_OTP_V200_Write, <variable>.HAL_OTP_V200_Write
	ldr	r1, [fp, #-44]	@, PVLOCK_1.u32
	blx	r2	@ <variable>.HAL_OTP_V200_Write
	subs	r4, r0, #0	@ ret,
	beq	.L582	@,
	mov	r0, #1	@,
	mov	r1, #97	@,
	ldr	r2, .L590	@,
	movw	r3, #5886	@,
	movw	ip, #:lower16:.LC0	@ tmp176,
	movt	ip, #:upper16:.LC0	@ tmp176,
	str	ip, [sp, #0]	@ tmp176,
	bl	HI_LogOut	@
	b	.L582	@
.L588:
	ldr	lr, [r6, #0]	@ g_pOTPExportFunctionList, g_pOTPExportFunctionList
	mov	r0, #4	@,
	ldr	r2, [lr, #0]	@ <variable>.HAL_OTP_V200_Read, <variable>.HAL_OTP_V200_Read
	blx	r2	@ <variable>.HAL_OTP_V200_Read
	movw	ip, #:lower16:-2142371830	@ tmp180,
	movt	ip, #:upper16:-2142371830	@ tmp180,
	ubfx	r0, r0, #5, #1	@ tmp152,,,
	cmp	r0, r5	@ tmp152, u32Disable
	movne	r4, ip	@ ret, tmp180
	moveq	r4, #0	@ ret,
	b	.L582	@
.L589:
	ldr	r3, [r6, #0]	@ g_pOTPExportFunctionList, g_pOTPExportFunctionList
	mov	r1, #32	@ tmp156,
	str	r2, [fp, #-36]	@ tmp145, PV_1.u32
	mov	r0, #4	@,
	strb	r1, [fp, #-36]	@ tmp156,
	ldr	r1, [fp, #-36]	@, PV_1.u32
	ldr	r4, [r3, #8]	@ <variable>.HAL_OTP_V200_Write, <variable>.HAL_OTP_V200_Write
	blx	r4	@ <variable>.HAL_OTP_V200_Write
	subs	r4, r0, #0	@ ret,
	beq	.L585	@,
	mov	r0, r5	@, u32Disable
	mov	r1, #97	@,
	ldr	r2, .L590	@,
	movw	r3, #5875	@,
	movw	ip, #:lower16:.LC0	@ tmp164,
	movt	ip, #:upper16:.LC0	@ tmp164,
	str	ip, [sp, #0]	@ tmp164,
	bl	HI_LogOut	@
	b	.L582	@
.L591:
	.align	2
.L590:
	.word	.LANCHOR0+852
	.fnend
	.size	DRV_CA_OTP_V200_SetDcasKLDisable, .-DRV_CA_OTP_V200_SetDcasKLDisable
	.align	2
	.global	DRV_CA_OTP_V200_SetTSKLNVDisable
	.type	DRV_CA_OTP_V200_SetTSKLNVDisable, %function
DRV_CA_OTP_V200_SetTSKLNVDisable:
	.fnstart
.LFB953:
	@ args = 0, pretend = 0, frame = 0
	@ frame_needed = 1, uses_anonymous_args = 0
	.movsp ip
	mov	ip, sp	@,
	stmfd	sp!, {r4, r5, r6, fp, ip, lr, pc}	@,
	.pad #4
	.save {r4, r5, r6, fp, ip, lr}
	.setfp fp, ip, #-4
	sub	fp, ip, #4	@,,
	.pad #12
	sub	sp, sp, #12	@,,
	push	{lr}
	bl	__gnu_mcount_nc
	cmp	r0, #1	@ u32Disable,
	mov	r5, r0	@ u32Disable, u32Disable
	movwhi	r4, #:lower16:-2142371835	@ ret,
	movthi	r4, #:upper16:-2142371835	@ ret,
	bls	.L599	@,
.L594:
	mov	r0, r4	@, ret
	sub	sp, fp, #24
	ldmfd	sp, {r4, r5, r6, fp, sp, pc}
.L599:
	movw	r6, #:lower16:g_pOTPExportFunctionList	@ tmp167,
	movt	r6, #:upper16:g_pOTPExportFunctionList	@ tmp167,
	mov	r0, #8	@,
	ldr	r2, [r6, #0]	@ g_pOTPExportFunctionList, g_pOTPExportFunctionList
	ldr	r3, [r2, #0]	@ <variable>.HAL_OTP_V200_Read, <variable>.HAL_OTP_V200_Read
	blx	r3	@ <variable>.HAL_OTP_V200_Read
	ubfx	r1, r0, #16, #8	@ tmp143,,,
	and	r0, r1, #8	@ tmp145, tmp143,
	uxtb	r0, r0	@ tmp146, tmp145
	cmp	r0, #0	@ tmp146,
	bne	.L600	@,
	cmp	r5, #1	@ u32Disable,
	beq	.L601	@,
.L597:
	ldr	lr, [r6, #0]	@ g_pOTPExportFunctionList, g_pOTPExportFunctionList
	mov	r0, #8	@,
	mov	r1, #524288	@,
	ldr	r2, [lr, #8]	@ <variable>.HAL_OTP_V200_Write, <variable>.HAL_OTP_V200_Write
	blx	r2	@ <variable>.HAL_OTP_V200_Write
	subs	r4, r0, #0	@ ret,
	beq	.L594	@,
	mov	r0, #1	@,
	mov	r1, #97	@,
	ldr	r2, .L602	@,
	movw	r3, #5765	@,
	movw	ip, #:lower16:.LC0	@ tmp165,
	movt	ip, #:upper16:.LC0	@ tmp165,
	str	ip, [sp, #0]	@ tmp165,
	bl	HI_LogOut	@
	b	.L594	@
.L600:
	ldr	lr, [r6, #0]	@ g_pOTPExportFunctionList, g_pOTPExportFunctionList
	mov	r0, #0	@,
	ldr	r1, [lr, #0]	@ <variable>.HAL_OTP_V200_Read, <variable>.HAL_OTP_V200_Read
	blx	r1	@ <variable>.HAL_OTP_V200_Read
	movw	ip, #:lower16:-2142371830	@ tmp169,
	movt	ip, #:upper16:-2142371830	@ tmp169,
	ubfx	r0, r0, #19, #1	@ tmp151,,,
	cmp	r0, r5	@ tmp151, u32Disable
	movne	r4, ip	@ ret, tmp169
	moveq	r4, #0	@ ret,
	b	.L594	@
.L601:
	ldr	r3, [r6, #0]	@ g_pOTPExportFunctionList, g_pOTPExportFunctionList
	mov	r1, #524288	@,
	ldr	r4, [r3, #8]	@ <variable>.HAL_OTP_V200_Write, <variable>.HAL_OTP_V200_Write
	blx	r4	@ <variable>.HAL_OTP_V200_Write
	subs	r4, r0, #0	@ ret,
	beq	.L597	@,
	mov	r0, r5	@, u32Disable
	mov	r1, #97	@,
	ldr	r2, .L602	@,
	movw	r3, #5754	@,
	movw	ip, #:lower16:.LC0	@ tmp158,
	movt	ip, #:upper16:.LC0	@ tmp158,
	str	ip, [sp, #0]	@ tmp158,
	bl	HI_LogOut	@
	b	.L594	@
.L603:
	.align	2
.L602:
	.word	.LANCHOR0+888
	.fnend
	.size	DRV_CA_OTP_V200_SetTSKLNVDisable, .-DRV_CA_OTP_V200_SetTSKLNVDisable
	.align	2
	.global	DRV_CA_OTP_V200_SetLinkProtectDisable
	.type	DRV_CA_OTP_V200_SetLinkProtectDisable, %function
DRV_CA_OTP_V200_SetLinkProtectDisable:
	.fnstart
.LFB952:
	@ args = 0, pretend = 0, frame = 0
	@ frame_needed = 1, uses_anonymous_args = 0
	.movsp ip
	mov	ip, sp	@,
	stmfd	sp!, {r4, r5, r6, fp, ip, lr, pc}	@,
	.pad #4
	.save {r4, r5, r6, fp, ip, lr}
	.setfp fp, ip, #-4
	sub	fp, ip, #4	@,,
	.pad #12
	sub	sp, sp, #12	@,,
	push	{lr}
	bl	__gnu_mcount_nc
	cmp	r0, #1	@ u32Disable,
	mov	r5, r0	@ u32Disable, u32Disable
	movwhi	r4, #:lower16:-2142371835	@ ret,
	movthi	r4, #:upper16:-2142371835	@ ret,
	bls	.L611	@,
.L606:
	mov	r0, r4	@, ret
	sub	sp, fp, #24
	ldmfd	sp, {r4, r5, r6, fp, sp, pc}
.L611:
	movw	r6, #:lower16:g_pOTPExportFunctionList	@ tmp167,
	movt	r6, #:upper16:g_pOTPExportFunctionList	@ tmp167,
	mov	r0, #8	@,
	ldr	r2, [r6, #0]	@ g_pOTPExportFunctionList, g_pOTPExportFunctionList
	ldr	r3, [r2, #0]	@ <variable>.HAL_OTP_V200_Read, <variable>.HAL_OTP_V200_Read
	blx	r3	@ <variable>.HAL_OTP_V200_Read
	ubfx	r1, r0, #8, #8	@ tmp143,,,
	and	r0, r1, #2	@ tmp145, tmp143,
	uxtb	r0, r0	@ tmp146, tmp145
	cmp	r0, #0	@ tmp146,
	bne	.L612	@,
	cmp	r5, #1	@ u32Disable,
	beq	.L613	@,
.L609:
	ldr	lr, [r6, #0]	@ g_pOTPExportFunctionList, g_pOTPExportFunctionList
	mov	r0, #8	@,
	mov	r1, #512	@,
	ldr	r2, [lr, #8]	@ <variable>.HAL_OTP_V200_Write, <variable>.HAL_OTP_V200_Write
	blx	r2	@ <variable>.HAL_OTP_V200_Write
	subs	r4, r0, #0	@ ret,
	beq	.L606	@,
	mov	r0, #1	@,
	mov	r1, #97	@,
	ldr	r2, .L614	@,
	movw	r3, #5712	@,
	movw	ip, #:lower16:.LC0	@ tmp165,
	movt	ip, #:upper16:.LC0	@ tmp165,
	str	ip, [sp, #0]	@ tmp165,
	bl	HI_LogOut	@
	b	.L606	@
.L612:
	ldr	lr, [r6, #0]	@ g_pOTPExportFunctionList, g_pOTPExportFunctionList
	mov	r0, #0	@,
	ldr	r1, [lr, #0]	@ <variable>.HAL_OTP_V200_Read, <variable>.HAL_OTP_V200_Read
	blx	r1	@ <variable>.HAL_OTP_V200_Read
	movw	ip, #:lower16:-2142371830	@ tmp169,
	movt	ip, #:upper16:-2142371830	@ tmp169,
	ubfx	r0, r0, #9, #1	@ tmp151,,,
	cmp	r0, r5	@ tmp151, u32Disable
	movne	r4, ip	@ ret, tmp169
	moveq	r4, #0	@ ret,
	b	.L606	@
.L613:
	ldr	r3, [r6, #0]	@ g_pOTPExportFunctionList, g_pOTPExportFunctionList
	mov	r1, #512	@,
	ldr	r4, [r3, #8]	@ <variable>.HAL_OTP_V200_Write, <variable>.HAL_OTP_V200_Write
	blx	r4	@ <variable>.HAL_OTP_V200_Write
	subs	r4, r0, #0	@ ret,
	beq	.L609	@,
	mov	r0, r5	@, u32Disable
	mov	r1, #97	@,
	ldr	r2, .L614	@,
	movw	r3, #5701	@,
	movw	ip, #:lower16:.LC0	@ tmp158,
	movt	ip, #:upper16:.LC0	@ tmp158,
	str	ip, [sp, #0]	@ tmp158,
	bl	HI_LogOut	@
	b	.L606	@
.L615:
	.align	2
.L614:
	.word	.LANCHOR0+924
	.fnend
	.size	DRV_CA_OTP_V200_SetLinkProtectDisable, .-DRV_CA_OTP_V200_SetLinkProtectDisable
	.align	2
	.global	DRV_CA_OTP_V200_SetRigthCtrlEn
	.type	DRV_CA_OTP_V200_SetRigthCtrlEn, %function
DRV_CA_OTP_V200_SetRigthCtrlEn:
	.fnstart
.LFB950:
	@ args = 0, pretend = 0, frame = 0
	@ frame_needed = 1, uses_anonymous_args = 0
	.movsp ip
	mov	ip, sp	@,
	stmfd	sp!, {r4, fp, ip, lr, pc}	@,
	.pad #4
	.save {r4, fp, ip, lr}
	.setfp fp, ip, #-4
	sub	fp, ip, #4	@,,
	.pad #12
	sub	sp, sp, #12	@,,
	push	{lr}
	bl	__gnu_mcount_nc
	movw	r4, #:lower16:g_pOTPExportFunctionList	@ tmp138,
	movt	r4, #:upper16:g_pOTPExportFunctionList	@ tmp138,
	mov	r0, #24	@,
	mov	r1, #2048	@,
	ldr	r2, [r4, #0]	@ g_pOTPExportFunctionList, g_pOTPExportFunctionList
	ldr	r3, [r2, #8]	@ <variable>.HAL_OTP_V200_Write, <variable>.HAL_OTP_V200_Write
	blx	r3	@ <variable>.HAL_OTP_V200_Write
	subs	r4, r0, #0	@ ret,
	beq	.L617	@,
	mov	r0, #1	@,
	mov	r1, #97	@,
	ldr	r2, .L619	@,
	movw	r3, #5643	@,
	movw	ip, #:lower16:.LC0	@ tmp142,
	movt	ip, #:upper16:.LC0	@ tmp142,
	str	ip, [sp, #0]	@ tmp142,
	bl	HI_LogOut	@
.L617:
	mov	r0, r4	@, ret
	sub	sp, fp, #16
	ldmfd	sp, {r4, fp, sp, pc}
.L620:
	.align	2
.L619:
	.word	.LANCHOR0+964
	.fnend
	.size	DRV_CA_OTP_V200_SetRigthCtrlEn, .-DRV_CA_OTP_V200_SetRigthCtrlEn
	.align	2
	.global	DRV_CA_OTP_V200_SetDebugDisable
	.type	DRV_CA_OTP_V200_SetDebugDisable, %function
DRV_CA_OTP_V200_SetDebugDisable:
	.fnstart
.LFB948:
	@ args = 0, pretend = 0, frame = 0
	@ frame_needed = 1, uses_anonymous_args = 0
	.movsp ip
	mov	ip, sp	@,
	stmfd	sp!, {r4, fp, ip, lr, pc}	@,
	.pad #4
	.save {r4, fp, ip, lr}
	.setfp fp, ip, #-4
	sub	fp, ip, #4	@,,
	.pad #12
	sub	sp, sp, #12	@,,
	push	{lr}
	bl	__gnu_mcount_nc
	movw	r4, #:lower16:g_pOTPExportFunctionList	@ tmp138,
	movt	r4, #:upper16:g_pOTPExportFunctionList	@ tmp138,
	mov	r0, #24	@,
	mov	r1, #512	@,
	ldr	r2, [r4, #0]	@ g_pOTPExportFunctionList, g_pOTPExportFunctionList
	ldr	r3, [r2, #8]	@ <variable>.HAL_OTP_V200_Write, <variable>.HAL_OTP_V200_Write
	blx	r3	@ <variable>.HAL_OTP_V200_Write
	subs	r4, r0, #0	@ ret,
	beq	.L622	@,
	mov	r0, #1	@,
	mov	r1, #97	@,
	ldr	r2, .L624	@,
	movw	r3, #5608	@,
	movw	ip, #:lower16:.LC0	@ tmp142,
	movt	ip, #:upper16:.LC0	@ tmp142,
	str	ip, [sp, #0]	@ tmp142,
	bl	HI_LogOut	@
.L622:
	mov	r0, r4	@, ret
	sub	sp, fp, #16
	ldmfd	sp, {r4, fp, sp, pc}
.L625:
	.align	2
.L624:
	.word	.LANCHOR0+996
	.fnend
	.size	DRV_CA_OTP_V200_SetDebugDisable, .-DRV_CA_OTP_V200_SetDebugDisable
	.align	2
	.global	DRV_CA_OTP_V200_SetJtagReadDisable
	.type	DRV_CA_OTP_V200_SetJtagReadDisable, %function
DRV_CA_OTP_V200_SetJtagReadDisable:
	.fnstart
.LFB946:
	@ args = 0, pretend = 0, frame = 0
	@ frame_needed = 1, uses_anonymous_args = 0
	.movsp ip
	mov	ip, sp	@,
	stmfd	sp!, {r4, fp, ip, lr, pc}	@,
	.pad #4
	.save {r4, fp, ip, lr}
	.setfp fp, ip, #-4
	sub	fp, ip, #4	@,,
	.pad #12
	sub	sp, sp, #12	@,,
	push	{lr}
	bl	__gnu_mcount_nc
	movw	r4, #:lower16:g_pOTPExportFunctionList	@ tmp138,
	movt	r4, #:upper16:g_pOTPExportFunctionList	@ tmp138,
	mov	r0, #24	@,
	mov	r1, #128	@,
	ldr	r2, [r4, #0]	@ g_pOTPExportFunctionList, g_pOTPExportFunctionList
	ldr	r3, [r2, #8]	@ <variable>.HAL_OTP_V200_Write, <variable>.HAL_OTP_V200_Write
	blx	r3	@ <variable>.HAL_OTP_V200_Write
	subs	r4, r0, #0	@ ret,
	beq	.L627	@,
	mov	r0, #1	@,
	mov	r1, #97	@,
	ldr	r2, .L629	@,
	movw	r3, #5573	@,
	movw	ip, #:lower16:.LC0	@ tmp143,
	movt	ip, #:upper16:.LC0	@ tmp143,
	str	ip, [sp, #0]	@ tmp143,
	bl	HI_LogOut	@
.L627:
	mov	r0, r4	@, ret
	sub	sp, fp, #16
	ldmfd	sp, {r4, fp, sp, pc}
.L630:
	.align	2
.L629:
	.word	.LANCHOR0+1028
	.fnend
	.size	DRV_CA_OTP_V200_SetJtagReadDisable, .-DRV_CA_OTP_V200_SetJtagReadDisable
	.align	2
	.global	DRV_CA_OTP_V200_SetCSA3Deactive
	.type	DRV_CA_OTP_V200_SetCSA3Deactive, %function
DRV_CA_OTP_V200_SetCSA3Deactive:
	.fnstart
.LFB944:
	@ args = 0, pretend = 0, frame = 0
	@ frame_needed = 1, uses_anonymous_args = 0
	.movsp ip
	mov	ip, sp	@,
	stmfd	sp!, {r4, fp, ip, lr, pc}	@,
	.pad #4
	.save {r4, fp, ip, lr}
	.setfp fp, ip, #-4
	sub	fp, ip, #4	@,,
	.pad #12
	sub	sp, sp, #12	@,,
	push	{lr}
	bl	__gnu_mcount_nc
	movw	r4, #:lower16:g_pOTPExportFunctionList	@ tmp138,
	movt	r4, #:upper16:g_pOTPExportFunctionList	@ tmp138,
	mov	r0, #24	@,
	mov	r1, #16	@,
	ldr	r2, [r4, #0]	@ g_pOTPExportFunctionList, g_pOTPExportFunctionList
	ldr	r3, [r2, #8]	@ <variable>.HAL_OTP_V200_Write, <variable>.HAL_OTP_V200_Write
	blx	r3	@ <variable>.HAL_OTP_V200_Write
	subs	r4, r0, #0	@ ret,
	beq	.L632	@,
	mov	r0, #1	@,
	mov	r1, #97	@,
	ldr	r2, .L634	@,
	movw	r3, #5538	@,
	movw	ip, #:lower16:.LC0	@ tmp143,
	movt	ip, #:upper16:.LC0	@ tmp143,
	str	ip, [sp, #0]	@ tmp143,
	bl	HI_LogOut	@
.L632:
	mov	r0, r4	@, ret
	sub	sp, fp, #16
	ldmfd	sp, {r4, fp, sp, pc}
.L635:
	.align	2
.L634:
	.word	.LANCHOR0+1064
	.fnend
	.size	DRV_CA_OTP_V200_SetCSA3Deactive, .-DRV_CA_OTP_V200_SetCSA3Deactive
	.align	2
	.global	DRV_CA_OTP_V200_SetBootSelCtrlLock
	.type	DRV_CA_OTP_V200_SetBootSelCtrlLock, %function
DRV_CA_OTP_V200_SetBootSelCtrlLock:
	.fnstart
.LFB942:
	@ args = 0, pretend = 0, frame = 8
	@ frame_needed = 1, uses_anonymous_args = 0
	.movsp ip
	mov	ip, sp	@,
	stmfd	sp!, {r4, fp, ip, lr, pc}	@,
	.pad #4
	.save {r4, fp, ip, lr}
	.setfp fp, ip, #-4
	sub	fp, ip, #4	@,,
	.pad #20
	sub	sp, sp, #20	@,,
	push	{lr}
	bl	__gnu_mcount_nc
	movw	r0, #:lower16:g_pOTPExportFunctionList	@ tmp141,
	movt	r0, #:upper16:g_pOTPExportFunctionList	@ tmp141,
	mov	r1, #0	@ tmp135,
	mov	r2, #4	@ tmp138,
	str	r1, [fp, #-28]	@ tmp135, PVLOCK_1.u32
	ldr	r4, [r0, #0]	@ g_pOTPExportFunctionList, g_pOTPExportFunctionList
	mov	r0, #12	@,
	strb	r2, [fp, #-26]	@ tmp138,
	ldr	r1, [fp, #-28]	@, PVLOCK_1.u32
	ldr	r3, [r4, #8]	@ <variable>.HAL_OTP_V200_Write, <variable>.HAL_OTP_V200_Write
	blx	r3	@ <variable>.HAL_OTP_V200_Write
	subs	r4, r0, #0	@ ret,
	beq	.L637	@,
	mov	r0, #1	@,
	mov	r1, #97	@,
	ldr	r2, .L639	@,
	movw	r3, #5501	@,
	movw	ip, #:lower16:.LC0	@ tmp147,
	movt	ip, #:upper16:.LC0	@ tmp147,
	str	ip, [sp, #0]	@ tmp147,
	bl	HI_LogOut	@
.L637:
	mov	r0, r4	@, ret
	sub	sp, fp, #16
	ldmfd	sp, {r4, fp, sp, pc}
.L640:
	.align	2
.L639:
	.word	.LANCHOR0+1096
	.fnend
	.size	DRV_CA_OTP_V200_SetBootSelCtrlLock, .-DRV_CA_OTP_V200_SetBootSelCtrlLock
	.align	2
	.global	DRV_CA_OTP_V200_SetBootSelCtrl
	.type	DRV_CA_OTP_V200_SetBootSelCtrl, %function
DRV_CA_OTP_V200_SetBootSelCtrl:
	.fnstart
.LFB940:
	@ args = 0, pretend = 0, frame = 16
	@ frame_needed = 1, uses_anonymous_args = 0
	.movsp ip
	mov	ip, sp	@,
	stmfd	sp!, {r4, r5, r6, fp, ip, lr, pc}	@,
	.pad #4
	.save {r4, r5, r6, fp, ip, lr}
	.setfp fp, ip, #-4
	sub	fp, ip, #4	@,,
	.pad #28
	sub	sp, sp, #28	@,,
	push	{lr}
	bl	__gnu_mcount_nc
	cmp	r0, #1	@ u32BootSel,
	mov	r5, r0	@ u32BootSel, u32BootSel
	movwhi	r4, #:lower16:-2142371835	@ ret,
	movthi	r4, #:upper16:-2142371835	@ ret,
	bls	.L648	@,
.L643:
	mov	r0, r4	@, ret
	sub	sp, fp, #24
	ldmfd	sp, {r4, r5, r6, fp, sp, pc}
.L648:
	movw	r6, #:lower16:g_pOTPExportFunctionList	@ tmp180,
	movt	r6, #:upper16:g_pOTPExportFunctionList	@ tmp180,
	mov	r0, #12	@,
	ldr	ip, [r6, #0]	@ g_pOTPExportFunctionList, g_pOTPExportFunctionList
	ldr	r3, [ip, #0]	@ <variable>.HAL_OTP_V200_Read, <variable>.HAL_OTP_V200_Read
	blx	r3	@ <variable>.HAL_OTP_V200_Read
	ubfx	r1, r0, #16, #8	@ tmp142, D.23488,,
	str	r0, [fp, #-44]	@ D.23488, PVLOCK_1.u32
	and	r2, r1, #4	@ tmp144, tmp142,
	uxtb	r2, r2	@ tmp145, tmp144
	cmp	r2, #0	@ tmp145,
	bne	.L649	@,
	cmp	r5, #1	@ u32BootSel,
	beq	.L650	@,
.L646:
	ldr	r1, [r6, #0]	@ g_pOTPExportFunctionList, g_pOTPExportFunctionList
	mov	r4, #0	@ tmp166,
	mov	r0, #4	@ tmp169,
	str	r4, [fp, #-44]	@ tmp166, PVLOCK_1.u32
	strb	r0, [fp, #-42]	@ tmp169,
	mov	r0, #12	@,
	ldr	r2, [r1, #8]	@ <variable>.HAL_OTP_V200_Write, <variable>.HAL_OTP_V200_Write
	ldr	r1, [fp, #-44]	@, PVLOCK_1.u32
	blx	r2	@ <variable>.HAL_OTP_V200_Write
	subs	r4, r0, #0	@ ret,
	beq	.L643	@,
	mov	r0, #1	@,
	mov	r1, #97	@,
	ldr	r2, .L651	@,
	movw	r3, #5467	@,
	movw	ip, #:lower16:.LC0	@ tmp178,
	movt	ip, #:upper16:.LC0	@ tmp178,
	str	ip, [sp, #0]	@ tmp178,
	bl	HI_LogOut	@
	b	.L643	@
.L649:
	ldr	lr, [r6, #0]	@ g_pOTPExportFunctionList, g_pOTPExportFunctionList
	mov	r0, #4	@,
	ldr	r1, [lr, #0]	@ <variable>.HAL_OTP_V200_Read, <variable>.HAL_OTP_V200_Read
	blx	r1	@ <variable>.HAL_OTP_V200_Read
	movw	r2, #:lower16:-2142371830	@ tmp182,
	movt	r2, #:upper16:-2142371830	@ tmp182,
	ubfx	r0, r0, #18, #1	@ tmp152,,,
	cmp	r0, r5	@ tmp152, u32BootSel
	movne	r4, r2	@ ret, tmp182
	moveq	r4, #0	@ ret,
	b	.L643	@
.L650:
	ldr	r3, [r6, #0]	@ g_pOTPExportFunctionList, g_pOTPExportFunctionList
	mov	r0, #4	@,
	str	r2, [fp, #-36]	@ tmp145, PV_1.u32
	strb	r0, [fp, #-34]	@ tmp156,
	ldr	r1, [fp, #-36]	@, PV_1.u32
	ldr	r4, [r3, #8]	@ <variable>.HAL_OTP_V200_Write, <variable>.HAL_OTP_V200_Write
	blx	r4	@ <variable>.HAL_OTP_V200_Write
	subs	r4, r0, #0	@ ret,
	beq	.L646	@,
	mov	r0, r5	@, u32BootSel
	mov	r1, #97	@,
	ldr	r2, .L651	@,
	movw	r3, #5456	@,
	movw	lr, #:lower16:.LC0	@ tmp165,
	movt	lr, #:upper16:.LC0	@ tmp165,
	str	lr, [sp, #0]	@ tmp165,
	bl	HI_LogOut	@
	b	.L643	@
.L652:
	.align	2
.L651:
	.word	.LANCHOR0+1132
	.fnend
	.size	DRV_CA_OTP_V200_SetBootSelCtrl, .-DRV_CA_OTP_V200_SetBootSelCtrl
	.align	2
	.global	DRV_CA_OTP_V200_SetSecureChipFlagLock
	.type	DRV_CA_OTP_V200_SetSecureChipFlagLock, %function
DRV_CA_OTP_V200_SetSecureChipFlagLock:
	.fnstart
.LFB938:
	@ args = 0, pretend = 0, frame = 8
	@ frame_needed = 1, uses_anonymous_args = 0
	.movsp ip
	mov	ip, sp	@,
	stmfd	sp!, {r4, fp, ip, lr, pc}	@,
	.pad #4
	.save {r4, fp, ip, lr}
	.setfp fp, ip, #-4
	sub	fp, ip, #4	@,,
	.pad #20
	sub	sp, sp, #20	@,,
	push	{lr}
	bl	__gnu_mcount_nc
	movw	r0, #:lower16:g_pOTPExportFunctionList	@ tmp141,
	movt	r0, #:upper16:g_pOTPExportFunctionList	@ tmp141,
	mov	r1, #0	@ tmp135,
	mov	r2, #1	@ tmp138,
	str	r1, [fp, #-28]	@ tmp135, PVLOCK_1.u32
	ldr	r4, [r0, #0]	@ g_pOTPExportFunctionList, g_pOTPExportFunctionList
	mov	r0, #12	@,
	strb	r2, [fp, #-28]	@ tmp138,
	ldr	r1, [fp, #-28]	@, PVLOCK_1.u32
	ldr	r3, [r4, #8]	@ <variable>.HAL_OTP_V200_Write, <variable>.HAL_OTP_V200_Write
	blx	r3	@ <variable>.HAL_OTP_V200_Write
	subs	r4, r0, #0	@ ret,
	beq	.L654	@,
	mov	r0, #1	@,
	mov	r1, #97	@,
	ldr	r2, .L656	@,
	movw	r3, #5396	@,
	movw	ip, #:lower16:.LC0	@ tmp147,
	movt	ip, #:upper16:.LC0	@ tmp147,
	str	ip, [sp, #0]	@ tmp147,
	bl	HI_LogOut	@
.L654:
	mov	r0, r4	@, ret
	sub	sp, fp, #16
	ldmfd	sp, {r4, fp, sp, pc}
.L657:
	.align	2
.L656:
	.word	.LANCHOR0+1164
	.fnend
	.size	DRV_CA_OTP_V200_SetSecureChipFlagLock, .-DRV_CA_OTP_V200_SetSecureChipFlagLock
	.align	2
	.global	DRV_CA_OTP_V200_SetLpcMasterEnLock
	.type	DRV_CA_OTP_V200_SetLpcMasterEnLock, %function
DRV_CA_OTP_V200_SetLpcMasterEnLock:
	.fnstart
.LFB936:
	@ args = 0, pretend = 0, frame = 8
	@ frame_needed = 1, uses_anonymous_args = 0
	.movsp ip
	mov	ip, sp	@,
	stmfd	sp!, {r4, fp, ip, lr, pc}	@,
	.pad #4
	.save {r4, fp, ip, lr}
	.setfp fp, ip, #-4
	sub	fp, ip, #4	@,,
	.pad #20
	sub	sp, sp, #20	@,,
	push	{lr}
	bl	__gnu_mcount_nc
	movw	r0, #:lower16:g_pOTPExportFunctionList	@ tmp141,
	movt	r0, #:upper16:g_pOTPExportFunctionList	@ tmp141,
	mov	r1, #0	@ tmp135,
	mov	r2, #2	@ tmp138,
	str	r1, [fp, #-28]	@ tmp135, PVLOCK_1.u32
	ldr	r4, [r0, #0]	@ g_pOTPExportFunctionList, g_pOTPExportFunctionList
	mov	r0, #12	@,
	strb	r2, [fp, #-26]	@ tmp138,
	ldr	r1, [fp, #-28]	@, PVLOCK_1.u32
	ldr	r3, [r4, #8]	@ <variable>.HAL_OTP_V200_Write, <variable>.HAL_OTP_V200_Write
	blx	r3	@ <variable>.HAL_OTP_V200_Write
	subs	r4, r0, #0	@ ret,
	beq	.L659	@,
	mov	r0, #1	@,
	mov	r1, #97	@,
	ldr	r2, .L661	@,
	movw	r3, #5361	@,
	movw	ip, #:lower16:.LC0	@ tmp147,
	movt	ip, #:upper16:.LC0	@ tmp147,
	str	ip, [sp, #0]	@ tmp147,
	bl	HI_LogOut	@
.L659:
	mov	r0, r4	@, ret
	sub	sp, fp, #16
	ldmfd	sp, {r4, fp, sp, pc}
.L662:
	.align	2
.L661:
	.word	.LANCHOR0+1204
	.fnend
	.size	DRV_CA_OTP_V200_SetLpcMasterEnLock, .-DRV_CA_OTP_V200_SetLpcMasterEnLock
	.align	2
	.global	DRV_CA_OTP_V200_SetLpcEnLock
	.type	DRV_CA_OTP_V200_SetLpcEnLock, %function
DRV_CA_OTP_V200_SetLpcEnLock:
	.fnstart
.LFB934:
	@ args = 0, pretend = 0, frame = 8
	@ frame_needed = 1, uses_anonymous_args = 0
	.movsp ip
	mov	ip, sp	@,
	stmfd	sp!, {r4, fp, ip, lr, pc}	@,
	.pad #4
	.save {r4, fp, ip, lr}
	.setfp fp, ip, #-4
	sub	fp, ip, #4	@,,
	.pad #20
	sub	sp, sp, #20	@,,
	push	{lr}
	bl	__gnu_mcount_nc
	movw	r0, #:lower16:g_pOTPExportFunctionList	@ tmp141,
	movt	r0, #:upper16:g_pOTPExportFunctionList	@ tmp141,
	mov	r1, #0	@ tmp135,
	mov	r2, #1	@ tmp138,
	str	r1, [fp, #-28]	@ tmp135, PVLOCK_1.u32
	ldr	r4, [r0, #0]	@ g_pOTPExportFunctionList, g_pOTPExportFunctionList
	mov	r0, #12	@,
	strb	r2, [fp, #-26]	@ tmp138,
	ldr	r1, [fp, #-28]	@, PVLOCK_1.u32
	ldr	r3, [r4, #8]	@ <variable>.HAL_OTP_V200_Write, <variable>.HAL_OTP_V200_Write
	blx	r3	@ <variable>.HAL_OTP_V200_Write
	subs	r4, r0, #0	@ ret,
	beq	.L664	@,
	mov	r0, #1	@,
	mov	r1, #97	@,
	ldr	r2, .L666	@,
	movw	r3, #5326	@,
	movw	ip, #:lower16:.LC0	@ tmp147,
	movt	ip, #:upper16:.LC0	@ tmp147,
	str	ip, [sp, #0]	@ tmp147,
	bl	HI_LogOut	@
.L664:
	mov	r0, r4	@, ret
	sub	sp, fp, #16
	ldmfd	sp, {r4, fp, sp, pc}
.L667:
	.align	2
.L666:
	.word	.LANCHOR0+1240
	.fnend
	.size	DRV_CA_OTP_V200_SetLpcEnLock, .-DRV_CA_OTP_V200_SetLpcEnLock
	.align	2
	.global	DRV_CA_OTP_V200_SetTsOutDisableLock
	.type	DRV_CA_OTP_V200_SetTsOutDisableLock, %function
DRV_CA_OTP_V200_SetTsOutDisableLock:
	.fnstart
.LFB932:
	@ args = 0, pretend = 0, frame = 8
	@ frame_needed = 1, uses_anonymous_args = 0
	.movsp ip
	mov	ip, sp	@,
	stmfd	sp!, {r4, fp, ip, lr, pc}	@,
	.pad #4
	.save {r4, fp, ip, lr}
	.setfp fp, ip, #-4
	sub	fp, ip, #4	@,,
	.pad #20
	sub	sp, sp, #20	@,,
	push	{lr}
	bl	__gnu_mcount_nc
	movw	r0, #:lower16:g_pOTPExportFunctionList	@ tmp141,
	movt	r0, #:upper16:g_pOTPExportFunctionList	@ tmp141,
	mov	r1, #0	@ tmp135,
	mov	r2, #128	@ tmp138,
	str	r1, [fp, #-28]	@ tmp135, PVLOCK_1.u32
	ldr	r4, [r0, #0]	@ g_pOTPExportFunctionList, g_pOTPExportFunctionList
	mov	r0, #12	@,
	strb	r2, [fp, #-27]	@ tmp138,
	ldr	r1, [fp, #-28]	@, PVLOCK_1.u32
	ldr	r3, [r4, #8]	@ <variable>.HAL_OTP_V200_Write, <variable>.HAL_OTP_V200_Write
	blx	r3	@ <variable>.HAL_OTP_V200_Write
	subs	r4, r0, #0	@ ret,
	beq	.L669	@,
	mov	r0, #1	@,
	mov	r1, #97	@,
	ldr	r2, .L671	@,
	movw	r3, #5291	@,
	movw	ip, #:lower16:.LC0	@ tmp147,
	movt	ip, #:upper16:.LC0	@ tmp147,
	str	ip, [sp, #0]	@ tmp147,
	bl	HI_LogOut	@
.L669:
	mov	r0, r4	@, ret
	sub	sp, fp, #16
	ldmfd	sp, {r4, fp, sp, pc}
.L672:
	.align	2
.L671:
	.word	.LANCHOR0+1272
	.fnend
	.size	DRV_CA_OTP_V200_SetTsOutDisableLock, .-DRV_CA_OTP_V200_SetTsOutDisableLock
	.align	2
	.global	DRV_CA_OTP_V200_SetTsOutDisable
	.type	DRV_CA_OTP_V200_SetTsOutDisable, %function
DRV_CA_OTP_V200_SetTsOutDisable:
	.fnstart
.LFB930:
	@ args = 0, pretend = 0, frame = 16
	@ frame_needed = 1, uses_anonymous_args = 0
	.movsp ip
	mov	ip, sp	@,
	stmfd	sp!, {r4, r5, r6, fp, ip, lr, pc}	@,
	.pad #4
	.save {r4, r5, r6, fp, ip, lr}
	.setfp fp, ip, #-4
	sub	fp, ip, #4	@,,
	.pad #28
	sub	sp, sp, #28	@,,
	push	{lr}
	bl	__gnu_mcount_nc
	cmp	r0, #1	@ u32Disable,
	mov	r5, r0	@ u32Disable, u32Disable
	movwhi	r4, #:lower16:-2142371835	@ ret,
	movthi	r4, #:upper16:-2142371835	@ ret,
	bls	.L680	@,
.L675:
	mov	r0, r4	@, ret
	sub	sp, fp, #24
	ldmfd	sp, {r4, r5, r6, fp, sp, pc}
.L680:
	movw	r6, #:lower16:g_pOTPExportFunctionList	@ tmp180,
	movt	r6, #:upper16:g_pOTPExportFunctionList	@ tmp180,
	mov	r0, #12	@,
	ldr	ip, [r6, #0]	@ g_pOTPExportFunctionList, g_pOTPExportFunctionList
	ldr	r3, [ip, #0]	@ <variable>.HAL_OTP_V200_Read, <variable>.HAL_OTP_V200_Read
	blx	r3	@ <variable>.HAL_OTP_V200_Read
	ubfx	r1, r0, #8, #8	@ tmp142, D.23338,,
	str	r0, [fp, #-44]	@ D.23338, PVLOCK_1.u32
	and	r2, r1, #128	@ tmp144, tmp142,
	uxtb	r2, r2	@ tmp145, tmp144
	cmp	r2, #0	@ tmp145,
	bne	.L681	@,
	cmp	r5, #1	@ u32Disable,
	beq	.L682	@,
.L678:
	ldr	r1, [r6, #0]	@ g_pOTPExportFunctionList, g_pOTPExportFunctionList
	mov	r4, #0	@ tmp166,
	mov	r0, #128	@ tmp169,
	str	r4, [fp, #-44]	@ tmp166, PVLOCK_1.u32
	strb	r0, [fp, #-43]	@ tmp169,
	mov	r0, #12	@,
	ldr	r2, [r1, #8]	@ <variable>.HAL_OTP_V200_Write, <variable>.HAL_OTP_V200_Write
	ldr	r1, [fp, #-44]	@, PVLOCK_1.u32
	blx	r2	@ <variable>.HAL_OTP_V200_Write
	subs	r4, r0, #0	@ ret,
	beq	.L675	@,
	mov	r0, #1	@,
	mov	r1, #97	@,
	ldr	r2, .L683	@,
	movw	r3, #5257	@,
	movw	ip, #:lower16:.LC0	@ tmp178,
	movt	ip, #:upper16:.LC0	@ tmp178,
	str	ip, [sp, #0]	@ tmp178,
	bl	HI_LogOut	@
	b	.L675	@
.L681:
	ldr	lr, [r6, #0]	@ g_pOTPExportFunctionList, g_pOTPExportFunctionList
	mov	r0, #4	@,
	ldr	r1, [lr, #0]	@ <variable>.HAL_OTP_V200_Read, <variable>.HAL_OTP_V200_Read
	blx	r1	@ <variable>.HAL_OTP_V200_Read
	movw	r2, #:lower16:-2142371830	@ tmp182,
	movt	r2, #:upper16:-2142371830	@ tmp182,
	ubfx	r0, r0, #15, #1	@ tmp152,,,
	cmp	r0, r5	@ tmp152, u32Disable
	movne	r4, r2	@ ret, tmp182
	moveq	r4, #0	@ ret,
	b	.L675	@
.L682:
	ldr	r3, [r6, #0]	@ g_pOTPExportFunctionList, g_pOTPExportFunctionList
	mov	ip, #128	@ tmp156,
	str	r2, [fp, #-36]	@ tmp145, PV_1.u32
	mov	r0, #4	@,
	strb	ip, [fp, #-35]	@ tmp156,
	ldr	r1, [fp, #-36]	@, PV_1.u32
	ldr	r4, [r3, #8]	@ <variable>.HAL_OTP_V200_Write, <variable>.HAL_OTP_V200_Write
	blx	r4	@ <variable>.HAL_OTP_V200_Write
	subs	r4, r0, #0	@ ret,
	beq	.L678	@,
	mov	r0, r5	@, u32Disable
	mov	r1, #97	@,
	ldr	r2, .L683	@,
	movw	r3, #5246	@,
	movw	lr, #:lower16:.LC0	@ tmp165,
	movt	lr, #:upper16:.LC0	@ tmp165,
	str	lr, [sp, #0]	@ tmp165,
	bl	HI_LogOut	@
	b	.L675	@
.L684:
	.align	2
.L683:
	.word	.LANCHOR0+1308
	.fnend
	.size	DRV_CA_OTP_V200_SetTsOutDisable, .-DRV_CA_OTP_V200_SetTsOutDisable
	.align	2
	.global	DRV_CA_OTP_V200_SetTSCSA3DeactiveLock
	.type	DRV_CA_OTP_V200_SetTSCSA3DeactiveLock, %function
DRV_CA_OTP_V200_SetTSCSA3DeactiveLock:
	.fnstart
.LFB920:
	@ args = 0, pretend = 0, frame = 0
	@ frame_needed = 1, uses_anonymous_args = 0
	.movsp ip
	mov	ip, sp	@,
	stmfd	sp!, {r4, fp, ip, lr, pc}	@,
	.pad #4
	.save {r4, fp, ip, lr}
	.setfp fp, ip, #-4
	sub	fp, ip, #4	@,,
	.pad #12
	sub	sp, sp, #12	@,,
	push	{lr}
	bl	__gnu_mcount_nc
	movw	r4, #:lower16:g_pOTPExportFunctionList	@ tmp138,
	movt	r4, #:upper16:g_pOTPExportFunctionList	@ tmp138,
	mov	r0, #8	@,
	mov	r1, #1048576	@,
	ldr	r2, [r4, #0]	@ g_pOTPExportFunctionList, g_pOTPExportFunctionList
	ldr	r3, [r2, #8]	@ <variable>.HAL_OTP_V200_Write, <variable>.HAL_OTP_V200_Write
	blx	r3	@ <variable>.HAL_OTP_V200_Write
	subs	r4, r0, #0	@ ret,
	beq	.L686	@,
	mov	r0, #1	@,
	mov	r1, #97	@,
	ldr	r2, .L688	@,
	movw	r3, #4853	@,
	movw	ip, #:lower16:.LC0	@ tmp143,
	movt	ip, #:upper16:.LC0	@ tmp143,
	str	ip, [sp, #0]	@ tmp143,
	bl	HI_LogOut	@
.L686:
	mov	r0, r4	@, ret
	sub	sp, fp, #16
	ldmfd	sp, {r4, fp, sp, pc}
.L689:
	.align	2
.L688:
	.word	.LANCHOR0+1340
	.fnend
	.size	DRV_CA_OTP_V200_SetTSCSA3DeactiveLock, .-DRV_CA_OTP_V200_SetTSCSA3DeactiveLock
	.align	2
	.global	DRV_CA_OTP_V200_SetTSCSA3Deactive
	.type	DRV_CA_OTP_V200_SetTSCSA3Deactive, %function
DRV_CA_OTP_V200_SetTSCSA3Deactive:
	.fnstart
.LFB918:
	@ args = 0, pretend = 0, frame = 0
	@ frame_needed = 1, uses_anonymous_args = 0
	.movsp ip
	mov	ip, sp	@,
	stmfd	sp!, {r4, r5, r6, fp, ip, lr, pc}	@,
	.pad #4
	.save {r4, r5, r6, fp, ip, lr}
	.setfp fp, ip, #-4
	sub	fp, ip, #4	@,,
	.pad #12
	sub	sp, sp, #12	@,,
	push	{lr}
	bl	__gnu_mcount_nc
	cmp	r0, #1	@ u32Deactive,
	mov	r5, r0	@ u32Deactive, u32Deactive
	movwhi	r4, #:lower16:-2142371835	@ ret,
	movthi	r4, #:upper16:-2142371835	@ ret,
	bls	.L697	@,
.L692:
	mov	r0, r4	@, ret
	sub	sp, fp, #24
	ldmfd	sp, {r4, r5, r6, fp, sp, pc}
.L697:
	movw	r6, #:lower16:g_pOTPExportFunctionList	@ tmp169,
	movt	r6, #:upper16:g_pOTPExportFunctionList	@ tmp169,
	mov	r0, #8	@,
	ldr	r2, [r6, #0]	@ g_pOTPExportFunctionList, g_pOTPExportFunctionList
	ldr	r3, [r2, #0]	@ <variable>.HAL_OTP_V200_Read, <variable>.HAL_OTP_V200_Read
	blx	r3	@ <variable>.HAL_OTP_V200_Read
	ubfx	r1, r0, #16, #8	@ tmp143,,,
	and	r0, r1, #16	@ tmp145, tmp143,
	uxtb	r0, r0	@ tmp146, tmp145
	cmp	r0, #0	@ tmp146,
	bne	.L698	@,
	cmp	r5, #1	@ u32Deactive,
	beq	.L699	@,
.L695:
	ldr	lr, [r6, #0]	@ g_pOTPExportFunctionList, g_pOTPExportFunctionList
	mov	r0, #8	@,
	mov	r1, #1048576	@,
	ldr	r2, [lr, #8]	@ <variable>.HAL_OTP_V200_Write, <variable>.HAL_OTP_V200_Write
	blx	r2	@ <variable>.HAL_OTP_V200_Write
	subs	r4, r0, #0	@ ret,
	beq	.L692	@,
	mov	r0, #1	@,
	mov	r1, #97	@,
	ldr	r2, .L700	@,
	movw	r3, #4818	@,
	movw	ip, #:lower16:.LC0	@ tmp167,
	movt	ip, #:upper16:.LC0	@ tmp167,
	str	ip, [sp, #0]	@ tmp167,
	bl	HI_LogOut	@
	b	.L692	@
.L698:
	ldr	lr, [r6, #0]	@ g_pOTPExportFunctionList, g_pOTPExportFunctionList
	mov	r0, #0	@,
	ldr	r1, [lr, #0]	@ <variable>.HAL_OTP_V200_Read, <variable>.HAL_OTP_V200_Read
	blx	r1	@ <variable>.HAL_OTP_V200_Read
	movw	ip, #:lower16:-2142371830	@ tmp171,
	movt	ip, #:upper16:-2142371830	@ tmp171,
	ubfx	r0, r0, #20, #1	@ tmp151,,,
	cmp	r0, r5	@ tmp151, u32Deactive
	movne	r4, ip	@ ret, tmp171
	moveq	r4, #0	@ ret,
	b	.L692	@
.L699:
	ldr	r3, [r6, #0]	@ g_pOTPExportFunctionList, g_pOTPExportFunctionList
	mov	r1, #1048576	@,
	ldr	r4, [r3, #8]	@ <variable>.HAL_OTP_V200_Write, <variable>.HAL_OTP_V200_Write
	blx	r4	@ <variable>.HAL_OTP_V200_Write
	subs	r4, r0, #0	@ ret,
	beq	.L695	@,
	mov	r0, r5	@, u32Deactive
	mov	r1, #97	@,
	ldr	r2, .L700	@,
	movw	r3, #4807	@,
	movw	ip, #:lower16:.LC0	@ tmp159,
	movt	ip, #:upper16:.LC0	@ tmp159,
	str	ip, [sp, #0]	@ tmp159,
	bl	HI_LogOut	@
	b	.L692	@
.L701:
	.align	2
.L700:
	.word	.LANCHOR0+1380
	.fnend
	.size	DRV_CA_OTP_V200_SetTSCSA3Deactive, .-DRV_CA_OTP_V200_SetTSCSA3Deactive
	.align	2
	.global	DRV_CA_OTP_V200_SetTSSPDeactiveLock
	.type	DRV_CA_OTP_V200_SetTSSPDeactiveLock, %function
DRV_CA_OTP_V200_SetTSSPDeactiveLock:
	.fnstart
.LFB916:
	@ args = 0, pretend = 0, frame = 0
	@ frame_needed = 1, uses_anonymous_args = 0
	.movsp ip
	mov	ip, sp	@,
	stmfd	sp!, {r4, fp, ip, lr, pc}	@,
	.pad #4
	.save {r4, fp, ip, lr}
	.setfp fp, ip, #-4
	sub	fp, ip, #4	@,,
	.pad #12
	sub	sp, sp, #12	@,,
	push	{lr}
	bl	__gnu_mcount_nc
	movw	r4, #:lower16:g_pOTPExportFunctionList	@ tmp138,
	movt	r4, #:upper16:g_pOTPExportFunctionList	@ tmp138,
	mov	r0, #8	@,
	mov	r1, #131072	@,
	ldr	r2, [r4, #0]	@ g_pOTPExportFunctionList, g_pOTPExportFunctionList
	ldr	r3, [r2, #8]	@ <variable>.HAL_OTP_V200_Write, <variable>.HAL_OTP_V200_Write
	blx	r3	@ <variable>.HAL_OTP_V200_Write
	subs	r4, r0, #0	@ ret,
	beq	.L703	@,
	mov	r0, #1	@,
	mov	r1, #97	@,
	ldr	r2, .L705	@,
	movw	r3, #4747	@,
	movw	ip, #:lower16:.LC0	@ tmp143,
	movt	ip, #:upper16:.LC0	@ tmp143,
	str	ip, [sp, #0]	@ tmp143,
	bl	HI_LogOut	@
.L703:
	mov	r0, r4	@, ret
	sub	sp, fp, #16
	ldmfd	sp, {r4, fp, sp, pc}
.L706:
	.align	2
.L705:
	.word	.LANCHOR0+1416
	.fnend
	.size	DRV_CA_OTP_V200_SetTSSPDeactiveLock, .-DRV_CA_OTP_V200_SetTSSPDeactiveLock
	.align	2
	.global	DRV_CA_OTP_V200_SetTSSPDeactive
	.type	DRV_CA_OTP_V200_SetTSSPDeactive, %function
DRV_CA_OTP_V200_SetTSSPDeactive:
	.fnstart
.LFB914:
	@ args = 0, pretend = 0, frame = 0
	@ frame_needed = 1, uses_anonymous_args = 0
	.movsp ip
	mov	ip, sp	@,
	stmfd	sp!, {r4, r5, r6, fp, ip, lr, pc}	@,
	.pad #4
	.save {r4, r5, r6, fp, ip, lr}
	.setfp fp, ip, #-4
	sub	fp, ip, #4	@,,
	.pad #12
	sub	sp, sp, #12	@,,
	push	{lr}
	bl	__gnu_mcount_nc
	cmp	r0, #1	@ u32Deactive,
	mov	r5, r0	@ u32Deactive, u32Deactive
	movwhi	r4, #:lower16:-2142371835	@ ret,
	movthi	r4, #:upper16:-2142371835	@ ret,
	bls	.L714	@,
.L709:
	mov	r0, r4	@, ret
	sub	sp, fp, #24
	ldmfd	sp, {r4, r5, r6, fp, sp, pc}
.L714:
	movw	r6, #:lower16:g_pOTPExportFunctionList	@ tmp169,
	movt	r6, #:upper16:g_pOTPExportFunctionList	@ tmp169,
	mov	r0, #8	@,
	ldr	r2, [r6, #0]	@ g_pOTPExportFunctionList, g_pOTPExportFunctionList
	ldr	r3, [r2, #0]	@ <variable>.HAL_OTP_V200_Read, <variable>.HAL_OTP_V200_Read
	blx	r3	@ <variable>.HAL_OTP_V200_Read
	ubfx	r1, r0, #16, #8	@ tmp143,,,
	and	r0, r1, #2	@ tmp145, tmp143,
	uxtb	r0, r0	@ tmp146, tmp145
	cmp	r0, #0	@ tmp146,
	bne	.L715	@,
	cmp	r5, #1	@ u32Deactive,
	beq	.L716	@,
.L712:
	ldr	lr, [r6, #0]	@ g_pOTPExportFunctionList, g_pOTPExportFunctionList
	mov	r0, #8	@,
	mov	r1, #131072	@,
	ldr	r2, [lr, #8]	@ <variable>.HAL_OTP_V200_Write, <variable>.HAL_OTP_V200_Write
	blx	r2	@ <variable>.HAL_OTP_V200_Write
	subs	r4, r0, #0	@ ret,
	beq	.L709	@,
	mov	r0, #1	@,
	mov	r1, #97	@,
	ldr	r2, .L717	@,
	movw	r3, #4712	@,
	movw	ip, #:lower16:.LC0	@ tmp167,
	movt	ip, #:upper16:.LC0	@ tmp167,
	str	ip, [sp, #0]	@ tmp167,
	bl	HI_LogOut	@
	b	.L709	@
.L715:
	ldr	lr, [r6, #0]	@ g_pOTPExportFunctionList, g_pOTPExportFunctionList
	mov	r0, #0	@,
	ldr	r1, [lr, #0]	@ <variable>.HAL_OTP_V200_Read, <variable>.HAL_OTP_V200_Read
	blx	r1	@ <variable>.HAL_OTP_V200_Read
	movw	ip, #:lower16:-2142371830	@ tmp171,
	movt	ip, #:upper16:-2142371830	@ tmp171,
	ubfx	r0, r0, #17, #1	@ tmp151,,,
	cmp	r0, r5	@ tmp151, u32Deactive
	movne	r4, ip	@ ret, tmp171
	moveq	r4, #0	@ ret,
	b	.L709	@
.L716:
	ldr	r3, [r6, #0]	@ g_pOTPExportFunctionList, g_pOTPExportFunctionList
	mov	r1, #131072	@,
	ldr	r4, [r3, #8]	@ <variable>.HAL_OTP_V200_Write, <variable>.HAL_OTP_V200_Write
	blx	r4	@ <variable>.HAL_OTP_V200_Write
	subs	r4, r0, #0	@ ret,
	beq	.L712	@,
	mov	r0, r5	@, u32Deactive
	mov	r1, #97	@,
	ldr	r2, .L717	@,
	movw	r3, #4701	@,
	movw	ip, #:lower16:.LC0	@ tmp159,
	movt	ip, #:upper16:.LC0	@ tmp159,
	str	ip, [sp, #0]	@ tmp159,
	bl	HI_LogOut	@
	b	.L709	@
.L718:
	.align	2
.L717:
	.word	.LANCHOR0+1452
	.fnend
	.size	DRV_CA_OTP_V200_SetTSSPDeactive, .-DRV_CA_OTP_V200_SetTSSPDeactive
	.align	2
	.global	DRV_CA_OTP_V200_SetTSCWDeactiveLock
	.type	DRV_CA_OTP_V200_SetTSCWDeactiveLock, %function
DRV_CA_OTP_V200_SetTSCWDeactiveLock:
	.fnstart
.LFB912:
	@ args = 0, pretend = 0, frame = 0
	@ frame_needed = 1, uses_anonymous_args = 0
	.movsp ip
	mov	ip, sp	@,
	stmfd	sp!, {r4, fp, ip, lr, pc}	@,
	.pad #4
	.save {r4, fp, ip, lr}
	.setfp fp, ip, #-4
	sub	fp, ip, #4	@,,
	.pad #12
	sub	sp, sp, #12	@,,
	push	{lr}
	bl	__gnu_mcount_nc
	movw	r4, #:lower16:g_pOTPExportFunctionList	@ tmp138,
	movt	r4, #:upper16:g_pOTPExportFunctionList	@ tmp138,
	mov	r0, #8	@,
	mov	r1, #65536	@,
	ldr	r2, [r4, #0]	@ g_pOTPExportFunctionList, g_pOTPExportFunctionList
	ldr	r3, [r2, #8]	@ <variable>.HAL_OTP_V200_Write, <variable>.HAL_OTP_V200_Write
	blx	r3	@ <variable>.HAL_OTP_V200_Write
	subs	r4, r0, #0	@ ret,
	beq	.L720	@,
	mov	r0, #1	@,
	mov	r1, #97	@,
	ldr	r2, .L722	@,
	movw	r3, #4641	@,
	movw	ip, #:lower16:.LC0	@ tmp143,
	movt	ip, #:upper16:.LC0	@ tmp143,
	str	ip, [sp, #0]	@ tmp143,
	bl	HI_LogOut	@
.L720:
	mov	r0, r4	@, ret
	sub	sp, fp, #16
	ldmfd	sp, {r4, fp, sp, pc}
.L723:
	.align	2
.L722:
	.word	.LANCHOR0+1484
	.fnend
	.size	DRV_CA_OTP_V200_SetTSCWDeactiveLock, .-DRV_CA_OTP_V200_SetTSCWDeactiveLock
	.align	2
	.global	DRV_CA_OTP_V200_SetTSCWDeactive
	.type	DRV_CA_OTP_V200_SetTSCWDeactive, %function
DRV_CA_OTP_V200_SetTSCWDeactive:
	.fnstart
.LFB910:
	@ args = 0, pretend = 0, frame = 0
	@ frame_needed = 1, uses_anonymous_args = 0
	.movsp ip
	mov	ip, sp	@,
	stmfd	sp!, {r4, r5, r6, fp, ip, lr, pc}	@,
	.pad #4
	.save {r4, r5, r6, fp, ip, lr}
	.setfp fp, ip, #-4
	sub	fp, ip, #4	@,,
	.pad #12
	sub	sp, sp, #12	@,,
	push	{lr}
	bl	__gnu_mcount_nc
	cmp	r0, #1	@ u32Deactive,
	mov	r5, r0	@ u32Deactive, u32Deactive
	movwhi	r4, #:lower16:-2142371835	@ ret,
	movthi	r4, #:upper16:-2142371835	@ ret,
	bls	.L731	@,
.L726:
	mov	r0, r4	@, ret
	sub	sp, fp, #24
	ldmfd	sp, {r4, r5, r6, fp, sp, pc}
.L731:
	movw	r6, #:lower16:g_pOTPExportFunctionList	@ tmp167,
	movt	r6, #:upper16:g_pOTPExportFunctionList	@ tmp167,
	mov	r0, #8	@,
	ldr	r1, [r6, #0]	@ g_pOTPExportFunctionList, g_pOTPExportFunctionList
	ldr	r3, [r1, #0]	@ <variable>.HAL_OTP_V200_Read, <variable>.HAL_OTP_V200_Read
	blx	r3	@ <variable>.HAL_OTP_V200_Read
	ubfx	r0, r0, #16, #1	@ tmp146,,,
	cmp	r0, #0	@ tmp146,
	bne	.L732	@,
	cmp	r5, #1	@ u32Deactive,
	beq	.L733	@,
.L729:
	ldr	lr, [r6, #0]	@ g_pOTPExportFunctionList, g_pOTPExportFunctionList
	mov	r0, #8	@,
	mov	r1, #65536	@,
	ldr	r2, [lr, #8]	@ <variable>.HAL_OTP_V200_Write, <variable>.HAL_OTP_V200_Write
	blx	r2	@ <variable>.HAL_OTP_V200_Write
	subs	r4, r0, #0	@ ret,
	beq	.L726	@,
	mov	r0, #1	@,
	mov	r1, #97	@,
	ldr	r2, .L734	@,
	movw	r3, #4606	@,
	movw	ip, #:lower16:.LC0	@ tmp165,
	movt	ip, #:upper16:.LC0	@ tmp165,
	str	ip, [sp, #0]	@ tmp165,
	bl	HI_LogOut	@
	b	.L726	@
.L732:
	ldr	lr, [r6, #0]	@ g_pOTPExportFunctionList, g_pOTPExportFunctionList
	mov	r0, #0	@,
	ldr	ip, [lr, #0]	@ <variable>.HAL_OTP_V200_Read, <variable>.HAL_OTP_V200_Read
	blx	ip	@ <variable>.HAL_OTP_V200_Read
	movw	r2, #:lower16:-2142371830	@ tmp169,
	movt	r2, #:upper16:-2142371830	@ tmp169,
	ubfx	r0, r0, #16, #1	@ tmp151,,,
	cmp	r0, r5	@ tmp151, u32Deactive
	movne	r4, r2	@ ret, tmp169
	moveq	r4, #0	@ ret,
	b	.L726	@
.L733:
	ldr	r3, [r6, #0]	@ g_pOTPExportFunctionList, g_pOTPExportFunctionList
	mov	r1, #65536	@,
	ldr	r4, [r3, #8]	@ <variable>.HAL_OTP_V200_Write, <variable>.HAL_OTP_V200_Write
	blx	r4	@ <variable>.HAL_OTP_V200_Write
	subs	r4, r0, #0	@ ret,
	beq	.L729	@,
	mov	r0, r5	@, u32Deactive
	mov	r1, #97	@,
	ldr	r2, .L734	@,
	movw	r3, #4595	@,
	movw	ip, #:lower16:.LC0	@ tmp158,
	movt	ip, #:upper16:.LC0	@ tmp158,
	str	ip, [sp, #0]	@ tmp158,
	bl	HI_LogOut	@
	b	.L726	@
.L735:
	.align	2
.L734:
	.word	.LANCHOR0+1520
	.fnend
	.size	DRV_CA_OTP_V200_SetTSCWDeactive, .-DRV_CA_OTP_V200_SetTSCWDeactive
	.align	2
	.global	DRV_CA_OTP_V200_SetCSA3LadderLock
	.type	DRV_CA_OTP_V200_SetCSA3LadderLock, %function
DRV_CA_OTP_V200_SetCSA3LadderLock:
	.fnstart
.LFB908:
	@ args = 0, pretend = 0, frame = 0
	@ frame_needed = 1, uses_anonymous_args = 0
	.movsp ip
	mov	ip, sp	@,
	stmfd	sp!, {r4, fp, ip, lr, pc}	@,
	.pad #4
	.save {r4, fp, ip, lr}
	.setfp fp, ip, #-4
	sub	fp, ip, #4	@,,
	.pad #12
	sub	sp, sp, #12	@,,
	push	{lr}
	bl	__gnu_mcount_nc
	movw	r4, #:lower16:g_pOTPExportFunctionList	@ tmp138,
	movt	r4, #:upper16:g_pOTPExportFunctionList	@ tmp138,
	mov	r0, #8	@,
	mov	r1, #256	@,
	ldr	r2, [r4, #0]	@ g_pOTPExportFunctionList, g_pOTPExportFunctionList
	ldr	r3, [r2, #8]	@ <variable>.HAL_OTP_V200_Write, <variable>.HAL_OTP_V200_Write
	blx	r3	@ <variable>.HAL_OTP_V200_Write
	subs	r4, r0, #0	@ ret,
	beq	.L737	@,
	mov	r0, #1	@,
	mov	r1, #97	@,
	ldr	r2, .L739	@,
	movw	r3, #4535	@,
	movw	ip, #:lower16:.LC0	@ tmp142,
	movt	ip, #:upper16:.LC0	@ tmp142,
	str	ip, [sp, #0]	@ tmp142,
	bl	HI_LogOut	@
.L737:
	mov	r0, r4	@, ret
	sub	sp, fp, #16
	ldmfd	sp, {r4, fp, sp, pc}
.L740:
	.align	2
.L739:
	.word	.LANCHOR0+1552
	.fnend
	.size	DRV_CA_OTP_V200_SetCSA3LadderLock, .-DRV_CA_OTP_V200_SetCSA3LadderLock
	.align	2
	.global	DRV_CA_OTP_V200_SetSPLadderLock
	.type	DRV_CA_OTP_V200_SetSPLadderLock, %function
DRV_CA_OTP_V200_SetSPLadderLock:
	.fnstart
.LFB906:
	@ args = 0, pretend = 0, frame = 0
	@ frame_needed = 1, uses_anonymous_args = 0
	.movsp ip
	mov	ip, sp	@,
	stmfd	sp!, {r4, fp, ip, lr, pc}	@,
	.pad #4
	.save {r4, fp, ip, lr}
	.setfp fp, ip, #-4
	sub	fp, ip, #4	@,,
	.pad #12
	sub	sp, sp, #12	@,,
	push	{lr}
	bl	__gnu_mcount_nc
	movw	r4, #:lower16:g_pOTPExportFunctionList	@ tmp138,
	movt	r4, #:upper16:g_pOTPExportFunctionList	@ tmp138,
	mov	r0, #8	@,
	mov	r1, #128	@,
	ldr	r2, [r4, #0]	@ g_pOTPExportFunctionList, g_pOTPExportFunctionList
	ldr	r3, [r2, #8]	@ <variable>.HAL_OTP_V200_Write, <variable>.HAL_OTP_V200_Write
	blx	r3	@ <variable>.HAL_OTP_V200_Write
	subs	r4, r0, #0	@ ret,
	beq	.L742	@,
	mov	r0, #1	@,
	mov	r1, #97	@,
	ldr	r2, .L744	@,
	movw	r3, #4500	@,
	movw	ip, #:lower16:.LC0	@ tmp143,
	movt	ip, #:upper16:.LC0	@ tmp143,
	str	ip, [sp, #0]	@ tmp143,
	bl	HI_LogOut	@
.L742:
	mov	r0, r4	@, ret
	sub	sp, fp, #16
	ldmfd	sp, {r4, fp, sp, pc}
.L745:
	.align	2
.L744:
	.word	.LANCHOR0+1588
	.fnend
	.size	DRV_CA_OTP_V200_SetSPLadderLock, .-DRV_CA_OTP_V200_SetSPLadderLock
	.align	2
	.global	DRV_CA_OTP_V200_SetR2RLadderLock
	.type	DRV_CA_OTP_V200_SetR2RLadderLock, %function
DRV_CA_OTP_V200_SetR2RLadderLock:
	.fnstart
.LFB904:
	@ args = 0, pretend = 0, frame = 0
	@ frame_needed = 1, uses_anonymous_args = 0
	.movsp ip
	mov	ip, sp	@,
	stmfd	sp!, {r4, fp, ip, lr, pc}	@,
	.pad #4
	.save {r4, fp, ip, lr}
	.setfp fp, ip, #-4
	sub	fp, ip, #4	@,,
	.pad #12
	sub	sp, sp, #12	@,,
	push	{lr}
	bl	__gnu_mcount_nc
	movw	r4, #:lower16:g_pOTPExportFunctionList	@ tmp138,
	movt	r4, #:upper16:g_pOTPExportFunctionList	@ tmp138,
	mov	r0, #8	@,
	mov	r1, #64	@,
	ldr	r2, [r4, #0]	@ g_pOTPExportFunctionList, g_pOTPExportFunctionList
	ldr	r3, [r2, #8]	@ <variable>.HAL_OTP_V200_Write, <variable>.HAL_OTP_V200_Write
	blx	r3	@ <variable>.HAL_OTP_V200_Write
	subs	r4, r0, #0	@ ret,
	beq	.L747	@,
	mov	r0, #1	@,
	mov	r1, #97	@,
	ldr	r2, .L749	@,
	movw	r3, #4465	@,
	movw	ip, #:lower16:.LC0	@ tmp143,
	movt	ip, #:upper16:.LC0	@ tmp143,
	str	ip, [sp, #0]	@ tmp143,
	bl	HI_LogOut	@
.L747:
	mov	r0, r4	@, ret
	sub	sp, fp, #16
	ldmfd	sp, {r4, fp, sp, pc}
.L750:
	.align	2
.L749:
	.word	.LANCHOR0+1620
	.fnend
	.size	DRV_CA_OTP_V200_SetR2RLadderLock, .-DRV_CA_OTP_V200_SetR2RLadderLock
	.align	2
	.global	DRV_CA_OTP_V200_SetDVBLadderLock
	.type	DRV_CA_OTP_V200_SetDVBLadderLock, %function
DRV_CA_OTP_V200_SetDVBLadderLock:
	.fnstart
.LFB902:
	@ args = 0, pretend = 0, frame = 0
	@ frame_needed = 1, uses_anonymous_args = 0
	.movsp ip
	mov	ip, sp	@,
	stmfd	sp!, {r4, fp, ip, lr, pc}	@,
	.pad #4
	.save {r4, fp, ip, lr}
	.setfp fp, ip, #-4
	sub	fp, ip, #4	@,,
	.pad #12
	sub	sp, sp, #12	@,,
	push	{lr}
	bl	__gnu_mcount_nc
	movw	r4, #:lower16:g_pOTPExportFunctionList	@ tmp138,
	movt	r4, #:upper16:g_pOTPExportFunctionList	@ tmp138,
	mov	r0, #8	@,
	mov	r1, #32	@,
	ldr	r2, [r4, #0]	@ g_pOTPExportFunctionList, g_pOTPExportFunctionList
	ldr	r3, [r2, #8]	@ <variable>.HAL_OTP_V200_Write, <variable>.HAL_OTP_V200_Write
	blx	r3	@ <variable>.HAL_OTP_V200_Write
	subs	r4, r0, #0	@ ret,
	beq	.L752	@,
	mov	r0, #1	@,
	mov	r1, #97	@,
	ldr	r2, .L754	@,
	movw	r3, #4430	@,
	movw	ip, #:lower16:.LC0	@ tmp143,
	movt	ip, #:upper16:.LC0	@ tmp143,
	str	ip, [sp, #0]	@ tmp143,
	bl	HI_LogOut	@
.L752:
	mov	r0, r4	@, ret
	sub	sp, fp, #16
	ldmfd	sp, {r4, fp, sp, pc}
.L755:
	.align	2
.L754:
	.word	.LANCHOR0+1656
	.fnend
	.size	DRV_CA_OTP_V200_SetDVBLadderLock, .-DRV_CA_OTP_V200_SetDVBLadderLock
	.align	2
	.global	DRV_CA_OTP_V200_SetLowPowerDisableLock
	.type	DRV_CA_OTP_V200_SetLowPowerDisableLock, %function
DRV_CA_OTP_V200_SetLowPowerDisableLock:
	.fnstart
.LFB900:
	@ args = 0, pretend = 0, frame = 0
	@ frame_needed = 1, uses_anonymous_args = 0
	.movsp ip
	mov	ip, sp	@,
	stmfd	sp!, {r4, fp, ip, lr, pc}	@,
	.pad #4
	.save {r4, fp, ip, lr}
	.setfp fp, ip, #-4
	sub	fp, ip, #4	@,,
	.pad #12
	sub	sp, sp, #12	@,,
	push	{lr}
	bl	__gnu_mcount_nc
	movw	r4, #:lower16:g_pOTPExportFunctionList	@ tmp138,
	movt	r4, #:upper16:g_pOTPExportFunctionList	@ tmp138,
	mov	r0, #8	@,
	mov	r1, #16	@,
	ldr	r2, [r4, #0]	@ g_pOTPExportFunctionList, g_pOTPExportFunctionList
	ldr	r3, [r2, #8]	@ <variable>.HAL_OTP_V200_Write, <variable>.HAL_OTP_V200_Write
	blx	r3	@ <variable>.HAL_OTP_V200_Write
	subs	r4, r0, #0	@ ret,
	beq	.L757	@,
	mov	r0, #1	@,
	mov	r1, #97	@,
	ldr	r2, .L759	@,
	movw	r3, #4395	@,
	movw	ip, #:lower16:.LC0	@ tmp143,
	movt	ip, #:upper16:.LC0	@ tmp143,
	str	ip, [sp, #0]	@ tmp143,
	bl	HI_LogOut	@
.L757:
	mov	r0, r4	@, ret
	sub	sp, fp, #16
	ldmfd	sp, {r4, fp, sp, pc}
.L760:
	.align	2
.L759:
	.word	.LANCHOR0+1692
	.fnend
	.size	DRV_CA_OTP_V200_SetLowPowerDisableLock, .-DRV_CA_OTP_V200_SetLowPowerDisableLock
	.align	2
	.global	DRV_CA_OTP_V200_SetSelfbootLock
	.type	DRV_CA_OTP_V200_SetSelfbootLock, %function
DRV_CA_OTP_V200_SetSelfbootLock:
	.fnstart
.LFB898:
	@ args = 0, pretend = 0, frame = 0
	@ frame_needed = 1, uses_anonymous_args = 0
	.movsp ip
	mov	ip, sp	@,
	stmfd	sp!, {r4, fp, ip, lr, pc}	@,
	.pad #4
	.save {r4, fp, ip, lr}
	.setfp fp, ip, #-4
	sub	fp, ip, #4	@,,
	.pad #12
	sub	sp, sp, #12	@,,
	push	{lr}
	bl	__gnu_mcount_nc
	movw	r1, #:lower16:g_pOTPExportFunctionList	@ tmp138,
	movt	r1, #:upper16:g_pOTPExportFunctionList	@ tmp138,
	mov	r0, #8	@,
	ldr	r2, [r1, #0]	@ g_pOTPExportFunctionList, g_pOTPExportFunctionList
	mov	r1, r0	@,
	ldr	r3, [r2, #8]	@ <variable>.HAL_OTP_V200_Write, <variable>.HAL_OTP_V200_Write
	blx	r3	@ <variable>.HAL_OTP_V200_Write
	subs	r4, r0, #0	@ ret,
	beq	.L762	@,
	mov	r0, #1	@,
	mov	r1, #97	@,
	ldr	r2, .L764	@,
	movw	r3, #4360	@,
	movw	ip, #:lower16:.LC0	@ tmp143,
	movt	ip, #:upper16:.LC0	@ tmp143,
	str	ip, [sp, #0]	@ tmp143,
	bl	HI_LogOut	@
.L762:
	mov	r0, r4	@, ret
	sub	sp, fp, #16
	ldmfd	sp, {r4, fp, sp, pc}
.L765:
	.align	2
.L764:
	.word	.LANCHOR0+1732
	.fnend
	.size	DRV_CA_OTP_V200_SetSelfbootLock, .-DRV_CA_OTP_V200_SetSelfbootLock
	.align	2
	.global	DRV_CA_OTP_V200_SetStbSnP
	.type	DRV_CA_OTP_V200_SetStbSnP, %function
DRV_CA_OTP_V200_SetStbSnP:
	.fnstart
.LFB896:
	@ args = 0, pretend = 0, frame = 0
	@ frame_needed = 1, uses_anonymous_args = 0
	.movsp ip
	mov	ip, sp	@,
	stmfd	sp!, {r4, fp, ip, lr, pc}	@,
	.pad #4
	.save {r4, fp, ip, lr}
	.setfp fp, ip, #-4
	sub	fp, ip, #4	@,,
	.pad #12
	sub	sp, sp, #12	@,,
	push	{lr}
	bl	__gnu_mcount_nc
	cmp	r0, #15	@ u32StbSnP,
	movwhi	r4, #:lower16:-2142371835	@ ret,
	movthi	r4, #:upper16:-2142371835	@ ret,
	bls	.L770	@,
.L768:
	mov	r0, r4	@, ret
	sub	sp, fp, #16
	ldmfd	sp, {r4, fp, sp, pc}
.L770:
	movw	r4, #:lower16:g_pOTPExportFunctionList	@ tmp144,
	movt	r4, #:upper16:g_pOTPExportFunctionList	@ tmp144,
	mov	r1, #0	@ DataLock_0,
	bfi	r1, r0, #4, #1	@ DataLock_0, u32StbSnP,,
	ldr	r2, [r4, #0]	@ g_pOTPExportFunctionList, g_pOTPExportFunctionList
	bfc	r1, #5, #1	@ DataLock_0,,
	bfc	r1, #6, #1	@ DataLock_0,,
	mov	r0, #16	@,
	bic	r1, r1, #128	@, DataLock_0,
	ldr	r3, [r2, #8]	@ <variable>.HAL_OTP_V200_Write, <variable>.HAL_OTP_V200_Write
	blx	r3	@ <variable>.HAL_OTP_V200_Write
	subs	r4, r0, #0	@ ret,
	beq	.L768	@,
	mov	r0, #1	@,
	mov	r1, #97	@,
	ldr	r2, .L771	@,
	movw	r3, #4322	@,
	movw	ip, #:lower16:.LC0	@ tmp149,
	movt	ip, #:upper16:.LC0	@ tmp149,
	str	ip, [sp, #0]	@ tmp149,
	bl	HI_LogOut	@
	b	.L768	@
.L772:
	.align	2
.L771:
	.word	.LANCHOR0+1764
	.fnend
	.size	DRV_CA_OTP_V200_SetStbSnP, .-DRV_CA_OTP_V200_SetStbSnP
	.align	2
	.global	DRV_CA_OTP_V200_SetMktIdP
	.type	DRV_CA_OTP_V200_SetMktIdP, %function
DRV_CA_OTP_V200_SetMktIdP:
	.fnstart
.LFB894:
	@ args = 0, pretend = 0, frame = 0
	@ frame_needed = 1, uses_anonymous_args = 0
	.movsp ip
	mov	ip, sp	@,
	stmfd	sp!, {r4, fp, ip, lr, pc}	@,
	.pad #4
	.save {r4, fp, ip, lr}
	.setfp fp, ip, #-4
	sub	fp, ip, #4	@,,
	.pad #12
	sub	sp, sp, #12	@,,
	push	{lr}
	bl	__gnu_mcount_nc
	movw	r4, #:lower16:g_pOTPExportFunctionList	@ tmp138,
	movt	r4, #:upper16:g_pOTPExportFunctionList	@ tmp138,
	mov	r0, #16	@,
	mov	r1, #256	@,
	ldr	r2, [r4, #0]	@ g_pOTPExportFunctionList, g_pOTPExportFunctionList
	ldr	r3, [r2, #8]	@ <variable>.HAL_OTP_V200_Write, <variable>.HAL_OTP_V200_Write
	blx	r3	@ <variable>.HAL_OTP_V200_Write
	subs	r4, r0, #0	@ ret,
	beq	.L774	@,
	mov	r0, #1	@,
	mov	r1, #97	@,
	ldr	r2, .L776	@,
	movw	r3, #4279	@,
	movw	ip, #:lower16:.LC0	@ tmp142,
	movt	ip, #:upper16:.LC0	@ tmp142,
	str	ip, [sp, #0]	@ tmp142,
	bl	HI_LogOut	@
.L774:
	mov	r0, r4	@, ret
	sub	sp, fp, #16
	ldmfd	sp, {r4, fp, sp, pc}
.L777:
	.align	2
.L776:
	.word	.LANCHOR0+1792
	.fnend
	.size	DRV_CA_OTP_V200_SetMktIdP, .-DRV_CA_OTP_V200_SetMktIdP
	.align	2
	.global	DRV_CA_OTP_V200_SetBootSelLock_1
	.type	DRV_CA_OTP_V200_SetBootSelLock_1, %function
DRV_CA_OTP_V200_SetBootSelLock_1:
	.fnstart
.LFB892:
	@ args = 0, pretend = 0, frame = 0
	@ frame_needed = 1, uses_anonymous_args = 0
	.movsp ip
	mov	ip, sp	@,
	stmfd	sp!, {r4, fp, ip, lr, pc}	@,
	.pad #4
	.save {r4, fp, ip, lr}
	.setfp fp, ip, #-4
	sub	fp, ip, #4	@,,
	.pad #12
	sub	sp, sp, #12	@,,
	push	{lr}
	bl	__gnu_mcount_nc
	movw	r4, #:lower16:g_pOTPExportFunctionList	@ tmp138,
	movt	r4, #:upper16:g_pOTPExportFunctionList	@ tmp138,
	mov	r0, #8	@,
	mov	r1, #2	@,
	ldr	r2, [r4, #0]	@ g_pOTPExportFunctionList, g_pOTPExportFunctionList
	ldr	r3, [r2, #8]	@ <variable>.HAL_OTP_V200_Write, <variable>.HAL_OTP_V200_Write
	blx	r3	@ <variable>.HAL_OTP_V200_Write
	subs	r4, r0, #0	@ ret,
	beq	.L779	@,
	mov	r0, #1	@,
	mov	r1, #97	@,
	ldr	r2, .L781	@,
	movw	r3, #4244	@,
	movw	ip, #:lower16:.LC0	@ tmp143,
	movt	ip, #:upper16:.LC0	@ tmp143,
	str	ip, [sp, #0]	@ tmp143,
	bl	HI_LogOut	@
.L779:
	mov	r0, r4	@, ret
	sub	sp, fp, #16
	ldmfd	sp, {r4, fp, sp, pc}
.L782:
	.align	2
.L781:
	.word	.LANCHOR0+1820
	.fnend
	.size	DRV_CA_OTP_V200_SetBootSelLock_1, .-DRV_CA_OTP_V200_SetBootSelLock_1
	.align	2
	.global	DRV_CA_OTP_V200_SetBootSelLock_0
	.type	DRV_CA_OTP_V200_SetBootSelLock_0, %function
DRV_CA_OTP_V200_SetBootSelLock_0:
	.fnstart
.LFB890:
	@ args = 0, pretend = 0, frame = 0
	@ frame_needed = 1, uses_anonymous_args = 0
	.movsp ip
	mov	ip, sp	@,
	stmfd	sp!, {r4, fp, ip, lr, pc}	@,
	.pad #4
	.save {r4, fp, ip, lr}
	.setfp fp, ip, #-4
	sub	fp, ip, #4	@,,
	.pad #12
	sub	sp, sp, #12	@,,
	push	{lr}
	bl	__gnu_mcount_nc
	movw	r4, #:lower16:g_pOTPExportFunctionList	@ tmp138,
	movt	r4, #:upper16:g_pOTPExportFunctionList	@ tmp138,
	mov	r0, #8	@,
	mov	r1, #1	@,
	ldr	r2, [r4, #0]	@ g_pOTPExportFunctionList, g_pOTPExportFunctionList
	ldr	r3, [r2, #8]	@ <variable>.HAL_OTP_V200_Write, <variable>.HAL_OTP_V200_Write
	blx	r3	@ <variable>.HAL_OTP_V200_Write
	subs	r4, r0, #0	@ ret,
	beq	.L784	@,
	mov	r0, #1	@,
	mov	r1, #97	@,
	ldr	r2, .L786	@,
	movw	r3, #4209	@,
	movw	ip, #:lower16:.LC0	@ tmp142,
	movt	ip, #:upper16:.LC0	@ tmp142,
	str	ip, [sp, #0]	@ tmp142,
	bl	HI_LogOut	@
.L784:
	mov	r0, r4	@, ret
	sub	sp, fp, #16
	ldmfd	sp, {r4, fp, sp, pc}
.L787:
	.align	2
.L786:
	.word	.LANCHOR0+1856
	.fnend
	.size	DRV_CA_OTP_V200_SetBootSelLock_0, .-DRV_CA_OTP_V200_SetBootSelLock_0
	.align	2
	.global	DRV_CA_OTP_V200_SetLpcMasterEn
	.type	DRV_CA_OTP_V200_SetLpcMasterEn, %function
DRV_CA_OTP_V200_SetLpcMasterEn:
	.fnstart
.LFB888:
	@ args = 0, pretend = 0, frame = 16
	@ frame_needed = 1, uses_anonymous_args = 0
	.movsp ip
	mov	ip, sp	@,
	stmfd	sp!, {r4, r5, fp, ip, lr, pc}	@,
	.pad #4
	.save {r4, r5, fp, ip, lr}
	.setfp fp, ip, #-4
	sub	fp, ip, #4	@,,
	.pad #24
	sub	sp, sp, #24	@,,
	push	{lr}
	bl	__gnu_mcount_nc
	cmp	r0, #1	@ u32LpcMasterDisable,
	mov	r4, r0	@ u32LpcMasterDisable, u32LpcMasterDisable
	movwhi	r4, #:lower16:-2142371835	@ ret,
	movthi	r4, #:upper16:-2142371835	@ ret,
	bls	.L795	@,
.L790:
	mov	r0, r4	@, ret
	sub	sp, fp, #20
	ldmfd	sp, {r4, r5, fp, sp, pc}
.L795:
	movw	r5, #:lower16:g_pOTPExportFunctionList	@ tmp180,
	movt	r5, #:upper16:g_pOTPExportFunctionList	@ tmp180,
	mov	r0, #12	@,
	ldr	ip, [r5, #0]	@ g_pOTPExportFunctionList, g_pOTPExportFunctionList
	ldr	r3, [ip, #0]	@ <variable>.HAL_OTP_V200_Read, <variable>.HAL_OTP_V200_Read
	blx	r3	@ <variable>.HAL_OTP_V200_Read
	ubfx	r1, r0, #16, #8	@ tmp142, D.22564,,
	str	r0, [fp, #-36]	@ D.22564, PVLOCK_1.u32
	and	r2, r1, #2	@ tmp144, tmp142,
	uxtb	r2, r2	@ tmp145, tmp144
	cmp	r2, #0	@ tmp145,
	bne	.L796	@,
	cmp	r4, #0	@ u32LpcMasterDisable,
	beq	.L793	@,
	ldr	r3, [r5, #0]	@ g_pOTPExportFunctionList, g_pOTPExportFunctionList
	mov	ip, #2	@ tmp156,
	str	r2, [fp, #-28]	@ tmp145, PV_1.u32
	mov	r0, #4	@,
	strb	ip, [fp, #-26]	@ tmp156,
	ldr	r1, [fp, #-28]	@, PV_1.u32
	ldr	r4, [r3, #8]	@ <variable>.HAL_OTP_V200_Write, <variable>.HAL_OTP_V200_Write
	blx	r4	@ <variable>.HAL_OTP_V200_Write
	subs	r4, r0, #0	@ ret,
	bne	.L797	@,
.L793:
	ldr	r1, [r5, #0]	@ g_pOTPExportFunctionList, g_pOTPExportFunctionList
	mov	r4, #0	@ tmp166,
	mov	r0, #2	@ tmp169,
	str	r4, [fp, #-36]	@ tmp166, PVLOCK_1.u32
	strb	r0, [fp, #-34]	@ tmp169,
	mov	r0, #12	@,
	ldr	r2, [r1, #8]	@ <variable>.HAL_OTP_V200_Write, <variable>.HAL_OTP_V200_Write
	ldr	r1, [fp, #-36]	@, PVLOCK_1.u32
	blx	r2	@ <variable>.HAL_OTP_V200_Write
	subs	r4, r0, #0	@ ret,
	beq	.L790	@,
	mov	r0, #1	@,
	mov	r1, #97	@,
	ldr	r2, .L798	@,
	movw	r3, #4174	@,
	movw	ip, #:lower16:.LC0	@ tmp178,
	movt	ip, #:upper16:.LC0	@ tmp178,
	str	ip, [sp, #0]	@ tmp178,
	bl	HI_LogOut	@
	b	.L790	@
.L796:
	ldr	lr, [r5, #0]	@ g_pOTPExportFunctionList, g_pOTPExportFunctionList
	mov	r0, #4	@,
	ldr	r1, [lr, #0]	@ <variable>.HAL_OTP_V200_Read, <variable>.HAL_OTP_V200_Read
	blx	r1	@ <variable>.HAL_OTP_V200_Read
	movw	r2, #:lower16:-2142371830	@ tmp182,
	movt	r2, #:upper16:-2142371830	@ tmp182,
	ubfx	r0, r0, #17, #1	@ tmp152,,,
	cmp	r0, r4	@ tmp152, u32LpcMasterDisable
	movne	r4, r2	@ ret, tmp182
	moveq	r4, #0	@ ret,
	b	.L790	@
.L797:
	mov	r0, #1	@,
	mov	r1, #97	@,
	ldr	r2, .L798	@,
	movw	r3, #4163	@,
	movw	lr, #:lower16:.LC0	@ tmp165,
	movt	lr, #:upper16:.LC0	@ tmp165,
	str	lr, [sp, #0]	@ tmp165,
	bl	HI_LogOut	@
	b	.L790	@
.L799:
	.align	2
.L798:
	.word	.LANCHOR0+1892
	.fnend
	.size	DRV_CA_OTP_V200_SetLpcMasterEn, .-DRV_CA_OTP_V200_SetLpcMasterEn
	.align	2
	.global	DRV_CA_OTP_V200_SetLpcEn
	.type	DRV_CA_OTP_V200_SetLpcEn, %function
DRV_CA_OTP_V200_SetLpcEn:
	.fnstart
.LFB886:
	@ args = 0, pretend = 0, frame = 16
	@ frame_needed = 1, uses_anonymous_args = 0
	.movsp ip
	mov	ip, sp	@,
	stmfd	sp!, {r4, r5, fp, ip, lr, pc}	@,
	.pad #4
	.save {r4, r5, fp, ip, lr}
	.setfp fp, ip, #-4
	sub	fp, ip, #4	@,,
	.pad #24
	sub	sp, sp, #24	@,,
	push	{lr}
	bl	__gnu_mcount_nc
	cmp	r0, #1	@ u32LpcDisable,
	mov	r4, r0	@ u32LpcDisable, u32LpcDisable
	movwhi	r4, #:lower16:-2142371835	@ ret,
	movthi	r4, #:upper16:-2142371835	@ ret,
	bls	.L807	@,
.L802:
	mov	r0, r4	@, ret
	sub	sp, fp, #20
	ldmfd	sp, {r4, r5, fp, sp, pc}
.L807:
	movw	r5, #:lower16:g_pOTPExportFunctionList	@ tmp180,
	movt	r5, #:upper16:g_pOTPExportFunctionList	@ tmp180,
	mov	r0, #12	@,
	ldr	r1, [r5, #0]	@ g_pOTPExportFunctionList, g_pOTPExportFunctionList
	ldr	r3, [r1, #0]	@ <variable>.HAL_OTP_V200_Read, <variable>.HAL_OTP_V200_Read
	blx	r3	@ <variable>.HAL_OTP_V200_Read
	ubfx	r2, r0, #16, #1	@ tmp145, D.22518,,
	str	r0, [fp, #-36]	@ D.22518, PVLOCK_1.u32
	cmp	r2, #0	@ tmp145,
	bne	.L808	@,
	cmp	r4, #0	@ u32LpcDisable,
	beq	.L805	@,
	ldr	r3, [r5, #0]	@ g_pOTPExportFunctionList, g_pOTPExportFunctionList
	mov	r1, #1	@ tmp156,
	str	r2, [fp, #-28]	@ tmp145, PV_1.u32
	mov	r0, #4	@,
	strb	r1, [fp, #-26]	@ tmp156,
	ldr	r1, [fp, #-28]	@, PV_1.u32
	ldr	r4, [r3, #8]	@ <variable>.HAL_OTP_V200_Write, <variable>.HAL_OTP_V200_Write
	blx	r4	@ <variable>.HAL_OTP_V200_Write
	subs	r4, r0, #0	@ ret,
	bne	.L809	@,
.L805:
	ldr	lr, [r5, #0]	@ g_pOTPExportFunctionList, g_pOTPExportFunctionList
	mov	r4, #0	@ tmp166,
	mov	r0, #1	@ tmp169,
	str	r4, [fp, #-36]	@ tmp166, PVLOCK_1.u32
	strb	r0, [fp, #-34]	@ tmp169,
	mov	r0, #12	@,
	ldr	r2, [lr, #8]	@ <variable>.HAL_OTP_V200_Write, <variable>.HAL_OTP_V200_Write
	ldr	r1, [fp, #-36]	@, PVLOCK_1.u32
	blx	r2	@ <variable>.HAL_OTP_V200_Write
	subs	r4, r0, #0	@ ret,
	beq	.L802	@,
	mov	r0, #1	@,
	mov	r1, #97	@,
	ldr	r2, .L810	@,
	movw	r3, #4103	@,
	movw	ip, #:lower16:.LC0	@ tmp178,
	movt	ip, #:upper16:.LC0	@ tmp178,
	str	ip, [sp, #0]	@ tmp178,
	bl	HI_LogOut	@
	b	.L802	@
.L808:
	ldr	lr, [r5, #0]	@ g_pOTPExportFunctionList, g_pOTPExportFunctionList
	mov	r0, #4	@,
	ldr	ip, [lr, #0]	@ <variable>.HAL_OTP_V200_Read, <variable>.HAL_OTP_V200_Read
	blx	ip	@ <variable>.HAL_OTP_V200_Read
	movw	r2, #:lower16:-2142371830	@ tmp182,
	movt	r2, #:upper16:-2142371830	@ tmp182,
	ubfx	r0, r0, #16, #1	@ tmp152,,,
	cmp	r0, r4	@ tmp152, u32LpcDisable
	movne	r4, r2	@ ret, tmp182
	moveq	r4, #0	@ ret,
	b	.L802	@
.L809:
	mov	r0, #1	@,
	mov	r1, #97	@,
	ldr	r2, .L810	@,
	movw	r3, #4092	@,
	movw	ip, #:lower16:.LC0	@ tmp165,
	movt	ip, #:upper16:.LC0	@ tmp165,
	str	ip, [sp, #0]	@ tmp165,
	bl	HI_LogOut	@
	b	.L802	@
.L811:
	.align	2
.L810:
	.word	.LANCHOR0+1924
	.fnend
	.size	DRV_CA_OTP_V200_SetLpcEn, .-DRV_CA_OTP_V200_SetLpcEn
	.align	2
	.global	DRV_CA_OTP_V200_SetCsa3En
	.type	DRV_CA_OTP_V200_SetCsa3En, %function
DRV_CA_OTP_V200_SetCsa3En:
	.fnstart
.LFB884:
	@ args = 0, pretend = 0, frame = 0
	@ frame_needed = 1, uses_anonymous_args = 0
	.movsp ip
	mov	ip, sp	@,
	stmfd	sp!, {r4, fp, ip, lr, pc}	@,
	.pad #4
	.save {r4, fp, ip, lr}
	.setfp fp, ip, #-4
	sub	fp, ip, #4	@,,
	.pad #12
	sub	sp, sp, #12	@,,
	push	{lr}
	bl	__gnu_mcount_nc
	movw	r4, #:lower16:g_pOTPExportFunctionList	@ tmp138,
	movt	r4, #:upper16:g_pOTPExportFunctionList	@ tmp138,
	mov	r0, #24	@,
	mov	r1, #16	@,
	ldr	r2, [r4, #0]	@ g_pOTPExportFunctionList, g_pOTPExportFunctionList
	ldr	r3, [r2, #8]	@ <variable>.HAL_OTP_V200_Write, <variable>.HAL_OTP_V200_Write
	blx	r3	@ <variable>.HAL_OTP_V200_Write
	subs	r4, r0, #0	@ ret,
	beq	.L813	@,
	mov	r0, #1	@,
	mov	r1, #97	@,
	ldr	r2, .L815	@,
	movw	r3, #4034	@,
	movw	ip, #:lower16:.LC0	@ tmp142,
	movt	ip, #:upper16:.LC0	@ tmp142,
	str	ip, [sp, #0]	@ tmp142,
	bl	HI_LogOut	@
.L813:
	mov	r0, r4	@, ret
	sub	sp, fp, #16
	ldmfd	sp, {r4, fp, sp, pc}
.L816:
	.align	2
.L815:
	.word	.LANCHOR0+1952
	.fnend
	.size	DRV_CA_OTP_V200_SetCsa3En, .-DRV_CA_OTP_V200_SetCsa3En
	.align	2
	.global	DRV_CA_OTP_V200_SetLowPowerDisable
	.type	DRV_CA_OTP_V200_SetLowPowerDisable, %function
DRV_CA_OTP_V200_SetLowPowerDisable:
	.fnstart
.LFB882:
	@ args = 0, pretend = 0, frame = 0
	@ frame_needed = 1, uses_anonymous_args = 0
	.movsp ip
	mov	ip, sp	@,
	stmfd	sp!, {r4, r5, fp, ip, lr, pc}	@,
	.pad #4
	.save {r4, r5, fp, ip, lr}
	.setfp fp, ip, #-4
	sub	fp, ip, #4	@,,
	.pad #8
	sub	sp, sp, #8	@,,
	push	{lr}
	bl	__gnu_mcount_nc
	cmp	r0, #1	@ u32Flag,
	mov	r4, r0	@ u32Flag, u32Flag
	movwhi	r4, #:lower16:-2142371835	@ ret,
	movthi	r4, #:upper16:-2142371835	@ ret,
	bls	.L824	@,
.L819:
	mov	r0, r4	@, ret
	sub	sp, fp, #20
	ldmfd	sp, {r4, r5, fp, sp, pc}
.L824:
	movw	r5, #:lower16:g_pOTPExportFunctionList	@ tmp169,
	movt	r5, #:upper16:g_pOTPExportFunctionList	@ tmp169,
	mov	r0, #8	@,
	ldr	r1, [r5, #0]	@ g_pOTPExportFunctionList, g_pOTPExportFunctionList
	ldr	r3, [r1, #0]	@ <variable>.HAL_OTP_V200_Read, <variable>.HAL_OTP_V200_Read
	blx	r3	@ <variable>.HAL_OTP_V200_Read
	and	r0, r0, #16	@ tmp145,,
	uxtb	r0, r0	@ tmp146, tmp145
	cmp	r0, #0	@ tmp146,
	bne	.L825	@,
	cmp	r4, #0	@ u32Flag,
	beq	.L822	@,
	ldr	r2, [r5, #0]	@ g_pOTPExportFunctionList, g_pOTPExportFunctionList
	mov	r1, #16	@,
	ldr	r4, [r2, #8]	@ <variable>.HAL_OTP_V200_Write, <variable>.HAL_OTP_V200_Write
	blx	r4	@ <variable>.HAL_OTP_V200_Write
	subs	r4, r0, #0	@ ret,
	bne	.L826	@,
.L822:
	ldr	lr, [r5, #0]	@ g_pOTPExportFunctionList, g_pOTPExportFunctionList
	mov	r0, #8	@,
	mov	r1, #16	@,
	ldr	r3, [lr, #8]	@ <variable>.HAL_OTP_V200_Write, <variable>.HAL_OTP_V200_Write
	blx	r3	@ <variable>.HAL_OTP_V200_Write
	subs	r4, r0, #0	@ ret,
	beq	.L819	@,
	mov	r0, #1	@,
	mov	r1, #97	@,
	ldr	r2, .L827	@,
	movw	r3, #3999	@,
	movw	ip, #:lower16:.LC0	@ tmp167,
	movt	ip, #:upper16:.LC0	@ tmp167,
	str	ip, [sp, #0]	@ tmp167,
	bl	HI_LogOut	@
	b	.L819	@
.L825:
	ldr	lr, [r5, #0]	@ g_pOTPExportFunctionList, g_pOTPExportFunctionList
	mov	r0, #0	@,
	ldr	r3, [lr, #0]	@ <variable>.HAL_OTP_V200_Read, <variable>.HAL_OTP_V200_Read
	blx	r3	@ <variable>.HAL_OTP_V200_Read
	movw	r2, #:lower16:-2142371830	@ tmp171,
	movt	r2, #:upper16:-2142371830	@ tmp171,
	ubfx	ip, r0, #4, #1	@ tmp151,,,
	cmp	ip, r4	@ tmp151, u32Flag
	movne	r4, r2	@ ret, tmp171
	moveq	r4, #0	@ ret,
	b	.L819	@
.L826:
	mov	r0, #1	@,
	mov	r1, #97	@,
	ldr	r2, .L827	@,
	movw	r3, #3988	@,
	movw	ip, #:lower16:.LC0	@ tmp159,
	movt	ip, #:upper16:.LC0	@ tmp159,
	str	ip, [sp, #0]	@ tmp159,
	bl	HI_LogOut	@
	b	.L819	@
.L828:
	.align	2
.L827:
	.word	.LANCHOR0+1980
	.fnend
	.size	DRV_CA_OTP_V200_SetLowPowerDisable, .-DRV_CA_OTP_V200_SetLowPowerDisable
	.align	2
	.global	DRV_CA_OTP_V200_SetChipIdLock
	.type	DRV_CA_OTP_V200_SetChipIdLock, %function
DRV_CA_OTP_V200_SetChipIdLock:
	.fnstart
.LFB878:
	@ args = 0, pretend = 0, frame = 0
	@ frame_needed = 1, uses_anonymous_args = 0
	.movsp ip
	mov	ip, sp	@,
	stmfd	sp!, {r4, fp, ip, lr, pc}	@,
	.pad #4
	.save {r4, fp, ip, lr}
	.setfp fp, ip, #-4
	sub	fp, ip, #4	@,,
	.pad #12
	sub	sp, sp, #12	@,,
	push	{lr}
	bl	__gnu_mcount_nc
	movw	r4, #:lower16:g_pOTPExportFunctionList	@ tmp138,
	movt	r4, #:upper16:g_pOTPExportFunctionList	@ tmp138,
	mov	r0, #16	@,
	mov	r1, #2	@,
	ldr	r2, [r4, #0]	@ g_pOTPExportFunctionList, g_pOTPExportFunctionList
	ldr	r3, [r2, #8]	@ <variable>.HAL_OTP_V200_Write, <variable>.HAL_OTP_V200_Write
	blx	r3	@ <variable>.HAL_OTP_V200_Write
	subs	r4, r0, #0	@ ret,
	beq	.L830	@,
	mov	r0, #1	@,
	mov	r1, #97	@,
	ldr	r2, .L832	@,
	movw	r3, #3829	@,
	movw	ip, #:lower16:.LC0	@ tmp142,
	movt	ip, #:upper16:.LC0	@ tmp142,
	str	ip, [sp, #0]	@ tmp142,
	bl	HI_LogOut	@
.L830:
	mov	r0, r4	@, ret
	sub	sp, fp, #16
	ldmfd	sp, {r4, fp, sp, pc}
.L833:
	.align	2
.L832:
	.word	.LANCHOR0+2016
	.fnend
	.size	DRV_CA_OTP_V200_SetChipIdLock, .-DRV_CA_OTP_V200_SetChipIdLock
	.align	2
	.global	DRV_CA_OTP_V200_SetUniqueChipId
	.type	DRV_CA_OTP_V200_SetUniqueChipId, %function
DRV_CA_OTP_V200_SetUniqueChipId:
	.fnstart
.LFB875:
	@ args = 0, pretend = 0, frame = 0
	@ frame_needed = 1, uses_anonymous_args = 0
	.movsp ip
	mov	ip, sp	@,
	stmfd	sp!, {r4, r5, r6, fp, ip, lr, pc}	@,
	.pad #4
	.save {r4, r5, r6, fp, ip, lr}
	.setfp fp, ip, #-4
	sub	fp, ip, #4	@,,
	.pad #12
	sub	sp, sp, #12	@,,
	push	{lr}
	bl	__gnu_mcount_nc
	movw	r5, #:lower16:g_pOTPExportFunctionList	@ tmp139,
	movt	r5, #:upper16:g_pOTPExportFunctionList	@ tmp139,
	mov	r6, r0	@ pu8Id, pu8Id
	mov	r0, #16	@,
	ldr	r1, [r5, #0]	@ g_pOTPExportFunctionList, g_pOTPExportFunctionList
	ldr	r3, [r1, #0]	@ <variable>.HAL_OTP_V200_Read, <variable>.HAL_OTP_V200_Read
	blx	r3	@ <variable>.HAL_OTP_V200_Read
	tst	r0, #2	@,
	movwne	r4, #:lower16:-2142371830	@ ret,
	movtne	r4, #:upper16:-2142371830	@ ret,
	bne	.L836	@,
	ldr	r4, [r5, #0]	@ g_pOTPExportFunctionList, g_pOTPExportFunctionList
	mov	r0, #104	@,
	ldrb	r1, [r6, #0]	@ zero_extendqisi2	@,* pu8Id
	ldr	r2, [r4, #12]	@ <variable>.HAL_OTP_V200_WriteByte, <variable>.HAL_OTP_V200_WriteByte
	blx	r2	@ <variable>.HAL_OTP_V200_WriteByte
	subs	r4, r0, #0	@ ret,
	bne	.L837	@,
	ldr	lr, [r5, #0]	@ g_pOTPExportFunctionList, g_pOTPExportFunctionList
	mov	r0, #105	@,
	ldrb	r1, [r6, #1]	@ zero_extendqisi2	@,
	ldr	ip, [lr, #12]	@ <variable>.HAL_OTP_V200_WriteByte, <variable>.HAL_OTP_V200_WriteByte
	blx	ip	@ <variable>.HAL_OTP_V200_WriteByte
	subs	r4, r0, #0	@ ret,
	bne	.L837	@,
	ldr	r2, [r5, #0]	@ g_pOTPExportFunctionList, g_pOTPExportFunctionList
	mov	r0, #106	@,
	ldrb	r1, [r6, #2]	@ zero_extendqisi2	@,
	ldr	r3, [r2, #12]	@ <variable>.HAL_OTP_V200_WriteByte, <variable>.HAL_OTP_V200_WriteByte
	blx	r3	@ <variable>.HAL_OTP_V200_WriteByte
	subs	r4, r0, #0	@ ret,
	bne	.L837	@,
	ldr	ip, [r5, #0]	@ g_pOTPExportFunctionList, g_pOTPExportFunctionList
	mov	r0, #107	@,
	ldrb	r1, [r6, #3]	@ zero_extendqisi2	@,
	ldr	r4, [ip, #12]	@ <variable>.HAL_OTP_V200_WriteByte, <variable>.HAL_OTP_V200_WriteByte
	blx	r4	@ <variable>.HAL_OTP_V200_WriteByte
	subs	r4, r0, #0	@ ret,
	bne	.L837	@,
	ldr	lr, [r5, #0]	@ g_pOTPExportFunctionList, g_pOTPExportFunctionList
	mov	r0, #108	@,
	ldrb	r1, [r6, #4]	@ zero_extendqisi2	@,
	ldr	r3, [lr, #12]	@ <variable>.HAL_OTP_V200_WriteByte, <variable>.HAL_OTP_V200_WriteByte
	blx	r3	@ <variable>.HAL_OTP_V200_WriteByte
	subs	r4, r0, #0	@ ret,
	bne	.L837	@,
	ldr	r4, [r5, #0]	@ g_pOTPExportFunctionList, g_pOTPExportFunctionList
	mov	r0, #109	@,
	ldrb	r1, [r6, #5]	@ zero_extendqisi2	@,
	ldr	r2, [r4, #12]	@ <variable>.HAL_OTP_V200_WriteByte, <variable>.HAL_OTP_V200_WriteByte
	blx	r2	@ <variable>.HAL_OTP_V200_WriteByte
	subs	r4, r0, #0	@ ret,
	bne	.L837	@,
	ldr	r3, [r5, #0]	@ g_pOTPExportFunctionList, g_pOTPExportFunctionList
	mov	r0, #110	@,
	ldrb	r1, [r6, #6]	@ zero_extendqisi2	@,
	ldr	ip, [r3, #12]	@ <variable>.HAL_OTP_V200_WriteByte, <variable>.HAL_OTP_V200_WriteByte
	blx	ip	@ <variable>.HAL_OTP_V200_WriteByte
	subs	r4, r0, #0	@ ret,
	bne	.L837	@,
	ldr	lr, [r5, #0]	@ g_pOTPExportFunctionList, g_pOTPExportFunctionList
	mov	r0, #111	@,
	ldrb	r1, [r6, #7]	@ zero_extendqisi2	@,
	ldr	r2, [lr, #12]	@ <variable>.HAL_OTP_V200_WriteByte, <variable>.HAL_OTP_V200_WriteByte
	blx	r2	@ <variable>.HAL_OTP_V200_WriteByte
	subs	r4, r0, #0	@ ret,
	bne	.L837	@,
	ldr	r3, [r5, #0]	@ g_pOTPExportFunctionList, g_pOTPExportFunctionList
	mov	r0, #16	@,
	mov	r1, #2	@,
	ldr	r4, [r3, #8]	@ <variable>.HAL_OTP_V200_Write, <variable>.HAL_OTP_V200_Write
	blx	r4	@ <variable>.HAL_OTP_V200_Write
	subs	r4, r0, #0	@ ret,
	bne	.L840	@,
.L836:
	mov	r0, r4	@, ret
	sub	sp, fp, #24
	ldmfd	sp, {r4, r5, r6, fp, sp, pc}
.L840:
	mov	r0, #1	@,
	mov	r1, #97	@,
	ldr	r2, .L841	@,
	movw	r3, #3781	@,
	movw	lr, #:lower16:.LC0	@ tmp186,
	movt	lr, #:upper16:.LC0	@ tmp186,
	str	lr, [sp, #0]	@ tmp186,
	bl	HI_LogOut	@
	b	.L836	@
.L837:
	mov	r0, #1	@,
	mov	r1, #97	@,
	ldr	r2, .L841	@,
	movw	r3, #3769	@,
	movw	ip, #:lower16:.LC0	@ tmp179,
	movt	ip, #:upper16:.LC0	@ tmp179,
	str	ip, [sp, #0]	@ tmp179,
	bl	HI_LogOut	@
	b	.L836	@
.L842:
	.align	2
.L841:
	.word	.LANCHOR0+2048
	.fnend
	.size	DRV_CA_OTP_V200_SetUniqueChipId, .-DRV_CA_OTP_V200_SetUniqueChipId
	.align	2
	.global	DRV_CA_OTP_V200_SetChipId
	.type	DRV_CA_OTP_V200_SetChipId, %function
DRV_CA_OTP_V200_SetChipId:
	.fnstart
.LFB874:
	@ args = 0, pretend = 0, frame = 0
	@ frame_needed = 1, uses_anonymous_args = 0
	.movsp ip
	mov	ip, sp	@,
	stmfd	sp!, {r4, r5, fp, ip, lr, pc}	@,
	.pad #4
	.save {r4, r5, fp, ip, lr}
	.setfp fp, ip, #-4
	sub	fp, ip, #4	@,,
	.pad #8
	sub	sp, sp, #8	@,,
	push	{lr}
	bl	__gnu_mcount_nc
	movw	r5, #:lower16:g_pOTPExportFunctionList	@ tmp140,
	movt	r5, #:upper16:g_pOTPExportFunctionList	@ tmp140,
	mov	r4, r0	@ u32Id, u32Id
	mov	r0, #16	@,
	ldr	r1, [r5, #0]	@ g_pOTPExportFunctionList, g_pOTPExportFunctionList
	ldr	r3, [r1, #0]	@ <variable>.HAL_OTP_V200_Read, <variable>.HAL_OTP_V200_Read
	blx	r3	@ <variable>.HAL_OTP_V200_Read
	tst	r0, #2	@,
	beq	.L844	@,
	ldr	lr, [r5, #0]	@ g_pOTPExportFunctionList, g_pOTPExportFunctionList
	mov	r0, #104	@,
	ldr	ip, [lr, #0]	@ <variable>.HAL_OTP_V200_Read, <variable>.HAL_OTP_V200_Read
	blx	ip	@ <variable>.HAL_OTP_V200_Read
	movw	r2, #:lower16:-2142371830	@ tmp164,
	movt	r2, #:upper16:-2142371830	@ tmp164,
	cmp	r0, r4	@, u32Id
	movne	r4, r2	@ ret, tmp164
	moveq	r4, #0	@ ret,
.L846:
	mov	r0, r4	@, ret
	sub	sp, fp, #20
	ldmfd	sp, {r4, r5, fp, sp, pc}
.L844:
	ldr	r3, [r5, #0]	@ g_pOTPExportFunctionList, g_pOTPExportFunctionList
	mov	r1, r4	@, u32Id
	mov	r0, #104	@,
	ldr	r4, [r3, #8]	@ <variable>.HAL_OTP_V200_Write, <variable>.HAL_OTP_V200_Write
	blx	r4	@ <variable>.HAL_OTP_V200_Write
	subs	r4, r0, #0	@ ret,
	bne	.L849	@,
	ldr	lr, [r5, #0]	@ g_pOTPExportFunctionList, g_pOTPExportFunctionList
	mov	r0, #16	@,
	mov	r1, #2	@,
	ldr	r2, [lr, #8]	@ <variable>.HAL_OTP_V200_Write, <variable>.HAL_OTP_V200_Write
	blx	r2	@ <variable>.HAL_OTP_V200_Write
	subs	r4, r0, #0	@ ret,
	beq	.L846	@,
	mov	r0, #1	@,
	mov	r1, #97	@,
	ldr	r2, .L850	@,
	movw	r3, #3743	@,
	movw	ip, #:lower16:.LC0	@ tmp161,
	movt	ip, #:upper16:.LC0	@ tmp161,
	str	ip, [sp, #0]	@ tmp161,
	bl	HI_LogOut	@
	b	.L846	@
.L849:
	mov	r0, #1	@,
	mov	r1, #97	@,
	ldr	r2, .L850	@,
	movw	r3, #3733	@,
	movw	ip, #:lower16:.LC0	@ tmp154,
	movt	ip, #:upper16:.LC0	@ tmp154,
	str	ip, [sp, #0]	@ tmp154,
	bl	HI_LogOut	@
	b	.L846	@
.L851:
	.align	2
.L850:
	.word	.LANCHOR0+2080
	.fnend
	.size	DRV_CA_OTP_V200_SetChipId, .-DRV_CA_OTP_V200_SetChipId
	.align	2
	.global	DRV_CA_OTP_V200_LockRSAKey
	.type	DRV_CA_OTP_V200_LockRSAKey, %function
DRV_CA_OTP_V200_LockRSAKey:
	.fnstart
.LFB872:
	@ args = 0, pretend = 0, frame = 0
	@ frame_needed = 1, uses_anonymous_args = 0
	.movsp ip
	mov	ip, sp	@,
	stmfd	sp!, {r4, fp, ip, lr, pc}	@,
	.pad #4
	.save {r4, fp, ip, lr}
	.setfp fp, ip, #-4
	sub	fp, ip, #4	@,,
	.pad #12
	sub	sp, sp, #12	@,,
	push	{lr}
	bl	__gnu_mcount_nc
	movw	r4, #:lower16:g_pOTPExportFunctionList	@ tmp138,
	movt	r4, #:upper16:g_pOTPExportFunctionList	@ tmp138,
	mov	r0, #20	@,
	mov	r1, #1	@,
	ldr	r2, [r4, #0]	@ g_pOTPExportFunctionList, g_pOTPExportFunctionList
	ldr	r3, [r2, #8]	@ <variable>.HAL_OTP_V200_Write, <variable>.HAL_OTP_V200_Write
	blx	r3	@ <variable>.HAL_OTP_V200_Write
	subs	r4, r0, #0	@ ret,
	beq	.L853	@,
	mov	r0, #1	@,
	mov	r1, #97	@,
	ldr	r2, .L855	@,
	movw	r3, #3688	@,
	movw	ip, #:lower16:.LC0	@ tmp143,
	movt	ip, #:upper16:.LC0	@ tmp143,
	str	ip, [sp, #0]	@ tmp143,
	bl	HI_LogOut	@
.L853:
	mov	r0, r4	@, ret
	sub	sp, fp, #16
	ldmfd	sp, {r4, fp, sp, pc}
.L856:
	.align	2
.L855:
	.word	.LANCHOR0+2108
	.fnend
	.size	DRV_CA_OTP_V200_LockRSAKey, .-DRV_CA_OTP_V200_LockRSAKey
	.align	2
	.global	DRV_CA_OTP_V200_GetRSAKeyN
	.type	DRV_CA_OTP_V200_GetRSAKeyN, %function
DRV_CA_OTP_V200_GetRSAKeyN:
	.fnstart
.LFB871:
	@ args = 0, pretend = 0, frame = 0
	@ frame_needed = 1, uses_anonymous_args = 0
	.movsp ip
	mov	ip, sp	@,
	stmfd	sp!, {r4, r5, r6, r7, fp, ip, lr, pc}	@,
	.pad #4
	.save {r4, r5, r6, r7, fp, ip, lr}
	.setfp fp, ip, #-4
	sub	fp, ip, #4	@,,
	.pad #8
	sub	sp, sp, #8	@,,
	push	{lr}
	bl	__gnu_mcount_nc
	subs	r7, r0, #0	@ pu8Key, pu8Key
	movweq	r0, #:lower16:-2142371835	@ ret,
	movteq	r0, #:upper16:-2142371835	@ ret,
	beq	.L859	@,
	movw	r6, #:lower16:g_pOTPExportFunctionList	@ tmp188,
	movt	r6, #:upper16:g_pOTPExportFunctionList	@ tmp188,
	mov	r0, #20	@,
	ldr	r1, [r6, #0]	@ g_pOTPExportFunctionList, g_pOTPExportFunctionList
	ldr	r3, [r1, #0]	@ <variable>.HAL_OTP_V200_Read, <variable>.HAL_OTP_V200_Read
	blx	r3	@ <variable>.HAL_OTP_V200_Read
	ands	r4, r0, #1	@ tmp175,,
	bne	.L865	@,
.L861:
	ldr	lr, [r6, #0]	@ g_pOTPExportFunctionList, g_pOTPExportFunctionList
	add	r0, r4, #768	@, i,
	add	r5, r4, #1	@ tmp189, i,
	ldr	r1, [lr, #4]	@ <variable>.HAL_OTP_V200_ReadByte, <variable>.HAL_OTP_V200_ReadByte
	blx	r1	@ <variable>.HAL_OTP_V200_ReadByte
	strb	r0, [r7, r4]	@,* i
	add	r0, r5, #768	@, tmp189,
	ldr	r3, [r6, #0]	@ g_pOTPExportFunctionList, g_pOTPExportFunctionList
	add	r4, r5, #1	@ i, tmp189,
	ldr	r2, [r3, #4]	@ <variable>.HAL_OTP_V200_ReadByte, <variable>.HAL_OTP_V200_ReadByte
	blx	r2	@ <variable>.HAL_OTP_V200_ReadByte
	cmp	r4, #256	@ i,
	strb	r0, [r7, r5]	@,
	bne	.L861	@,
	mov	r0, #0	@ ret,
.L859:
	sub	sp, fp, #28
	ldmfd	sp, {r4, r5, r6, r7, fp, sp, pc}
.L865:
	mov	r0, #1	@,
	mov	r1, #97	@,
	ldr	r2, .L866	@,
	movw	r3, #3665	@,
	movw	ip, #:lower16:.LC2	@ tmp180,
	movt	ip, #:upper16:.LC2	@ tmp180,
	str	ip, [sp, #0]	@ tmp180,
	bl	HI_LogOut	@
	mvn	r0, #0	@ ret,
	b	.L859	@
.L867:
	.align	2
.L866:
	.word	.LANCHOR0+2136
	.fnend
	.size	DRV_CA_OTP_V200_GetRSAKeyN, .-DRV_CA_OTP_V200_GetRSAKeyN
	.align	2
	.global	DRV_CA_OTP_V200_SetRSAKeyN
	.type	DRV_CA_OTP_V200_SetRSAKeyN, %function
DRV_CA_OTP_V200_SetRSAKeyN:
	.fnstart
.LFB870:
	@ args = 0, pretend = 0, frame = 0
	@ frame_needed = 1, uses_anonymous_args = 0
	.movsp ip
	mov	ip, sp	@,
	stmfd	sp!, {r4, r5, r6, r7, r8, fp, ip, lr, pc}	@,
	.pad #4
	.save {r4, r5, r6, r7, r8, fp, ip, lr}
	.setfp fp, ip, #-4
	sub	fp, ip, #4	@,,
	.pad #12
	sub	sp, sp, #12	@,,
	push	{lr}
	bl	__gnu_mcount_nc
	subs	r8, r0, #0	@ pu8Key, pu8Key
	movweq	r4, #:lower16:-2142371835	@ ret,
	movteq	r4, #:upper16:-2142371835	@ ret,
	beq	.L870	@,
	movw	r7, #:lower16:g_pOTPExportFunctionList	@ tmp161,
	movt	r7, #:upper16:g_pOTPExportFunctionList	@ tmp161,
	mov	r0, #20	@,
	ldr	r1, [r7, #0]	@ g_pOTPExportFunctionList, g_pOTPExportFunctionList
	ldr	r3, [r1, #0]	@ <variable>.HAL_OTP_V200_Read, <variable>.HAL_OTP_V200_Read
	blx	r3	@ <variable>.HAL_OTP_V200_Read
	ands	r5, r0, #1	@ tmp145,,
	beq	.L873	@,
	b	.L880	@
.L872:
	ldr	ip, [r7, #0]	@ g_pOTPExportFunctionList, g_pOTPExportFunctionList
	ldrb	r1, [r8, r6]	@ zero_extendqisi2	@,
	ldr	r3, [ip, #12]	@ <variable>.HAL_OTP_V200_WriteByte, <variable>.HAL_OTP_V200_WriteByte
	blx	r3	@ <variable>.HAL_OTP_V200_WriteByte
	subs	r4, r0, #0	@ ret,
	bne	.L878	@,
	cmp	r5, #256	@ i,
	beq	.L870	@,
.L873:
	ldr	r4, [r7, #0]	@ g_pOTPExportFunctionList, g_pOTPExportFunctionList
	add	r0, r5, #768	@, i,
	ldrb	r1, [r8, r5]	@ zero_extendqisi2	@,* i
	add	r6, r5, #1	@ tmp162, i,
	add	r5, r6, #1	@ i, tmp162,
	ldr	r2, [r4, #12]	@ <variable>.HAL_OTP_V200_WriteByte, <variable>.HAL_OTP_V200_WriteByte
	blx	r2	@ <variable>.HAL_OTP_V200_WriteByte
	subs	r4, r0, #0	@ ret,
	add	r0, r6, #768	@, tmp162,
	beq	.L872	@,
.L878:
	mov	r0, #1	@,
	mov	r1, #97	@,
	ldr	r2, .L881	@,
	movw	r3, #3643	@,
	movw	lr, #:lower16:.LC0	@ tmp159,
	movt	lr, #:upper16:.LC0	@ tmp159,
	str	lr, [sp, #0]	@ tmp159,
	bl	HI_LogOut	@
.L870:
	mov	r0, r4	@, ret
	sub	sp, fp, #32
	ldmfd	sp, {r4, r5, r6, r7, r8, fp, sp, pc}
.L880:
	mov	r0, #1	@,
	mov	r1, #97	@,
	ldr	r2, .L881	@,
	movw	r3, #3633	@,
	movw	ip, #:lower16:.LC3	@ tmp150,
	mvn	r4, #0	@ ret,
	movt	ip, #:upper16:.LC3	@ tmp150,
	str	ip, [sp, #0]	@ tmp150,
	bl	HI_LogOut	@
	b	.L870	@
.L882:
	.align	2
.L881:
	.word	.LANCHOR0+2164
	.fnend
	.size	DRV_CA_OTP_V200_SetRSAKeyN, .-DRV_CA_OTP_V200_SetRSAKeyN
	.align	2
	.global	DRV_CA_OTP_V200_GetRSAKeyE
	.type	DRV_CA_OTP_V200_GetRSAKeyE, %function
DRV_CA_OTP_V200_GetRSAKeyE:
	.fnstart
.LFB869:
	@ args = 0, pretend = 0, frame = 0
	@ frame_needed = 1, uses_anonymous_args = 0
	.movsp ip
	mov	ip, sp	@,
	stmfd	sp!, {r4, r5, r6, fp, ip, lr, pc}	@,
	.pad #4
	.save {r4, r5, r6, fp, ip, lr}
	.setfp fp, ip, #-4
	sub	fp, ip, #4	@,,
	.pad #12
	sub	sp, sp, #12	@,,
	push	{lr}
	bl	__gnu_mcount_nc
	subs	r5, r0, #0	@ pu8Key, pu8Key
	movweq	r3, #:lower16:-2142371835	@ ret,
	movteq	r3, #:upper16:-2142371835	@ ret,
	beq	.L885	@,
	movw	r4, #:lower16:g_pOTPExportFunctionList	@ tmp155,
	movt	r4, #:upper16:g_pOTPExportFunctionList	@ tmp155,
	mov	r0, #20	@,
	ldr	r1, [r4, #0]	@ g_pOTPExportFunctionList, g_pOTPExportFunctionList
	ldr	r3, [r1, #0]	@ <variable>.HAL_OTP_V200_Read, <variable>.HAL_OTP_V200_Read
	blx	r3	@ <variable>.HAL_OTP_V200_Read
	ands	r6, r0, #1	@ tmp160,,
	bne	.L888	@,
	ldr	lr, [r4, #0]	@ g_pOTPExportFunctionList, g_pOTPExportFunctionList
	mov	r0, #752	@,
	ldr	r1, [lr, #4]	@ <variable>.HAL_OTP_V200_ReadByte, <variable>.HAL_OTP_V200_ReadByte
	blx	r1	@ <variable>.HAL_OTP_V200_ReadByte
	strb	r0, [r5, #0]	@,* pu8Key
	movw	r0, #753	@,
	ldr	r3, [r4, #0]	@ g_pOTPExportFunctionList, g_pOTPExportFunctionList
	ldr	r2, [r3, #4]	@ <variable>.HAL_OTP_V200_ReadByte, <variable>.HAL_OTP_V200_ReadByte
	blx	r2	@ <variable>.HAL_OTP_V200_ReadByte
	strb	r0, [r5, #1]	@,
	movw	r0, #754	@,
	ldr	ip, [r4, #0]	@ g_pOTPExportFunctionList, g_pOTPExportFunctionList
	ldr	r1, [ip, #4]	@ <variable>.HAL_OTP_V200_ReadByte, <variable>.HAL_OTP_V200_ReadByte
	blx	r1	@ <variable>.HAL_OTP_V200_ReadByte
	strb	r0, [r5, #2]	@,
	movw	r0, #755	@,
	ldr	r3, [r4, #0]	@ g_pOTPExportFunctionList, g_pOTPExportFunctionList
	ldr	r2, [r3, #4]	@ <variable>.HAL_OTP_V200_ReadByte, <variable>.HAL_OTP_V200_ReadByte
	blx	r2	@ <variable>.HAL_OTP_V200_ReadByte
	strb	r0, [r5, #3]	@,
	mov	r0, #756	@,
	ldr	ip, [r4, #0]	@ g_pOTPExportFunctionList, g_pOTPExportFunctionList
	ldr	r1, [ip, #4]	@ <variable>.HAL_OTP_V200_ReadByte, <variable>.HAL_OTP_V200_ReadByte
	blx	r1	@ <variable>.HAL_OTP_V200_ReadByte
	strb	r0, [r5, #4]	@,
	movw	r0, #757	@,
	ldr	r3, [r4, #0]	@ g_pOTPExportFunctionList, g_pOTPExportFunctionList
	ldr	r2, [r3, #4]	@ <variable>.HAL_OTP_V200_ReadByte, <variable>.HAL_OTP_V200_ReadByte
	blx	r2	@ <variable>.HAL_OTP_V200_ReadByte
	strb	r0, [r5, #5]	@,
	movw	r0, #758	@,
	ldr	ip, [r4, #0]	@ g_pOTPExportFunctionList, g_pOTPExportFunctionList
	ldr	r1, [ip, #4]	@ <variable>.HAL_OTP_V200_ReadByte, <variable>.HAL_OTP_V200_ReadByte
	blx	r1	@ <variable>.HAL_OTP_V200_ReadByte
	strb	r0, [r5, #6]	@,
	movw	r0, #759	@,
	ldr	r3, [r4, #0]	@ g_pOTPExportFunctionList, g_pOTPExportFunctionList
	ldr	r2, [r3, #4]	@ <variable>.HAL_OTP_V200_ReadByte, <variable>.HAL_OTP_V200_ReadByte
	blx	r2	@ <variable>.HAL_OTP_V200_ReadByte
	strb	r0, [r5, #7]	@,
	mov	r0, #760	@,
	ldr	ip, [r4, #0]	@ g_pOTPExportFunctionList, g_pOTPExportFunctionList
	ldr	r1, [ip, #4]	@ <variable>.HAL_OTP_V200_ReadByte, <variable>.HAL_OTP_V200_ReadByte
	blx	r1	@ <variable>.HAL_OTP_V200_ReadByte
	strb	r0, [r5, #8]	@,
	movw	r0, #761	@,
	ldr	r3, [r4, #0]	@ g_pOTPExportFunctionList, g_pOTPExportFunctionList
	ldr	r2, [r3, #4]	@ <variable>.HAL_OTP_V200_ReadByte, <variable>.HAL_OTP_V200_ReadByte
	blx	r2	@ <variable>.HAL_OTP_V200_ReadByte
	strb	r0, [r5, #9]	@,
	movw	r0, #762	@,
	ldr	ip, [r4, #0]	@ g_pOTPExportFunctionList, g_pOTPExportFunctionList
	ldr	r1, [ip, #4]	@ <variable>.HAL_OTP_V200_ReadByte, <variable>.HAL_OTP_V200_ReadByte
	blx	r1	@ <variable>.HAL_OTP_V200_ReadByte
	strb	r0, [r5, #10]	@,
	movw	r0, #763	@,
	ldr	r3, [r4, #0]	@ g_pOTPExportFunctionList, g_pOTPExportFunctionList
	ldr	r2, [r3, #4]	@ <variable>.HAL_OTP_V200_ReadByte, <variable>.HAL_OTP_V200_ReadByte
	blx	r2	@ <variable>.HAL_OTP_V200_ReadByte
	strb	r0, [r5, #11]	@,
	mov	r0, #764	@,
	ldr	ip, [r4, #0]	@ g_pOTPExportFunctionList, g_pOTPExportFunctionList
	ldr	r1, [ip, #4]	@ <variable>.HAL_OTP_V200_ReadByte, <variable>.HAL_OTP_V200_ReadByte
	blx	r1	@ <variable>.HAL_OTP_V200_ReadByte
	strb	r0, [r5, #12]	@,
	movw	r0, #765	@,
	ldr	r3, [r4, #0]	@ g_pOTPExportFunctionList, g_pOTPExportFunctionList
	ldr	r2, [r3, #4]	@ <variable>.HAL_OTP_V200_ReadByte, <variable>.HAL_OTP_V200_ReadByte
	blx	r2	@ <variable>.HAL_OTP_V200_ReadByte
	strb	r0, [r5, #13]	@,
	movw	r0, #766	@,
	ldr	ip, [r4, #0]	@ g_pOTPExportFunctionList, g_pOTPExportFunctionList
	ldr	r1, [ip, #4]	@ <variable>.HAL_OTP_V200_ReadByte, <variable>.HAL_OTP_V200_ReadByte
	blx	r1	@ <variable>.HAL_OTP_V200_ReadByte
	strb	r0, [r5, #14]	@,
	movw	r0, #767	@,
	ldr	r3, [r4, #0]	@ g_pOTPExportFunctionList, g_pOTPExportFunctionList
	ldr	r2, [r3, #4]	@ <variable>.HAL_OTP_V200_ReadByte, <variable>.HAL_OTP_V200_ReadByte
	blx	r2	@ <variable>.HAL_OTP_V200_ReadByte
	mov	r3, r6	@ ret, tmp160
	strb	r0, [r5, #15]	@,
.L885:
	mov	r0, r3	@, ret
	sub	sp, fp, #24
	ldmfd	sp, {r4, r5, r6, fp, sp, pc}
.L888:
	movw	r3, #3606	@,
	mov	r0, #1	@,
	mov	r1, #97	@,
	ldr	r2, .L889	@,
	movw	ip, #:lower16:.LC4	@ tmp163,
	movt	ip, #:upper16:.LC4	@ tmp163,
	str	ip, [sp, #0]	@ tmp163,
	bl	HI_LogOut	@
	mvn	r3, #0	@ ret,
	b	.L885	@
.L890:
	.align	2
.L889:
	.word	.LANCHOR0+2192
	.fnend
	.size	DRV_CA_OTP_V200_GetRSAKeyE, .-DRV_CA_OTP_V200_GetRSAKeyE
	.align	2
	.global	DRV_CA_OTP_V200_SetRSAKeyE
	.type	DRV_CA_OTP_V200_SetRSAKeyE, %function
DRV_CA_OTP_V200_SetRSAKeyE:
	.fnstart
.LFB868:
	@ args = 0, pretend = 0, frame = 0
	@ frame_needed = 1, uses_anonymous_args = 0
	.movsp ip
	mov	ip, sp	@,
	stmfd	sp!, {r4, r5, r6, fp, ip, lr, pc}	@,
	.pad #4
	.save {r4, r5, r6, fp, ip, lr}
	.setfp fp, ip, #-4
	sub	fp, ip, #4	@,,
	.pad #12
	sub	sp, sp, #12	@,,
	push	{lr}
	bl	__gnu_mcount_nc
	subs	r5, r0, #0	@ pu8Key, pu8Key
	movweq	r4, #:lower16:-2142371835	@ ret,
	movteq	r4, #:upper16:-2142371835	@ ret,
	beq	.L893	@,
	movw	r6, #:lower16:g_pOTPExportFunctionList	@ tmp218,
	movt	r6, #:upper16:g_pOTPExportFunctionList	@ tmp218,
	mov	r0, #20	@,
	ldr	r1, [r6, #0]	@ g_pOTPExportFunctionList, g_pOTPExportFunctionList
	ldr	r3, [r1, #0]	@ <variable>.HAL_OTP_V200_Read, <variable>.HAL_OTP_V200_Read
	blx	r3	@ <variable>.HAL_OTP_V200_Read
	tst	r0, #1	@,
	bne	.L897	@,
	ldr	r4, [r6, #0]	@ g_pOTPExportFunctionList, g_pOTPExportFunctionList
	mov	r0, #752	@,
	ldrb	r1, [r5, #0]	@ zero_extendqisi2	@,* pu8Key
	ldr	r2, [r4, #12]	@ <variable>.HAL_OTP_V200_WriteByte, <variable>.HAL_OTP_V200_WriteByte
	blx	r2	@ <variable>.HAL_OTP_V200_WriteByte
	subs	r4, r0, #0	@ ret,
	bne	.L895	@,
	ldr	lr, [r6, #0]	@ g_pOTPExportFunctionList, g_pOTPExportFunctionList
	movw	r0, #753	@,
	ldrb	r1, [r5, #1]	@ zero_extendqisi2	@,
	ldr	r3, [lr, #12]	@ <variable>.HAL_OTP_V200_WriteByte, <variable>.HAL_OTP_V200_WriteByte
	blx	r3	@ <variable>.HAL_OTP_V200_WriteByte
	subs	r4, r0, #0	@ ret,
	bne	.L895	@,
	ldr	r2, [r6, #0]	@ g_pOTPExportFunctionList, g_pOTPExportFunctionList
	movw	r0, #754	@,
	ldrb	r1, [r5, #2]	@ zero_extendqisi2	@,
	ldr	ip, [r2, #12]	@ <variable>.HAL_OTP_V200_WriteByte, <variable>.HAL_OTP_V200_WriteByte
	blx	ip	@ <variable>.HAL_OTP_V200_WriteByte
	subs	r4, r0, #0	@ ret,
	bne	.L895	@,
	ldr	r3, [r6, #0]	@ g_pOTPExportFunctionList, g_pOTPExportFunctionList
	movw	r0, #755	@,
	ldrb	r1, [r5, #3]	@ zero_extendqisi2	@,
	ldr	r4, [r3, #12]	@ <variable>.HAL_OTP_V200_WriteByte, <variable>.HAL_OTP_V200_WriteByte
	blx	r4	@ <variable>.HAL_OTP_V200_WriteByte
	subs	r4, r0, #0	@ ret,
	bne	.L895	@,
	ldr	lr, [r6, #0]	@ g_pOTPExportFunctionList, g_pOTPExportFunctionList
	mov	r0, #756	@,
	ldrb	r1, [r5, #4]	@ zero_extendqisi2	@,
	ldr	ip, [lr, #12]	@ <variable>.HAL_OTP_V200_WriteByte, <variable>.HAL_OTP_V200_WriteByte
	blx	ip	@ <variable>.HAL_OTP_V200_WriteByte
	subs	r4, r0, #0	@ ret,
	bne	.L895	@,
	ldr	r4, [r6, #0]	@ g_pOTPExportFunctionList, g_pOTPExportFunctionList
	movw	r0, #757	@,
	ldrb	r1, [r5, #5]	@ zero_extendqisi2	@,
	ldr	r2, [r4, #12]	@ <variable>.HAL_OTP_V200_WriteByte, <variable>.HAL_OTP_V200_WriteByte
	blx	r2	@ <variable>.HAL_OTP_V200_WriteByte
	subs	r4, r0, #0	@ ret,
	bne	.L895	@,
	ldr	ip, [r6, #0]	@ g_pOTPExportFunctionList, g_pOTPExportFunctionList
	movw	r0, #758	@,
	ldrb	r1, [r5, #6]	@ zero_extendqisi2	@,
	ldr	r3, [ip, #12]	@ <variable>.HAL_OTP_V200_WriteByte, <variable>.HAL_OTP_V200_WriteByte
	blx	r3	@ <variable>.HAL_OTP_V200_WriteByte
	subs	r4, r0, #0	@ ret,
	bne	.L895	@,
	ldr	lr, [r6, #0]	@ g_pOTPExportFunctionList, g_pOTPExportFunctionList
	movw	r0, #759	@,
	ldrb	r1, [r5, #7]	@ zero_extendqisi2	@,
	ldr	r2, [lr, #12]	@ <variable>.HAL_OTP_V200_WriteByte, <variable>.HAL_OTP_V200_WriteByte
	blx	r2	@ <variable>.HAL_OTP_V200_WriteByte
	subs	r4, r0, #0	@ ret,
	bne	.L895	@,
	ldr	r3, [r6, #0]	@ g_pOTPExportFunctionList, g_pOTPExportFunctionList
	mov	r0, #760	@,
	ldrb	r1, [r5, #8]	@ zero_extendqisi2	@,
	movw	r6, #:lower16:g_pOTPExportFunctionList	@ tmp182,
	movt	r6, #:upper16:g_pOTPExportFunctionList	@ tmp182,
	ldr	r4, [r3, #12]	@ <variable>.HAL_OTP_V200_WriteByte, <variable>.HAL_OTP_V200_WriteByte
	blx	r4	@ <variable>.HAL_OTP_V200_WriteByte
	subs	r4, r0, #0	@ ret,
	bne	.L895	@,
	ldr	r2, [r6, #0]	@ g_pOTPExportFunctionList, g_pOTPExportFunctionList
	movw	r0, #761	@,
	ldrb	r1, [r5, #9]	@ zero_extendqisi2	@,
	ldr	ip, [r2, #12]	@ <variable>.HAL_OTP_V200_WriteByte, <variable>.HAL_OTP_V200_WriteByte
	blx	ip	@ <variable>.HAL_OTP_V200_WriteByte
	subs	r4, r0, #0	@ ret,
	bne	.L895	@,
	ldr	lr, [r6, #0]	@ g_pOTPExportFunctionList, g_pOTPExportFunctionList
	movw	r0, #762	@,
	ldrb	r1, [r5, #10]	@ zero_extendqisi2	@,
	ldr	r4, [lr, #12]	@ <variable>.HAL_OTP_V200_WriteByte, <variable>.HAL_OTP_V200_WriteByte
	blx	r4	@ <variable>.HAL_OTP_V200_WriteByte
	subs	r4, r0, #0	@ ret,
	bne	.L895	@,
	ldr	ip, [r6, #0]	@ g_pOTPExportFunctionList, g_pOTPExportFunctionList
	movw	r0, #763	@,
	ldrb	r1, [r5, #11]	@ zero_extendqisi2	@,
	ldr	r3, [ip, #12]	@ <variable>.HAL_OTP_V200_WriteByte, <variable>.HAL_OTP_V200_WriteByte
	blx	r3	@ <variable>.HAL_OTP_V200_WriteByte
	subs	r4, r0, #0	@ ret,
	bne	.L895	@,
	ldr	r4, [r6, #0]	@ g_pOTPExportFunctionList, g_pOTPExportFunctionList
	mov	r0, #764	@,
	ldrb	r1, [r5, #12]	@ zero_extendqisi2	@,
	ldr	r2, [r4, #12]	@ <variable>.HAL_OTP_V200_WriteByte, <variable>.HAL_OTP_V200_WriteByte
	blx	r2	@ <variable>.HAL_OTP_V200_WriteByte
	subs	r4, r0, #0	@ ret,
	bne	.L895	@,
	ldr	lr, [r6, #0]	@ g_pOTPExportFunctionList, g_pOTPExportFunctionList
	movw	r0, #765	@,
	ldrb	r1, [r5, #13]	@ zero_extendqisi2	@,
	ldr	r3, [lr, #12]	@ <variable>.HAL_OTP_V200_WriteByte, <variable>.HAL_OTP_V200_WriteByte
	blx	r3	@ <variable>.HAL_OTP_V200_WriteByte
	subs	r4, r0, #0	@ ret,
	bne	.L895	@,
	ldr	r2, [r6, #0]	@ g_pOTPExportFunctionList, g_pOTPExportFunctionList
	movw	r0, #766	@,
	ldrb	r1, [r5, #14]	@ zero_extendqisi2	@,
	ldr	ip, [r2, #12]	@ <variable>.HAL_OTP_V200_WriteByte, <variable>.HAL_OTP_V200_WriteByte
	blx	ip	@ <variable>.HAL_OTP_V200_WriteByte
	subs	r4, r0, #0	@ ret,
	bne	.L895	@,
	ldr	r3, [r6, #0]	@ g_pOTPExportFunctionList, g_pOTPExportFunctionList
	movw	r0, #767	@,
	ldrb	r1, [r5, #15]	@ zero_extendqisi2	@,
	ldr	r4, [r3, #12]	@ <variable>.HAL_OTP_V200_WriteByte, <variable>.HAL_OTP_V200_WriteByte
	blx	r4	@ <variable>.HAL_OTP_V200_WriteByte
	subs	r4, r0, #0	@ ret,
	bne	.L895	@,
.L893:
	mov	r0, r4	@, ret
	sub	sp, fp, #24
	ldmfd	sp, {r4, r5, r6, fp, sp, pc}
.L895:
	mov	r0, #1	@,
	mov	r1, #97	@,
	ldr	r2, .L898	@,
	mov	r3, #3584	@,
	movw	lr, #:lower16:.LC0	@ tmp216,
	movt	lr, #:upper16:.LC0	@ tmp216,
	str	lr, [sp, #0]	@ tmp216,
	bl	HI_LogOut	@
	b	.L893	@
.L897:
	mov	r0, #1	@,
	mov	r1, #97	@,
	ldr	r2, .L898	@,
	movw	r3, #3574	@,
	movw	ip, #:lower16:.LC5	@ tmp148,
	mvn	r4, #0	@ ret,
	movt	ip, #:upper16:.LC5	@ tmp148,
	str	ip, [sp, #0]	@ tmp148,
	bl	HI_LogOut	@
	b	.L893	@
.L899:
	.align	2
.L898:
	.word	.LANCHOR0+2220
	.fnend
	.size	DRV_CA_OTP_V200_SetRSAKeyE, .-DRV_CA_OTP_V200_SetRSAKeyE
	.align	2
	.global	DRV_CA_OTP_V200_LockOTPTzData
	.type	DRV_CA_OTP_V200_LockOTPTzData, %function
DRV_CA_OTP_V200_LockOTPTzData:
	.fnstart
.LFB867:
	@ args = 136, pretend = 16, frame = 0
	@ frame_needed = 1, uses_anonymous_args = 0
	.movsp ip
	mov	ip, sp	@,
	.pad #16
	sub	sp, sp, #16	@,,
	stmfd	sp!, {r4, r5, r6, r7, fp, ip, lr, pc}	@,
	.pad #4
	.save {r4, r5, r6, r7, fp, ip, lr}
	.setfp fp, ip, #-20
	sub	fp, ip, #20	@,,
	.pad #8
	sub	sp, sp, #8	@,,
	push	{lr}
	bl	__gnu_mcount_nc
	movw	r4, #:lower16:g_pOTPExportFunctionList	@ tmp181,
	movt	r4, #:upper16:g_pOTPExportFunctionList	@ tmp181,
	add	ip, fp, #4	@ tmp180,,
	mov	r7, r0	@ stInputParam$u32Addr,
	sub	r6, r7, #256	@ tmp151, stInputParam$u32Addr,
	ldr	lr, [r4, #0]	@ g_pOTPExportFunctionList, g_pOTPExportFunctionList
	stmia	ip, {r0, r1, r2, r3}	@ tmp180,,,,
	mov	r0, #28	@,
	ldr	r3, [lr, #0]	@ <variable>.HAL_OTP_V200_Read, <variable>.HAL_OTP_V200_Read
	mov	r6, r6, lsr #4	@ u32Offset, tmp151,
	ldr	r5, [fp, #8]	@ stInputParam$u32Len, stInputParam.u32Len
	blx	r3	@ <variable>.HAL_OTP_V200_Read
	mov	r5, r5, lsr #4	@ u32LockLen, stInputParam$u32Len,
	cmp	r6, r5	@ u32Offset, u32LockLen
	mov	r1, r0	@ unOTPTZLock,
	bcs	.L901	@,
	ubfx	r2, r0, #8, #8	@ unOTPTZLock__bitsunOTPTZLock_I____bits_I.4777, unOTPTZLock,,
	mvn	r3, r6	@ tmp188, u32Offset
	add	r0, r3, r5	@ tmp187, tmp188, u32LockLen
	mov	lr, #1	@ tmp182,
	mov	r7, r2, asr r6	@ tmp153, unOTPTZLock__bitsunOTPTZLock_I____bits_I.4777,
	and	r0, r0, lr	@ tmp189, tmp187,
	tst	r7, #1	@ tmp153,
	beq	.L932	@,
.L918:
	add	r3, r6, #1	@ i, u32Offset,
	cmp	r5, r3	@ u32LockLen, i
	bls	.L931	@,
	cmp	r0, #0	@ tmp189,
	beq	.L903	@,
	mov	r0, r2, asr r3	@ tmp206, unOTPTZLock__bitsunOTPTZLock_I____bits_I.4777,
	tst	r0, #1	@ tmp206,
	orreq	r2, r2, lr, asl r3	@, tmp210, unOTPTZLock__bitsunOTPTZLock_I____bits_I.4777, tmp182,
	add	r3, r3, #1	@ i, i,
	uxtbeq	r2, r2	@ unOTPTZLock__bitsunOTPTZLock_I____bits_I.4777, tmp210
	cmp	r5, r3	@ u32LockLen, i
	bls	.L931	@,
.L903:
	add	ip, r3, #1	@ tmp190, i,
	orr	r0, r2, lr, asl r3	@, tmp159, unOTPTZLock__bitsunOTPTZLock_I____bits_I.4777, tmp182,
	mov	r3, r2, asr r3	@ tmp192, unOTPTZLock__bitsunOTPTZLock_I____bits_I.4777,
	tst	r3, #1	@ tmp192,
	uxtbeq	r2, r0	@ unOTPTZLock__bitsunOTPTZLock_I____bits_I.4777, tmp159
	mov	r7, r2, asr ip	@ tmp195, unOTPTZLock__bitsunOTPTZLock_I____bits_I.4777,
	tst	r7, #1	@ tmp195,
	orreq	r2, r2, lr, asl ip	@, tmp214, unOTPTZLock__bitsunOTPTZLock_I____bits_I.4777, tmp182,
	uxtbeq	r2, r2	@ unOTPTZLock__bitsunOTPTZLock_I____bits_I.4777, tmp214
.L923:
	add	r3, ip, #1	@ i, tmp190,
	cmp	r5, r3	@ u32LockLen, i
	bhi	.L903	@,
.L931:
	bfi	r1, r2, #8, #8	@ unOTPTZLock, unOTPTZLock__bitsunOTPTZLock_I____bits_I.4777,,
.L901:
	ldr	lr, [r4, #0]	@ g_pOTPExportFunctionList, g_pOTPExportFunctionList
	mov	r0, #28	@,
	movw	r7, #:lower16:g_pOTPExportFunctionList	@ tmp161,
	movt	r7, #:upper16:g_pOTPExportFunctionList	@ tmp161,
	ldr	r2, [lr, #8]	@ <variable>.HAL_OTP_V200_Write, <variable>.HAL_OTP_V200_Write
	blx	r2	@ <variable>.HAL_OTP_V200_Write
	subs	r4, r0, #0	@ ret,
	bne	.L933	@,
	ldr	r3, [r7, #0]	@ g_pOTPExportFunctionList, g_pOTPExportFunctionList
	mov	r0, #28	@,
	ldr	r1, [r3, #0]	@ <variable>.HAL_OTP_V200_Read, <variable>.HAL_OTP_V200_Read
	blx	r1	@ <variable>.HAL_OTP_V200_Read
	cmp	r6, r5	@ u32Offset, u32LockLen
	bcs	.L905	@,
	ubfx	r0, r0, #8, #8	@ temp.4792, D.22128,,
	mov	r2, r0, asr r6	@ tmp171, temp.4792,
	tst	r2, #1	@ tmp171,
	beq	.L906	@,
	mvn	ip, r6	@ tmp184, i.4789
	add	lr, ip, r5	@ tmp183, tmp184, u32LockLen
	tst	lr, #1	@ tmp183,
	beq	.L908	@,
	add	r6, r6, #1	@ i.4789, i.4789,
	cmp	r5, r6	@ u32LockLen, i.4789
	bls	.L905	@,
	mov	r1, r0, asr r6	@ tmp198, temp.4792,
	tst	r1, #1	@ tmp198,
	bne	.L908	@,
.L906:
	mov	r0, #1	@,
	mov	r1, #97	@,
	ldr	r2, .L934	@,
	mov	r3, #3552	@,
	movw	r4, #:lower16:.LC6	@ tmp178,
	movt	r4, #:upper16:.LC6	@ tmp178,
	str	r4, [sp, #0]	@ tmp178,
	bl	HI_LogOut	@
	mvn	r4, #0	@ ret,
.L905:
	mov	r0, r4	@, ret
	sub	sp, fp, #28
	ldmfd	sp, {r4, r5, r6, r7, fp, sp, pc}
.L909:
	tst	r2, #1	@ tmp173,
	beq	.L906	@,
	tst	r1, #1	@ tmp200,
	beq	.L906	@,
.L908:
	add	r3, r6, #1	@ tmp186, i.4789,
	cmp	r5, r3	@ u32LockLen, tmp186
	add	r6, r3, #1	@ i.4789, tmp186,
	mov	r2, r0, asr r3	@ tmp173, temp.4792,
	mov	r1, r0, asr r6	@ tmp200, temp.4792,
	bhi	.L909	@,
	b	.L905	@
.L932:
	orr	r7, r2, lr, asl r6	@, tmp204, unOTPTZLock__bitsunOTPTZLock_I____bits_I.4777, tmp182,
	uxtb	r2, r7	@ unOTPTZLock__bitsunOTPTZLock_I____bits_I.4777, tmp204
	b	.L918	@
.L933:
	mov	r0, #1	@,
	mov	r1, #97	@,
	ldr	r2, .L934	@,
	movw	r3, #3539	@,
	movw	ip, #:lower16:.LC0	@ tmp166,
	movt	ip, #:upper16:.LC0	@ tmp166,
	str	ip, [sp, #0]	@ tmp166,
	bl	HI_LogOut	@
	b	.L905	@
.L935:
	.align	2
.L934:
	.word	.LANCHOR0+2248
	.fnend
	.size	DRV_CA_OTP_V200_LockOTPTzData, .-DRV_CA_OTP_V200_LockOTPTzData
	.align	2
	.global	DRV_CA_OTP_V200_GetOTPTzData
	.type	DRV_CA_OTP_V200_GetOTPTzData, %function
DRV_CA_OTP_V200_GetOTPTzData:
	.fnstart
.LFB866:
	@ args = 0, pretend = 0, frame = 0
	@ frame_needed = 1, uses_anonymous_args = 0
	.movsp ip
	mov	ip, sp	@,
	stmfd	sp!, {r4, r5, r6, r7, r8, r9, sl, fp, ip, lr, pc}	@,
	.pad #4
	.save {r4, r5, r6, r7, r8, r9, sl, fp, ip, lr}
	.setfp fp, ip, #-4
	sub	fp, ip, #4	@,,
	.pad #12
	sub	sp, sp, #12	@,,
	push	{lr}
	bl	__gnu_mcount_nc
	ldr	r8, [r0, #0]	@ u32Addr, <variable>.u32Addr
	mov	r6, r0	@ pstInputParam, pstInputParam
	ldr	r9, [r0, #4]	@ u32Len, <variable>.u32Len
	cmp	r8, #255	@ u32Addr,
	bls	.L937	@,
	add	r3, r9, r8	@ tmp141, u32Len, u32Addr
	cmp	r3, #376	@ tmp141,
	bhi	.L937	@,
	cmp	r9, #0	@ u32Len,
	beq	.L939	@,
	movw	sl, #:lower16:g_pOTPExportFunctionList	@ tmp154,
	movt	sl, #:upper16:g_pOTPExportFunctionList	@ tmp154,
	mov	r0, r8	@, u32Addr
	mov	r4, #1	@ i,
	ldr	r2, [sl, #0]	@ g_pOTPExportFunctionList, g_pOTPExportFunctionList
	sub	r7, r9, #1	@ tmp155, u32Len,
	and	r7, r7, #1	@ tmp157, tmp155,
	add	r5, r6, #1	@ ivtmp.4824, pstInputParam,
	ldr	r1, [r2, #4]	@ <variable>.HAL_OTP_V200_ReadByte, <variable>.HAL_OTP_V200_ReadByte
	blx	r1	@ <variable>.HAL_OTP_V200_ReadByte
	cmp	r9, r4	@ u32Len,
	strb	r0, [r6, #8]	@, <variable>.u8Buf
	bls	.L939	@,
	cmp	r7, #0	@ tmp157,
	beq	.L941	@,
	ldr	r3, [sl, #0]	@ g_pOTPExportFunctionList, g_pOTPExportFunctionList
	add	r0, r8, #1	@, u32Addr,
	mov	r4, #2	@ i,
	ldr	r2, [r3, #4]	@ <variable>.HAL_OTP_V200_ReadByte, <variable>.HAL_OTP_V200_ReadByte
	blx	r2	@ <variable>.HAL_OTP_V200_ReadByte
	cmp	r9, r4	@ u32Len, i
	strb	r0, [r5, #8]	@, <variable>.u8Buf
	add	r5, r5, #1	@ ivtmp.4824, ivtmp.4824,
	bls	.L939	@,
.L941:
	ldr	lr, [sl, #0]	@ g_pOTPExportFunctionList, g_pOTPExportFunctionList
	add	r0, r4, r8	@, i, u32Addr
	add	r7, r4, #1	@ tmp159, i,
	add	r6, r5, #1	@ tmp158, ivtmp.4824,
	add	r4, r7, #1	@ i, tmp159,
	ldr	r1, [lr, #4]	@ <variable>.HAL_OTP_V200_ReadByte, <variable>.HAL_OTP_V200_ReadByte
	blx	r1	@ <variable>.HAL_OTP_V200_ReadByte
	strb	r0, [r5, #8]	@, <variable>.u8Buf
	add	r0, r7, r8	@, tmp159, u32Addr
	ldr	ip, [sl, #0]	@ g_pOTPExportFunctionList, g_pOTPExportFunctionList
	add	r5, r6, #1	@ ivtmp.4824, tmp158,
