	.arch armv7-a
	.fpu softvfp
	.eabi_attribute 20, 1
	.eabi_attribute 21, 1
	.eabi_attribute 23, 3
	.eabi_attribute 24, 1
	.eabi_attribute 25, 1
	.eabi_attribute 26, 2
	.eabi_attribute 30, 2
	.eabi_attribute 18, 4
	.file	"vfmw_ctrl.c"
@ GNU C (Hisilicon_v200(gcc4.4-290+glibc-2.11+eabi+nptl)) version 4.4.1 (arm-hisiv200-linux-gnueabi)
@	compiled by GNU C version 4.1.1 20061011 (Red Hat 4.1.1-30), GMP version 4.3.1, MPFR version 2.4.2.
@ GGC heuristics: --param ggc-min-expand=100 --param ggc-min-heapsize=131072
@ options passed:  -nostdinc
@ -I/home/x57522/X5HD/04.Locals/STBLinuxV1R2/Build/HiSTBLinuxV100R002C00SPC020/source/kernel/linux-3.4.y/arch/arm/include
@ -Iarch/arm/include/generated -Iinclude
@ -I/home/x57522/X5HD/04.Locals/STBLinuxV1R2/Build/HiSTBLinuxV100R002C00SPC020/source/kernel/linux-3.4.y/include
@ -I/home/x57522/X5HD/04.Locals/STBLinuxV1R2/Build/HiSTBLinuxV100R002C00SPC020/source/kernel/linux-3.4.y/drivers/msp/vfmw/vfmw_v4.0
@ -Idrivers/msp/vfmw/vfmw_v4.0
@ -I/home/x57522/X5HD/04.Locals/STBLinuxV1R2/Build/HiSTBLinuxV100R002C00SPC020/source/kernel/linux-3.4.y/arch/arm/mach-s40/include
@ -I/home/x57522/X5HD/04.Locals/STBLinuxV1R2/Build/HiSTBLinuxV100R002C00SPC020/source/kernel/linux-3.4.y/../../../source/common/include
@ -I/home/x57522/X5HD/04.Locals/STBLinuxV1R2/Build/HiSTBLinuxV100R002C00SPC020/source/kernel/linux-3.4.y/../../../source/common/drv/include
@ -I/home/x57522/X5HD/04.Locals/STBLinuxV1R2/Build/HiSTBLinuxV100R002C00SPC020/source/kernel/linux-3.4.y/../../../source/msp/drv/vfmw/vfmw_v4.0/drv/memmap
@ -I/home/x57522/X5HD/04.Locals/STBLinuxV1R2/Build/HiSTBLinuxV100R002C00SPC020/source/kernel/linux-3.4.y/../../../source/msp/drv/vfmw/vfmw_v4.0/model/scd
@ -I/home/x57522/X5HD/04.Locals/STBLinuxV1R2/Build/HiSTBLinuxV100R002C00SPC020/source/kernel/linux-3.4.y/../../../source/msp/drv/vfmw/vfmw_v4.0/firmware/common/softlib
@ -I/home/x57522/X5HD/04.Locals/STBLinuxV1R2/Build/HiSTBLinuxV100R002C00SPC020/source/kernel/linux-3.4.y/../../../source/msp/drv/vfmw/vfmw_v4.0/firmware/common
@ -I/home/x57522/X5HD/04.Locals/STBLinuxV1R2/Build/HiSTBLinuxV100R002C00SPC020/source/kernel/linux-3.4.y/../../../source/msp/drv/vfmw/vfmw_v4.0/firmware/common/syntax
@ -I/home/x57522/X5HD/04.Locals/STBLinuxV1R2/Build/HiSTBLinuxV100R002C00SPC020/source/kernel/linux-3.4.y/../../../source/msp/drv/vfmw/vfmw_v4.0/firmware/driver/HiSCDV200
@ -I/home/x57522/X5HD/04.Locals/STBLinuxV1R2/Build/HiSTBLinuxV100R002C00SPC020/source/kernel/linux-3.4.y/../../../source/msp/drv/vfmw/vfmw_v4.0/firmware/driver/HiVDHV100
@ -I/home/x57522/X5HD/04.Locals/STBLinuxV1R2/Build/HiSTBLinuxV100R002C00SPC020/source/kernel/linux-3.4.y/../../../source/msp/drv/vfmw/vfmw_v4.0/firmware/driver/HiVDHV200R001
@ -I/home/x57522/X5HD/04.Locals/STBLinuxV1R2/Build/HiSTBLinuxV100R002C00SPC020/source/kernel/linux-3.4.y/../../../source/msp/drv/vfmw/vfmw_v4.0/firmware/driver/HiVDHV200R002
@ -I/home/x57522/X5HD/04.Locals/STBLinuxV1R2/Build/HiSTBLinuxV100R002C00SPC020/source/kernel/linux-3.4.y/../../../source/msp/drv/vfmw/vfmw_v4.0/firmware/driver/HiVDHV200R003
@ -I/home/x57522/X5HD/04.Locals/STBLinuxV1R2/Build/HiSTBLinuxV100R002C00SPC020/source/kernel/linux-3.4.y/../../../source/msp/drv/vfmw/vfmw_v4.0/firmware/driver/HiVDHV200R004
@ -I/home/x57522/X5HD/04.Locals/STBLinuxV1R2/Build/HiSTBLinuxV100R002C00SPC020/source/kernel/linux-3.4.y/../../../source/msp/drv/vfmw/vfmw_v4.0/model/rawpacket
@ -I/home/x57522/X5HD/04.Locals/STBLinuxV1R2/Build/HiSTBLinuxV100R002C00SPC020/source/kernel/linux-3.4.y/../../../source/msp/drv/vfmw/vfmw_v4.0/firmware/product/Hi3716CV200/osal/linux_kernel
@ -I/home/x57522/X5HD/04.Locals/STBLinuxV1R2/Build/HiSTBLinuxV100R002C00SPC020/source/kernel/linux-3.4.y/../../../source/msp/drv/vfmw/vfmw_v4.0/firmware/product/Hi3716CV200
@ -I/home/x57522/X5HD/04.Locals/STBLinuxV1R2/Build/HiSTBLinuxV100R002C00SPC020/source/kernel/linux-3.4.y/../../../source/msp/drv/vfmw/vfmw_v4.0/firmware/driver/HiDNR
@ -I/home/x57522/X5HD/04.Locals/STBLinuxV1R2/Build/HiSTBLinuxV100R002C00SPC020/source/kernel/linux-3.4.y/../../../source/msp/drv/vfmw/vfmw_v4.0/firmware/driver/HiBTLV100
@ -I/home/x57522/X5HD/04.Locals/STBLinuxV1R2/Build/HiSTBLinuxV100R002C00SPC020/source/kernel/linux-3.4.y/../../../source/msp/drv/vfmw/vfmw_v4.0/firmware/common_test/vdecko
@ -imultilib armv7a_soft -iprefix
@ /opt/hisi-linux/x86-arm/arm-hisiv200-linux/bin/../lib/gcc/arm-hisiv200-linux-gnueabi/4.4.1/
@ -isysroot /opt/hisi-linux/x86-arm/arm-hisiv200-linux/bin/../target
@ -D__KERNEL__ -D__LINUX_ARM_ARCH__=7 -Uarm -DENV_ARMLINUX_KERNEL
@ -DDNR_DISABLE -DSCD_MP4_SLICE_ENABLE -DSUPPORT_JPEG_444
@ -DVFMW_EXTRA_TYPE_DEFINE -DPRODUCT_STB -D__VFMW_REGISTER_ISR__
@ -DVFMW_VDH_V200R004_SUPPORT -DVFMW_H264_SUPPORT -DVFMW_MVC_SUPPORT
@ -DVFMW_MPEG2_SUPPORT -DVFMW_MPEG4_SUPPORT -DVFMW_AVS_SUPPORT
@ -DVFMW_VC1_SUPPORT -DVFMW_BPD_H_SUPPORT -DVFMW_REAL8_SUPPORT
@ -DVFMW_REAL9_SUPPORT -DVFMW_VP6_SUPPORT -DVFMW_VP8_SUPPORT
@ -DVFMW_DIVX3_SUPPORT -DVFMW_H263_SUPPORT -DVFMW_JPEG_SUPPORT
@ -DVFMW_RAW_SUPPORT -DVFMW_USER_SUPPORT -DCFG_MAX_CHAN_NUM=16
@ -DCFG_MAX_CHAN_NUM=16 -DVFMW_DPRINT_SUPPORT -DVFMW_AVSPLUS_SUPPORT
@ -DVFMW_SYSTEM_REG_DISABLE -DCHIP_TYPE_hi3716cv200
@ -DSDK_VERSION=HiSTBLinuxV100R002C00SPC020 -DHI_GPIOI2C_SUPPORT
@ -DHI_LOG_SUPPORT=1 -DHI_LOG_LEVEL=4 -DHI_PROC_SUPPORT=1
@ -DHI_KEYLED_SUPPORT -DHI_HDCP_SUPPORT -DHI_SCI_SUPPORT -DHI_VI_SUPPORT
@ -DHI_VENC_SUPPORT -DHI_AENC_SUPPORT -DHI_VDEC_SVDEC_BUILTIN
@ -DKBUILD_STR(s)=#s -DKBUILD_BASENAME=KBUILD_STR(vfmw_ctrl)
@ -DKBUILD_MODNAME=KBUILD_STR(hi_vfmw) -isystem
@ /opt/hisi-linux/x86-arm/arm-hisiv200-linux/bin/../lib/gcc/arm-hisiv200-linux-gnueabi/4.4.1/include
@ -include
@ /home/x57522/X5HD/04.Locals/STBLinuxV1R2/Build/HiSTBLinuxV100R002C00SPC020/source/kernel/linux-3.4.y/include/linux/kconfig.h
@ -MD drivers/msp/vfmw/vfmw_v4.0/firmware/common/.vfmw_ctrl.o.d
@ /home/x57522/X5HD/04.Locals/STBLinuxV1R2/Build/HiSTBLinuxV100R002C00SPC020/source/kernel/linux-3.4.y/drivers/msp/vfmw/vfmw_v4.0/firmware/common/vfmw_ctrl.c
@ -mlittle-endian -marm -mapcs -mno-sched-prolog -mabi=aapcs-linux
@ -mno-thumb-interwork -march=armv7-a -msoft-float -auxbase-strip
@ drivers/msp/vfmw/vfmw_v4.0/firmware/common/vfmw_ctrl.o -O2 -Wall -Wundef
@ -Wstrict-prototypes -Wno-trigraphs -Werror-implicit-function-declaration
@ -Wno-format-security -Wframe-larger-than=1024
@ -Wdeclaration-after-statement -Wno-pointer-sign -p -fno-strict-aliasing
@ -fno-common -fno-delete-null-pointer-checks -fno-dwarf2-cfi-asm
@ -funwind-tables -fno-stack-protector -fno-omit-frame-pointer
@ -fno-optimize-sibling-calls -fno-strict-overflow -fconserve-stack
@ -fno-pic -fverbose-asm
@ options enabled:  -falign-loops -fargument-alias -fauto-inc-dec
@ -fbranch-count-reg -fcaller-saves -fcprop-registers -fcrossjumping
@ -fcse-follow-jumps -fdefer-pop -fearly-inlining
@ -feliminate-unused-debug-types -fexpensive-optimizations
@ -fforward-propagate -ffunction-cse -fgcse -fgcse-lm
@ -fguess-branch-probability -fident -fif-conversion -fif-conversion2
@ -findirect-inlining -finline -finline-functions-called-once
@ -finline-small-functions -fipa-cp -fipa-pure-const -fipa-reference
@ -fira-share-save-slots -fira-share-spill-slots -fivopts
@ -fkeep-static-consts -fleading-underscore -fmath-errno -fmerge-constants
@ -fmerge-debug-strings -fmove-loop-invariants -foptimize-register-move
@ -fpeephole -fpeephole2 -fprofile -fpromote-loop-indices
@ -freg-struct-return -fregmove -frename-registers -freorder-blocks
@ -freorder-functions -frerun-cse-after-loop -fsched-interblock
@ -fsched-spec -fsched-stalled-insns-dep -fschedule-insns -fschedule-insns2
@ -fsection-anchors -fsigned-zeros -fsplit-ivs-in-unroller
@ -fsplit-wide-types -fthread-jumps -ftoplevel-reorder -ftrapping-math
@ -ftree-builtin-call-dce -ftree-ccp -ftree-ch -ftree-copy-prop
@ -ftree-copyrename -ftree-cselim -ftree-dce -ftree-dominator-opts
@ -ftree-dse -ftree-fre -ftree-loop-im -ftree-loop-ivcanon
@ -ftree-loop-optimize -ftree-parallelize-loops= -ftree-pre -ftree-reassoc
@ -ftree-scev-cprop -ftree-sink -ftree-sra -ftree-switch-conversion
@ -ftree-ter -ftree-vect-loop-version -ftree-vrp -funit-at-a-time
@ -funroll-loops -funwind-tables -fverbose-asm -fweb
@ -fzero-initialized-in-bss -mapcs-frame -mglibc -mlittle-endian

@ Compiler executable checksum: fa59e0bd179ef45b3a3c3e6f3383fdac

	.text
	.align	2
	.global	VCTRL_GetStreamInterface
	.type	VCTRL_GetStreamInterface, %function
VCTRL_GetStreamInterface:
	.fnstart
.LFB1377:
	@ args = 0, pretend = 0, frame = 0
	@ frame_needed = 1, uses_anonymous_args = 0
	.movsp ip
	mov	ip, sp	@,
	stmfd	sp!, {fp, ip, lr, pc}	@,
	.pad #4
	.save {fp, ip, lr}
	.setfp fp, ip, #-4
	sub	fp, ip, #4	@,,
	push	{lr}
	bl	__gnu_mcount_nc
	movw	r3, #:lower16:.LANCHOR0	@ tmp137,
	movt	r3, #:upper16:.LANCHOR0	@ tmp137,
	ldr	r0, [r3, r0, asl #2]	@ D.35872, s_pstVfmwChan
	cmp	r0, #0	@ D.35872,
	addne	r0, r0, #112	@ D.35875, D.35872,
	ldmfd	sp, {fp, sp, pc}	@
	.fnend
	.size	VCTRL_GetStreamInterface, .-VCTRL_GetStreamInterface
	.align	2
	.global	VCTRL_GetFrameInterface
	.type	VCTRL_GetFrameInterface, %function
VCTRL_GetFrameInterface:
	.fnstart
.LFB1379:
	@ args = 0, pretend = 0, frame = 0
	@ frame_needed = 1, uses_anonymous_args = 0
	.movsp ip
	mov	ip, sp	@,
	stmfd	sp!, {fp, ip, lr, pc}	@,
	.pad #4
	.save {fp, ip, lr}
	.setfp fp, ip, #-4
	sub	fp, ip, #4	@,,
	push	{lr}
	bl	__gnu_mcount_nc
	movw	r3, #:lower16:.LANCHOR0	@ tmp137,
	movt	r3, #:upper16:.LANCHOR0	@ tmp137,
	ldr	r0, [r3, r0, asl #2]	@ D.35893, s_pstVfmwChan
	cmp	r0, #0	@ D.35893,
	addne	r0, r0, #136	@ D.35896, D.35893,
	ldmfd	sp, {fp, sp, pc}	@
	.fnend
	.size	VCTRL_GetFrameInterface, .-VCTRL_GetFrameInterface
	.align	2
	.global	VCTRL_GetSyntaxCtx
	.type	VCTRL_GetSyntaxCtx, %function
VCTRL_GetSyntaxCtx:
	.fnstart
.LFB1382:
	@ args = 0, pretend = 0, frame = 0
	@ frame_needed = 1, uses_anonymous_args = 0
	.movsp ip
	mov	ip, sp	@,
	stmfd	sp!, {fp, ip, lr, pc}	@,
	.pad #4
	.save {fp, ip, lr}
	.setfp fp, ip, #-4
	sub	fp, ip, #4	@,,
	push	{lr}
	bl	__gnu_mcount_nc
	movw	r3, #:lower16:.LANCHOR0	@ tmp137,
	movt	r3, #:upper16:.LANCHOR0	@ tmp137,
	ldr	r0, [r3, r0, asl #2]	@ D.35942, s_pstVfmwChan
	cmp	r0, #0	@ D.35942,
	addne	r0, r0, #944	@ D.35945, D.35942,
	ldmfd	sp, {fp, sp, pc}	@
	.fnend
	.size	VCTRL_GetSyntaxCtx, .-VCTRL_GetSyntaxCtx
	.align	2
	.global	VCTRL_GetImageInterface
	.type	VCTRL_GetImageInterface, %function
VCTRL_GetImageInterface:
	.fnstart
.LFB1384:
	@ args = 0, pretend = 0, frame = 0
	@ frame_needed = 1, uses_anonymous_args = 0
	.movsp ip
	mov	ip, sp	@,
	stmfd	sp!, {fp, ip, lr, pc}	@,
	.pad #4
	.save {fp, ip, lr}
	.setfp fp, ip, #-4
	sub	fp, ip, #4	@,,
	push	{lr}
	bl	__gnu_mcount_nc
	movw	r3, #:lower16:.LANCHOR0	@ tmp137,
	movt	r3, #:upper16:.LANCHOR0	@ tmp137,
	ldr	r0, [r3, r0, asl #2]	@ D.36001, s_pstVfmwChan
	cmp	r0, #0	@ D.36001,
	addne	r0, r0, #124	@ D.36004, D.36001,
	ldmfd	sp, {fp, sp, pc}	@
	.fnend
	.size	VCTRL_GetImageInterface, .-VCTRL_GetImageInterface
	.align	2
	.global	VCTRL_CmpConfigParameter
	.type	VCTRL_CmpConfigParameter, %function
VCTRL_CmpConfigParameter:
	.fnstart
.LFB1396:
	@ args = 0, pretend = 0, frame = 0
	@ frame_needed = 1, uses_anonymous_args = 0
	.movsp ip
	mov	ip, sp	@,
	stmfd	sp!, {fp, ip, lr, pc}	@,
	.pad #4
	.save {fp, ip, lr}
	.setfp fp, ip, #-4
	sub	fp, ip, #4	@,,
	push	{lr}
	bl	__gnu_mcount_nc
	movw	r3, #:lower16:.LANCHOR0	@ tmp139,
	movt	r3, #:upper16:.LANCHOR0	@ tmp139,
	ldr	r3, [r3, r0, asl #2]	@ D.36653, s_pstVfmwChan
	ldr	r2, [r3, #936]	@ <variable>.eVidStd, <variable>.eVidStd
	cmp	r2, #19	@ <variable>.eVidStd,
	bne	.L24	@,
.L18:
	mvn	r0, #0	@ D.36706,
	ldmfd	sp, {fp, sp, pc}	@
.L24:
	ldr	r2, [r3, #36]	@ D.36658, <variable>.stChanCfg.eVidStd
	ldr	r0, [r1, #0]	@ <variable>.eVidStd, <variable>.eVidStd
	cmp	r2, r0	@ D.36658, <variable>.eVidStd
	bne	.L18	@,
	ldr	ip, [r3, #52]	@ <variable>.stChanCfg.s32ChanErrThr, <variable>.stChanCfg.s32ChanErrThr
	ldr	r0, [r1, #16]	@ <variable>.s32ChanErrThr, <variable>.s32ChanErrThr
	cmp	ip, r0	@ <variable>.stChanCfg.s32ChanErrThr, <variable>.s32ChanErrThr
	bne	.L18	@,
	ldr	ip, [r3, #48]	@ <variable>.stChanCfg.s32ChanPriority, <variable>.stChanCfg.s32ChanPriority
	ldr	r0, [r1, #12]	@ <variable>.s32ChanPriority, <variable>.s32ChanPriority
	cmp	ip, r0	@ <variable>.stChanCfg.s32ChanPriority, <variable>.s32ChanPriority
	bne	.L18	@,
	ldr	ip, [r3, #56]	@ <variable>.stChanCfg.s32ChanStrmOFThr, <variable>.stChanCfg.s32ChanStrmOFThr
	ldr	r0, [r1, #20]	@ <variable>.s32ChanStrmOFThr, <variable>.s32ChanStrmOFThr
	cmp	ip, r0	@ <variable>.stChanCfg.s32ChanStrmOFThr, <variable>.s32ChanStrmOFThr
	bne	.L18	@,
	ldr	ip, [r3, #60]	@ <variable>.stChanCfg.s32DecMode, <variable>.stChanCfg.s32DecMode
	ldr	r0, [r1, #24]	@ <variable>.s32DecMode, <variable>.s32DecMode
	cmp	ip, r0	@ <variable>.stChanCfg.s32DecMode, <variable>.s32DecMode
	bne	.L18	@,
	ldr	ip, [r3, #64]	@ <variable>.stChanCfg.s32DecOrderOutput, <variable>.stChanCfg.s32DecOrderOutput
	ldr	r0, [r1, #28]	@ <variable>.s32DecOrderOutput, <variable>.s32DecOrderOutput
	cmp	ip, r0	@ <variable>.stChanCfg.s32DecOrderOutput, <variable>.s32DecOrderOutput
	bne	.L18	@,
	ldr	ip, [r3, #72]	@ <variable>.stChanCfg.s32DnrDispOutEnable, <variable>.stChanCfg.s32DnrDispOutEnable
	ldr	r0, [r1, #36]	@ <variable>.s32DnrDispOutEnable, <variable>.s32DnrDispOutEnable
	cmp	ip, r0	@ <variable>.stChanCfg.s32DnrDispOutEnable, <variable>.s32DnrDispOutEnable
	bne	.L18	@,
	ldr	ip, [r3, #68]	@ <variable>.stChanCfg.s32DnrTfEnable, <variable>.stChanCfg.s32DnrTfEnable
	ldr	r0, [r1, #32]	@ <variable>.s32DnrTfEnable, <variable>.s32DnrTfEnable
	cmp	ip, r0	@ <variable>.stChanCfg.s32DnrTfEnable, <variable>.s32DnrTfEnable
	bne	.L18	@,
	ldr	ip, [r3, #88]	@ <variable>.stChanCfg.s32VcmpEn, <variable>.stChanCfg.s32VcmpEn
	ldr	r0, [r1, #52]	@ <variable>.s32VcmpEn, <variable>.s32VcmpEn
	cmp	ip, r0	@ <variable>.stChanCfg.s32VcmpEn, <variable>.s32VcmpEn
	bne	.L18	@,
	ldr	ip, [r3, #100]	@ <variable>.stChanCfg.s32VcmpWmEndLine, <variable>.stChanCfg.s32VcmpWmEndLine
	ldr	r0, [r1, #64]	@ <variable>.s32VcmpWmEndLine, <variable>.s32VcmpWmEndLine
	cmp	ip, r0	@ <variable>.stChanCfg.s32VcmpWmEndLine, <variable>.s32VcmpWmEndLine
	bne	.L18	@,
	ldr	ip, [r3, #96]	@ <variable>.stChanCfg.s32VcmpWmStartLine, <variable>.stChanCfg.s32VcmpWmStartLine
	ldr	r0, [r1, #60]	@ <variable>.s32VcmpWmStartLine, <variable>.s32VcmpWmStartLine
	cmp	ip, r0	@ <variable>.stChanCfg.s32VcmpWmStartLine, <variable>.s32VcmpWmStartLine
	bne	.L18	@,
	ldr	ip, [r3, #92]	@ <variable>.stChanCfg.s32WmEn, <variable>.stChanCfg.s32WmEn
	ldr	r0, [r1, #56]	@ <variable>.s32WmEn, <variable>.s32WmEn
	cmp	ip, r0	@ <variable>.stChanCfg.s32WmEn, <variable>.s32WmEn
	bne	.L18	@,
	ldr	ip, [r3, #104]	@ <variable>.stChanCfg.s32SupportAllP, <variable>.stChanCfg.s32SupportAllP
	ldr	r0, [r1, #68]	@ <variable>.s32SupportAllP, <variable>.s32SupportAllP
	cmp	ip, r0	@ <variable>.stChanCfg.s32SupportAllP, <variable>.s32SupportAllP
	bne	.L18	@,
	cmp	r2, #1	@ D.36658,
	beq	.L25	@,
	sub	r0, r2, #10	@ tmp170, D.36658,
	cmp	r0, #2	@ tmp170,
	bhi	.L20	@,
	ldr	r2, [r3, #40]	@ <variable>.stChanCfg.StdExt.Vp6Ext.bReversed, <variable>.stChanCfg.StdExt.Vp6Ext.bReversed
	ldr	ip, [r1, #4]	@ <variable>.StdExt.Vp6Ext.bReversed, <variable>.StdExt.Vp6Ext.bReversed
	cmp	r2, ip	@ <variable>.stChanCfg.StdExt.Vp6Ext.bReversed, <variable>.StdExt.Vp6Ext.bReversed
	bne	.L18	@,
.L20:
	mov	r0, #0	@ D.36706,
	ldmfd	sp, {fp, sp, pc}	@
.L25:
	ldr	r0, [r3, #40]	@ <variable>.stChanCfg.StdExt.Vc1Ext.IsAdvProfile, <variable>.stChanCfg.StdExt.Vc1Ext.IsAdvProfile
	ldr	r2, [r1, #4]	@ <variable>.StdExt.Vc1Ext.IsAdvProfile, <variable>.StdExt.Vc1Ext.IsAdvProfile
	cmp	r0, r2	@ <variable>.stChanCfg.StdExt.Vc1Ext.IsAdvProfile, <variable>.StdExt.Vc1Ext.IsAdvProfile
	bne	.L18	@,
	ldr	ip, [r3, #44]	@ <variable>.stChanCfg.StdExt.Vc1Ext.CodecVersion, <variable>.stChanCfg.StdExt.Vc1Ext.CodecVersion
	ldr	r3, [r1, #8]	@ <variable>.StdExt.Vc1Ext.CodecVersion, <variable>.StdExt.Vc1Ext.CodecVersion
	cmp	ip, r3	@ <variable>.stChanCfg.StdExt.Vc1Ext.CodecVersion, <variable>.StdExt.Vc1Ext.CodecVersion
	beq	.L20	@,
	b	.L18	@
	.fnend
	.size	VCTRL_CmpConfigParameter, .-VCTRL_CmpConfigParameter
	.align	2
	.global	VCTRL_IsChanSegEnough
	.type	VCTRL_IsChanSegEnough, %function
VCTRL_IsChanSegEnough:
	.fnstart
.LFB1417:
	@ args = 0, pretend = 0, frame = 0
	@ frame_needed = 1, uses_anonymous_args = 0
	.movsp ip
	mov	ip, sp	@,
	stmfd	sp!, {fp, ip, lr, pc}	@,
	.pad #4
	.save {fp, ip, lr}
	.setfp fp, ip, #-4
	sub	fp, ip, #4	@,,
	push	{lr}
	bl	__gnu_mcount_nc
	movw	r1, #:lower16:.LANCHOR0	@ tmp136,
	movt	r1, #:upper16:.LANCHOR0	@ tmp136,
	ldr	r3, [r1, r0, asl #2]	@ tmp137, s_pstVfmwChan
	ldr	r0, [r3, #728]	@ <variable>.s32NoStreamFlag, <variable>.s32NoStreamFlag
	subs	r0, r0, #1	@, <variable>.s32NoStreamFlag,
	movne	r0, #1	@
	ldmfd	sp, {fp, sp, pc}	@
	.fnend
	.size	VCTRL_IsChanSegEnough, .-VCTRL_IsChanSegEnough
	.align	2
	.global	VCTRL_IsChanActive
	.type	VCTRL_IsChanActive, %function
VCTRL_IsChanActive:
	.fnstart
.LFB1418:
	@ args = 0, pretend = 0, frame = 0
	@ frame_needed = 1, uses_anonymous_args = 0
	.movsp ip
	mov	ip, sp	@,
	stmfd	sp!, {fp, ip, lr, pc}	@,
	.pad #4
	.save {fp, ip, lr}
	.setfp fp, ip, #-4
	sub	fp, ip, #4	@,,
	push	{lr}
	bl	__gnu_mcount_nc
	cmp	r0, #15	@ ChanID,
	bls	.L32	@,
.L29:
	mvn	r0, #0	@ D.37730,
	ldmfd	sp, {fp, sp, pc}	@
.L32:
	movw	r3, #:lower16:.LANCHOR0	@ tmp137,
	movt	r3, #:upper16:.LANCHOR0	@ tmp137,
	ldr	r3, [r3, r0, asl #2]	@ D.37729, s_pstVfmwChan
	cmp	r3, #0	@ D.37729,
	beq	.L29	@,
	ldr	r2, [r3, #12]	@ <variable>.s32IsOpen, <variable>.s32IsOpen
	cmp	r2, #0	@ <variable>.s32IsOpen,
	beq	.L29	@,
	ldr	r1, [r3, #16]	@ <variable>.s32IsRun, <variable>.s32IsRun
	cmp	r1, #0	@ <variable>.s32IsRun,
	beq	.L29	@,
	ldr	ip, [r3, #20]	@ <variable>.s32Priority, <variable>.s32Priority
	cmp	ip, #0	@ <variable>.s32Priority,
	beq	.L29	@,
	ldr	r3, [r3, #936]	@ <variable>.eVidStd, <variable>.eVidStd
	cmp	r3, #19	@ <variable>.eVidStd,
	movne	r0, #0	@ D.37730,
	ldmnefd	sp, {fp, sp, pc}	@
	b	.L29	@
	.fnend
	.size	VCTRL_IsChanActive, .-VCTRL_IsChanActive
	.align	2
	.global	VCTRL_GetChanMemSizeByResolution
	.type	VCTRL_GetChanMemSizeByResolution, %function
VCTRL_GetChanMemSizeByResolution:
	.fnstart
.LFB1427:
	@ args = 0, pretend = 0, frame = 632
	@ frame_needed = 1, uses_anonymous_args = 0
	.movsp ip
	mov	ip, sp	@,
	stmfd	sp!, {r4, r5, fp, ip, lr, pc}	@,
	.pad #4
	.save {r4, r5, fp, ip, lr}
	.setfp fp, ip, #-4
	sub	fp, ip, #4	@,,
	.pad #656
	sub	sp, sp, #656	@,,
	push	{lr}
	bl	__gnu_mcount_nc
	movw	ip, #:lower16:g_vdm_hal_fun_ptr	@ tmp141,
	movt	ip, #:upper16:g_vdm_hal_fun_ptr	@ tmp141,
	mov	r5, r2	@ VdmMemSize, VdmMemSize
	mov	r4, r3	@ ScdMemSize, ScdMemSize
	ldr	ip, [ip, #36]	@ D.38211, g_vdm_hal_fun_ptr.pfun_VDMHAL_ArrangeMem
	cmp	ip, #0	@ D.38211,
	beq	.L34	@,
	mov	r2, r0	@, MaxWidth
	mov	r3, r1	@, MaxHeight
	mov	r0, #6	@ tmp142,
	mov	r1, #16	@ tmp143,
	str	r0, [sp, #0]	@ tmp142,
	mov	lr, #0	@ tmp144,
	str	r1, [sp, #4]	@ tmp143,
	mvn	r0, #0	@ tmp145,
	sub	r1, fp, #648	@ tmp147,,
	str	r0, [sp, #12]	@ tmp145,
	str	r1, [sp, #16]	@ tmp147,
	mov	r0, #1	@,
	str	lr, [sp, #8]	@ tmp144,
	mvn	r1, #-2147483648	@,
	blx	ip	@ D.38211
	cmp	r0, #0	@ ret
	bne	.L34	@,
	ldr	r2, [fp, #-644]	@ MemArrange.TotalMemUsed, MemArrange.TotalMemUsed
	mov	r3, #2129920	@ tmp149,
	str	r2, [r5, #0]	@ MemArrange.TotalMemUsed,* VdmMemSize
	str	r3, [r4, #0]	@ tmp149,* ScdMemSize
	str	r2, [r5, #4]	@ MemArrange.TotalMemUsed,
	str	r3, [r4, #4]	@ tmp149,
	str	r2, [r5, #8]	@ MemArrange.TotalMemUsed,
	str	r3, [r4, #8]	@ tmp149,
.L35:
	sub	sp, fp, #20
	ldmfd	sp, {r4, r5, fp, sp, pc}
.L34:
	mvn	r0, #0	@ D.38224,
	b	.L35	@
	.fnend
	.size	VCTRL_GetChanMemSizeByResolution, .-VCTRL_GetChanMemSizeByResolution
	.align	2
	.global	VCTRL_GetChanIDByCtx
	.type	VCTRL_GetChanIDByCtx, %function
VCTRL_GetChanIDByCtx:
	.fnstart
.LFB1433:
	@ args = 0, pretend = 0, frame = 0
	@ frame_needed = 1, uses_anonymous_args = 0
	.movsp ip
	mov	ip, sp	@,
	stmfd	sp!, {fp, ip, lr, pc}	@,
	.pad #4
	.save {fp, ip, lr}
	.setfp fp, ip, #-4
	sub	fp, ip, #4	@,,
	push	{lr}
	bl	__gnu_mcount_nc
	movw	r3, #:lower16:.LANCHOR0	@ tmp185,
	movt	r3, #:upper16:.LANCHOR0	@ tmp185,
	ldr	r2, [r3, #0]	@ temp.1052, s_pstVfmwChan
	cmp	r2, #0	@ temp.1052,
	beq	.L38	@,
	add	r2, r2, #952	@ tmp153, temp.1052,
	cmp	r2, r0	@ tmp153, pCtx
	moveq	r0, #0	@ i,
	ldmeqfd	sp, {fp, sp, pc}	@
.L38:
	ldr	r2, [r3, #4]	@ temp.1054, s_pstVfmwChan
	cmp	r2, #0	@ temp.1054,
	beq	.L40	@,
	add	r1, r2, #952	@ tmp155, temp.1054,
	cmp	r1, r0	@ tmp155, pCtx
	moveq	r0, #1	@ i,
	ldmeqfd	sp, {fp, sp, pc}	@
.L40:
	ldr	r2, [r3, #8]	@ temp.1056, s_pstVfmwChan
	cmp	r2, #0	@ temp.1056,
	beq	.L41	@,
	add	ip, r2, #952	@ tmp157, temp.1056,
	cmp	ip, r0	@ tmp157, pCtx
	moveq	r0, #2	@ i,
	ldmeqfd	sp, {fp, sp, pc}	@
.L41:
	ldr	r2, [r3, #12]	@ temp.1058, s_pstVfmwChan
	cmp	r2, #0	@ temp.1058,
	beq	.L42	@,
	add	r2, r2, #952	@ tmp159, temp.1058,
	cmp	r2, r0	@ tmp159, pCtx
	moveq	r0, #3	@ i,
	ldmeqfd	sp, {fp, sp, pc}	@
.L42:
	ldr	r2, [r3, #16]	@ temp.1060, s_pstVfmwChan
	cmp	r2, #0	@ temp.1060,
	beq	.L43	@,
	add	r1, r2, #952	@ tmp161, temp.1060,
	cmp	r1, r0	@ tmp161, pCtx
	moveq	r0, #4	@ i,
	ldmeqfd	sp, {fp, sp, pc}	@
.L43:
	ldr	r2, [r3, #20]	@ temp.1062, s_pstVfmwChan
	cmp	r2, #0	@ temp.1062,
	beq	.L44	@,
	add	ip, r2, #952	@ tmp163, temp.1062,
	cmp	ip, r0	@ tmp163, pCtx
	moveq	r0, #5	@ i,
	ldmeqfd	sp, {fp, sp, pc}	@
.L44:
	ldr	r2, [r3, #24]	@ temp.1064, s_pstVfmwChan
	cmp	r2, #0	@ temp.1064,
	beq	.L45	@,
	add	r2, r2, #952	@ tmp165, temp.1064,
	cmp	r2, r0	@ tmp165, pCtx
	moveq	r0, #6	@ i,
	ldmeqfd	sp, {fp, sp, pc}	@
.L45:
	ldr	r2, [r3, #28]	@ temp.1066, s_pstVfmwChan
	cmp	r2, #0	@ temp.1066,
	beq	.L46	@,
	add	r1, r2, #952	@ tmp167, temp.1066,
	cmp	r1, r0	@ tmp167, pCtx
	moveq	r0, #7	@ i,
	ldmeqfd	sp, {fp, sp, pc}	@
.L46:
	ldr	r2, [r3, #32]	@ temp.1068, s_pstVfmwChan
	cmp	r2, #0	@ temp.1068,
	beq	.L47	@,
	add	ip, r2, #952	@ tmp169, temp.1068,
	cmp	ip, r0	@ tmp169, pCtx
	moveq	r0, #8	@ i,
	ldmeqfd	sp, {fp, sp, pc}	@
.L47:
	ldr	r2, [r3, #36]	@ temp.1070, s_pstVfmwChan
	cmp	r2, #0	@ temp.1070,
	beq	.L48	@,
	add	r2, r2, #952	@ tmp171, temp.1070,
	cmp	r2, r0	@ tmp171, pCtx
	moveq	r0, #9	@ i,
	ldmeqfd	sp, {fp, sp, pc}	@
.L48:
	ldr	r2, [r3, #40]	@ temp.1072, s_pstVfmwChan
	cmp	r2, #0	@ temp.1072,
	beq	.L49	@,
	add	r1, r2, #952	@ tmp173, temp.1072,
	cmp	r1, r0	@ tmp173, pCtx
	moveq	r0, #10	@ i,
	ldmeqfd	sp, {fp, sp, pc}	@
.L49:
	ldr	r2, [r3, #44]	@ temp.1074, s_pstVfmwChan
	cmp	r2, #0	@ temp.1074,
	beq	.L50	@,
	add	ip, r2, #952	@ tmp175, temp.1074,
	cmp	ip, r0	@ tmp175, pCtx
	moveq	r0, #11	@ i,
	ldmeqfd	sp, {fp, sp, pc}	@
.L50:
	ldr	r2, [r3, #48]	@ temp.1076, s_pstVfmwChan
	cmp	r2, #0	@ temp.1076,
	beq	.L51	@,
	add	r2, r2, #952	@ tmp177, temp.1076,
	cmp	r2, r0	@ tmp177, pCtx
	moveq	r0, #12	@ i,
	ldmeqfd	sp, {fp, sp, pc}	@
.L51:
	ldr	r2, [r3, #52]	@ temp.1078, s_pstVfmwChan
	cmp	r2, #0	@ temp.1078,
	beq	.L52	@,
	add	r1, r2, #952	@ tmp179, temp.1078,
	cmp	r1, r0	@ tmp179, pCtx
	moveq	r0, #13	@ i,
	ldmeqfd	sp, {fp, sp, pc}	@
.L52:
	ldr	r2, [r3, #56]	@ temp.1080, s_pstVfmwChan
	cmp	r2, #0	@ temp.1080,
	beq	.L53	@,
	add	ip, r2, #952	@ tmp181, temp.1080,
	cmp	ip, r0	@ tmp181, pCtx
	moveq	r0, #14	@ i,
	ldmeqfd	sp, {fp, sp, pc}	@
.L53:
	ldr	r3, [r3, #60]	@ D.38713, s_pstVfmwChan
	cmp	r3, #0	@ D.38713,
	beq	.L54	@,
	add	r3, r3, #952	@ tmp183, D.38713,
	cmp	r3, r0	@ tmp183, pCtx
	moveq	r0, #15	@ i,
	ldmeqfd	sp, {fp, sp, pc}	@
.L54:
	mvn	r0, #0	@ i,
	ldmfd	sp, {fp, sp, pc}	@
	.fnend
	.size	VCTRL_GetChanIDByCtx, .-VCTRL_GetChanIDByCtx
	.align	2
	.global	VCTRL_GetChanIDByMemAddr
	.type	VCTRL_GetChanIDByMemAddr, %function
VCTRL_GetChanIDByMemAddr:
	.fnstart
.LFB1434:
	@ args = 0, pretend = 0, frame = 0
	@ frame_needed = 1, uses_anonymous_args = 0
	.movsp ip
	mov	ip, sp	@,
	stmfd	sp!, {fp, ip, lr, pc}	@,
	.pad #4
	.save {fp, ip, lr}
	.setfp fp, ip, #-4
	sub	fp, ip, #4	@,,
	push	{lr}
	bl	__gnu_mcount_nc
	movw	r3, #:lower16:.LANCHOR0	@ tmp265,
	movt	r3, #:upper16:.LANCHOR0	@ tmp265,
	ldr	r2, [r3, #0]	@ temp.1106, s_pstVfmwChan
	cmp	r2, #0	@ temp.1106,
	beq	.L57	@,
	ldr	r1, [r2, #176]	@ temp.1108, <variable>.stChanMem_vdh.PhyAddr
	cmp	r0, r1	@ PhyAddr, temp.1108
	bge	.L58	@,
.L60:
	ldr	r1, [r2, #188]	@ temp.1107, <variable>.stChanMem_scd.PhyAddr
	cmp	r0, r1	@ PhyAddr, temp.1107
	blt	.L57	@,
	ldr	r2, [r2, #196]	@ <variable>.stChanMem_scd.Length, <variable>.stChanMem_scd.Length
	add	r1, r1, r2	@ tmp185, temp.1107, <variable>.stChanMem_scd.Length
	cmp	r0, r1	@ PhyAddr, tmp185
	blt	.L106	@,
.L57:
	ldr	r2, [r3, #4]	@ temp.1113, s_pstVfmwChan
	cmp	r2, #0	@ temp.1113,
	beq	.L61	@,
	ldr	r1, [r2, #176]	@ temp.1114, <variable>.stChanMem_vdh.PhyAddr
	cmp	r0, r1	@ PhyAddr, temp.1114
	bge	.L62	@,
.L63:
	ldr	r1, [r2, #188]	@ temp.1115, <variable>.stChanMem_scd.PhyAddr
	cmp	r0, r1	@ PhyAddr, temp.1115
	blt	.L61	@,
	ldr	r2, [r2, #196]	@ <variable>.stChanMem_scd.Length, <variable>.stChanMem_scd.Length
	add	r1, r1, r2	@ tmp190, temp.1115, <variable>.stChanMem_scd.Length
	cmp	r0, r1	@ PhyAddr, tmp190
	blt	.L108	@,
.L61:
	ldr	r2, [r3, #8]	@ temp.1120, s_pstVfmwChan
	cmp	r2, #0	@ temp.1120,
	beq	.L64	@,
	ldr	r1, [r2, #176]	@ temp.1121, <variable>.stChanMem_vdh.PhyAddr
	cmp	r0, r1	@ PhyAddr, temp.1121
	bge	.L65	@,
.L66:
	ldr	r1, [r2, #188]	@ temp.1122, <variable>.stChanMem_scd.PhyAddr
	cmp	r0, r1	@ PhyAddr, temp.1122
	blt	.L64	@,
	ldr	r2, [r2, #196]	@ <variable>.stChanMem_scd.Length, <variable>.stChanMem_scd.Length
	add	r1, r1, r2	@ tmp195, temp.1122, <variable>.stChanMem_scd.Length
	cmp	r0, r1	@ PhyAddr, tmp195
	blt	.L121	@,
.L64:
	ldr	r2, [r3, #12]	@ temp.1127, s_pstVfmwChan
	cmp	r2, #0	@ temp.1127,
	beq	.L67	@,
	ldr	r1, [r2, #176]	@ temp.1128, <variable>.stChanMem_vdh.PhyAddr
	cmp	r0, r1	@ PhyAddr, temp.1128
	bge	.L68	@,
.L69:
	ldr	r1, [r2, #188]	@ temp.1129, <variable>.stChanMem_scd.PhyAddr
	cmp	r0, r1	@ PhyAddr, temp.1129
	blt	.L67	@,
	ldr	r2, [r2, #196]	@ <variable>.stChanMem_scd.Length, <variable>.stChanMem_scd.Length
	add	r1, r1, r2	@ tmp200, temp.1129, <variable>.stChanMem_scd.Length
	cmp	r0, r1	@ PhyAddr, tmp200
	blt	.L120	@,
.L67:
	ldr	r2, [r3, #16]	@ temp.1134, s_pstVfmwChan
	cmp	r2, #0	@ temp.1134,
	beq	.L70	@,
	ldr	r1, [r2, #176]	@ temp.1135, <variable>.stChanMem_vdh.PhyAddr
	cmp	r0, r1	@ PhyAddr, temp.1135
	bge	.L71	@,
.L72:
	ldr	r1, [r2, #188]	@ temp.1136, <variable>.stChanMem_scd.PhyAddr
	cmp	r0, r1	@ PhyAddr, temp.1136
	blt	.L70	@,
	ldr	r2, [r2, #196]	@ <variable>.stChanMem_scd.Length, <variable>.stChanMem_scd.Length
	add	r1, r1, r2	@ tmp205, temp.1136, <variable>.stChanMem_scd.Length
	cmp	r0, r1	@ PhyAddr, tmp205
	blt	.L119	@,
.L70:
	ldr	r2, [r3, #20]	@ temp.1141, s_pstVfmwChan
	cmp	r2, #0	@ temp.1141,
	beq	.L73	@,
	ldr	r1, [r2, #176]	@ temp.1142, <variable>.stChanMem_vdh.PhyAddr
	cmp	r0, r1	@ PhyAddr, temp.1142
	bge	.L74	@,
.L75:
	ldr	r1, [r2, #188]	@ temp.1143, <variable>.stChanMem_scd.PhyAddr
	cmp	r0, r1	@ PhyAddr, temp.1143
	blt	.L73	@,
	ldr	r2, [r2, #196]	@ <variable>.stChanMem_scd.Length, <variable>.stChanMem_scd.Length
	add	r1, r1, r2	@ tmp210, temp.1143, <variable>.stChanMem_scd.Length
	cmp	r0, r1	@ PhyAddr, tmp210
	blt	.L118	@,
.L73:
	ldr	r2, [r3, #24]	@ temp.1148, s_pstVfmwChan
	cmp	r2, #0	@ temp.1148,
	beq	.L76	@,
	ldr	r1, [r2, #176]	@ temp.1149, <variable>.stChanMem_vdh.PhyAddr
	cmp	r0, r1	@ PhyAddr, temp.1149
	bge	.L77	@,
.L78:
	ldr	r1, [r2, #188]	@ temp.1150, <variable>.stChanMem_scd.PhyAddr
	cmp	r0, r1	@ PhyAddr, temp.1150
	blt	.L76	@,
	ldr	r2, [r2, #196]	@ <variable>.stChanMem_scd.Length, <variable>.stChanMem_scd.Length
	add	r1, r1, r2	@ tmp215, temp.1150, <variable>.stChanMem_scd.Length
	cmp	r0, r1	@ PhyAddr, tmp215
	blt	.L117	@,
.L76:
	ldr	r2, [r3, #28]	@ temp.1155, s_pstVfmwChan
	cmp	r2, #0	@ temp.1155,
	beq	.L79	@,
	ldr	r1, [r2, #176]	@ temp.1156, <variable>.stChanMem_vdh.PhyAddr
	cmp	r0, r1	@ PhyAddr, temp.1156
	bge	.L80	@,
.L81:
	ldr	r1, [r2, #188]	@ temp.1157, <variable>.stChanMem_scd.PhyAddr
	cmp	r0, r1	@ PhyAddr, temp.1157
	blt	.L79	@,
	ldr	r2, [r2, #196]	@ <variable>.stChanMem_scd.Length, <variable>.stChanMem_scd.Length
	add	r1, r1, r2	@ tmp220, temp.1157, <variable>.stChanMem_scd.Length
	cmp	r0, r1	@ PhyAddr, tmp220
	blt	.L116	@,
.L79:
	ldr	r2, [r3, #32]	@ temp.1162, s_pstVfmwChan
	cmp	r2, #0	@ temp.1162,
	beq	.L82	@,
	ldr	r1, [r2, #176]	@ temp.1163, <variable>.stChanMem_vdh.PhyAddr
	cmp	r0, r1	@ PhyAddr, temp.1163
	bge	.L83	@,
.L84:
	ldr	r1, [r2, #188]	@ temp.1164, <variable>.stChanMem_scd.PhyAddr
	cmp	r0, r1	@ PhyAddr, temp.1164
	blt	.L82	@,
	ldr	r2, [r2, #196]	@ <variable>.stChanMem_scd.Length, <variable>.stChanMem_scd.Length
	add	r1, r1, r2	@ tmp225, temp.1164, <variable>.stChanMem_scd.Length
	cmp	r0, r1	@ PhyAddr, tmp225
	blt	.L115	@,
.L82:
	ldr	r2, [r3, #36]	@ temp.1169, s_pstVfmwChan
	cmp	r2, #0	@ temp.1169,
	beq	.L85	@,
	ldr	r1, [r2, #176]	@ temp.1170, <variable>.stChanMem_vdh.PhyAddr
	cmp	r0, r1	@ PhyAddr, temp.1170
	bge	.L86	@,
.L87:
	ldr	r1, [r2, #188]	@ temp.1171, <variable>.stChanMem_scd.PhyAddr
	cmp	r0, r1	@ PhyAddr, temp.1171
	blt	.L85	@,
	ldr	r2, [r2, #196]	@ <variable>.stChanMem_scd.Length, <variable>.stChanMem_scd.Length
	add	r1, r1, r2	@ tmp230, temp.1171, <variable>.stChanMem_scd.Length
	cmp	r0, r1	@ PhyAddr, tmp230
	blt	.L114	@,
.L85:
	ldr	r2, [r3, #40]	@ temp.1176, s_pstVfmwChan
	cmp	r2, #0	@ temp.1176,
	beq	.L88	@,
	ldr	r1, [r2, #176]	@ temp.1177, <variable>.stChanMem_vdh.PhyAddr
	cmp	r0, r1	@ PhyAddr, temp.1177
	bge	.L89	@,
.L90:
	ldr	r1, [r2, #188]	@ temp.1178, <variable>.stChanMem_scd.PhyAddr
	cmp	r0, r1	@ PhyAddr, temp.1178
	blt	.L88	@,
	ldr	r2, [r2, #196]	@ <variable>.stChanMem_scd.Length, <variable>.stChanMem_scd.Length
	add	r1, r1, r2	@ tmp235, temp.1178, <variable>.stChanMem_scd.Length
	cmp	r0, r1	@ PhyAddr, tmp235
	blt	.L113	@,
.L88:
	ldr	r2, [r3, #44]	@ temp.1183, s_pstVfmwChan
	cmp	r2, #0	@ temp.1183,
	beq	.L91	@,
	ldr	r1, [r2, #176]	@ temp.1184, <variable>.stChanMem_vdh.PhyAddr
	cmp	r0, r1	@ PhyAddr, temp.1184
	bge	.L92	@,
.L93:
	ldr	r1, [r2, #188]	@ temp.1185, <variable>.stChanMem_scd.PhyAddr
	cmp	r0, r1	@ PhyAddr, temp.1185
	blt	.L91	@,
	ldr	r2, [r2, #196]	@ <variable>.stChanMem_scd.Length, <variable>.stChanMem_scd.Length
	add	r1, r1, r2	@ tmp240, temp.1185, <variable>.stChanMem_scd.Length
	cmp	r0, r1	@ PhyAddr, tmp240
	blt	.L112	@,
.L91:
	ldr	r2, [r3, #48]	@ temp.1190, s_pstVfmwChan
	cmp	r2, #0	@ temp.1190,
	beq	.L94	@,
	ldr	r1, [r2, #176]	@ temp.1191, <variable>.stChanMem_vdh.PhyAddr
	cmp	r0, r1	@ PhyAddr, temp.1191
	bge	.L95	@,
.L96:
	ldr	r1, [r2, #188]	@ temp.1192, <variable>.stChanMem_scd.PhyAddr
	cmp	r0, r1	@ PhyAddr, temp.1192
	blt	.L94	@,
	ldr	r2, [r2, #196]	@ <variable>.stChanMem_scd.Length, <variable>.stChanMem_scd.Length
	add	r1, r1, r2	@ tmp245, temp.1192, <variable>.stChanMem_scd.Length
	cmp	r0, r1	@ PhyAddr, tmp245
	blt	.L111	@,
.L94:
	ldr	r2, [r3, #52]	@ temp.1197, s_pstVfmwChan
	cmp	r2, #0	@ temp.1197,
	beq	.L97	@,
	ldr	r1, [r2, #176]	@ temp.1198, <variable>.stChanMem_vdh.PhyAddr
	cmp	r0, r1	@ PhyAddr, temp.1198
	bge	.L98	@,
.L99:
	ldr	r1, [r2, #188]	@ temp.1199, <variable>.stChanMem_scd.PhyAddr
	cmp	r0, r1	@ PhyAddr, temp.1199
	blt	.L97	@,
	ldr	r2, [r2, #196]	@ <variable>.stChanMem_scd.Length, <variable>.stChanMem_scd.Length
	add	r1, r1, r2	@ tmp250, temp.1199, <variable>.stChanMem_scd.Length
	cmp	r0, r1	@ PhyAddr, tmp250
	blt	.L110	@,
.L97:
	ldr	r2, [r3, #56]	@ temp.1204, s_pstVfmwChan
	cmp	r2, #0	@ temp.1204,
	beq	.L100	@,
	ldr	r1, [r2, #176]	@ temp.1205, <variable>.stChanMem_vdh.PhyAddr
	cmp	r0, r1	@ PhyAddr, temp.1205
	bge	.L101	@,
.L102:
	ldr	r1, [r2, #188]	@ temp.1206, <variable>.stChanMem_scd.PhyAddr
	cmp	r0, r1	@ PhyAddr, temp.1206
	blt	.L100	@,
	ldr	r2, [r2, #196]	@ <variable>.stChanMem_scd.Length, <variable>.stChanMem_scd.Length
	add	r1, r1, r2	@ tmp255, temp.1206, <variable>.stChanMem_scd.Length
	cmp	r0, r1	@ PhyAddr, tmp255
	blt	.L109	@,
.L100:
	ldr	r3, [r3, #60]	@ D.38729, s_pstVfmwChan
	cmp	r3, #0	@ D.38729,
	beq	.L103	@,
	ldr	r2, [r3, #176]	@ D.38732, <variable>.stChanMem_vdh.PhyAddr
	cmp	r2, r0	@ D.38732, PhyAddr
	bgt	.L104	@,
	ldr	r1, [r3, #184]	@ <variable>.stChanMem_vdh.Length, <variable>.stChanMem_vdh.Length
	add	r2, r2, r1	@ tmp260, D.38732, <variable>.stChanMem_vdh.Length
	cmp	r0, r2	@ PhyAddr, tmp260
	blt	.L107	@,
.L104:
	ldr	r2, [r3, #188]	@ D.38740, <variable>.stChanMem_scd.PhyAddr
	cmp	r0, r2	@ PhyAddr, D.38740
	blt	.L103	@,
	ldr	r3, [r3, #196]	@ <variable>.stChanMem_scd.Length, <variable>.stChanMem_scd.Length
	add	ip, r2, r3	@ tmp262, D.38740, <variable>.stChanMem_scd.Length
	cmp	r0, ip	@ PhyAddr, tmp262
	blt	.L107	@,
.L103:
	mvn	r0, #0	@ i,
	ldmfd	sp, {fp, sp, pc}	@
.L58:
	ldr	ip, [r2, #184]	@ <variable>.stChanMem_vdh.Length, <variable>.stChanMem_vdh.Length
	add	r1, r1, ip	@ tmp187, temp.1108, <variable>.stChanMem_vdh.Length
	cmp	r0, r1	@ PhyAddr, tmp187
	bge	.L60	@,
.L106:
	mov	r0, #0	@ i,
	ldmfd	sp, {fp, sp, pc}	@
.L62:
	ldr	ip, [r2, #184]	@ <variable>.stChanMem_vdh.Length, <variable>.stChanMem_vdh.Length
	add	r1, r1, ip	@ tmp192, temp.1114, <variable>.stChanMem_vdh.Length
	cmp	r0, r1	@ PhyAddr, tmp192
	bge	.L63	@,
.L108:
	mov	r0, #1	@ i,
	ldmfd	sp, {fp, sp, pc}	@
.L65:
	ldr	ip, [r2, #184]	@ <variable>.stChanMem_vdh.Length, <variable>.stChanMem_vdh.Length
	add	r1, r1, ip	@ tmp197, temp.1121, <variable>.stChanMem_vdh.Length
	cmp	r0, r1	@ PhyAddr, tmp197
	bge	.L66	@,
.L121:
	mov	r0, #2	@ i,
	ldmfd	sp, {fp, sp, pc}	@
.L68:
	ldr	ip, [r2, #184]	@ <variable>.stChanMem_vdh.Length, <variable>.stChanMem_vdh.Length
	add	r1, r1, ip	@ tmp202, temp.1128, <variable>.stChanMem_vdh.Length
	cmp	r0, r1	@ PhyAddr, tmp202
	bge	.L69	@,
.L120:
	mov	r0, #3	@ i,
	ldmfd	sp, {fp, sp, pc}	@
.L71:
	ldr	ip, [r2, #184]	@ <variable>.stChanMem_vdh.Length, <variable>.stChanMem_vdh.Length
	add	r1, r1, ip	@ tmp207, temp.1135, <variable>.stChanMem_vdh.Length
	cmp	r0, r1	@ PhyAddr, tmp207
	bge	.L72	@,
.L119:
	mov	r0, #4	@ i,
	ldmfd	sp, {fp, sp, pc}	@
.L74:
	ldr	ip, [r2, #184]	@ <variable>.stChanMem_vdh.Length, <variable>.stChanMem_vdh.Length
	add	r1, r1, ip	@ tmp212, temp.1142, <variable>.stChanMem_vdh.Length
	cmp	r0, r1	@ PhyAddr, tmp212
	bge	.L75	@,
.L118:
	mov	r0, #5	@ i,
	ldmfd	sp, {fp, sp, pc}	@
.L77:
	ldr	ip, [r2, #184]	@ <variable>.stChanMem_vdh.Length, <variable>.stChanMem_vdh.Length
	add	r1, r1, ip	@ tmp217, temp.1149, <variable>.stChanMem_vdh.Length
	cmp	r0, r1	@ PhyAddr, tmp217
	bge	.L78	@,
.L117:
	mov	r0, #6	@ i,
	ldmfd	sp, {fp, sp, pc}	@
.L80:
	ldr	ip, [r2, #184]	@ <variable>.stChanMem_vdh.Length, <variable>.stChanMem_vdh.Length
	add	r1, r1, ip	@ tmp222, temp.1156, <variable>.stChanMem_vdh.Length
	cmp	r0, r1	@ PhyAddr, tmp222
	bge	.L81	@,
.L116:
	mov	r0, #7	@ i,
	ldmfd	sp, {fp, sp, pc}	@
.L83:
	ldr	ip, [r2, #184]	@ <variable>.stChanMem_vdh.Length, <variable>.stChanMem_vdh.Length
	add	r1, r1, ip	@ tmp227, temp.1163, <variable>.stChanMem_vdh.Length
	cmp	r0, r1	@ PhyAddr, tmp227
	bge	.L84	@,
.L115:
	mov	r0, #8	@ i,
	ldmfd	sp, {fp, sp, pc}	@
.L86:
	ldr	ip, [r2, #184]	@ <variable>.stChanMem_vdh.Length, <variable>.stChanMem_vdh.Length
	add	r1, r1, ip	@ tmp232, temp.1170, <variable>.stChanMem_vdh.Length
	cmp	r0, r1	@ PhyAddr, tmp232
	bge	.L87	@,
.L114:
	mov	r0, #9	@ i,
	ldmfd	sp, {fp, sp, pc}	@
.L89:
	ldr	ip, [r2, #184]	@ <variable>.stChanMem_vdh.Length, <variable>.stChanMem_vdh.Length
	add	r1, r1, ip	@ tmp237, temp.1177, <variable>.stChanMem_vdh.Length
	cmp	r0, r1	@ PhyAddr, tmp237
	bge	.L90	@,
.L113:
	mov	r0, #10	@ i,
	ldmfd	sp, {fp, sp, pc}	@
.L92:
	ldr	ip, [r2, #184]	@ <variable>.stChanMem_vdh.Length, <variable>.stChanMem_vdh.Length
	add	r1, r1, ip	@ tmp242, temp.1184, <variable>.stChanMem_vdh.Length
	cmp	r0, r1	@ PhyAddr, tmp242
	bge	.L93	@,
.L112:
	mov	r0, #11	@ i,
	ldmfd	sp, {fp, sp, pc}	@
.L95:
	ldr	ip, [r2, #184]	@ <variable>.stChanMem_vdh.Length, <variable>.stChanMem_vdh.Length
	add	r1, r1, ip	@ tmp247, temp.1191, <variable>.stChanMem_vdh.Length
	cmp	r0, r1	@ PhyAddr, tmp247
	bge	.L96	@,
.L111:
	mov	r0, #12	@ i,
	ldmfd	sp, {fp, sp, pc}	@
.L98:
	ldr	ip, [r2, #184]	@ <variable>.stChanMem_vdh.Length, <variable>.stChanMem_vdh.Length
	add	r1, r1, ip	@ tmp252, temp.1198, <variable>.stChanMem_vdh.Length
	cmp	r0, r1	@ PhyAddr, tmp252
	bge	.L99	@,
.L110:
	mov	r0, #13	@ i,
	ldmfd	sp, {fp, sp, pc}	@
.L101:
	ldr	ip, [r2, #184]	@ <variable>.stChanMem_vdh.Length, <variable>.stChanMem_vdh.Length
	add	r1, r1, ip	@ tmp257, temp.1205, <variable>.stChanMem_vdh.Length
	cmp	r0, r1	@ PhyAddr, tmp257
	bge	.L102	@,
.L109:
	mov	r0, #14	@ i,
	ldmfd	sp, {fp, sp, pc}	@
.L107:
	mov	r0, #15	@ i,
	ldmfd	sp, {fp, sp, pc}	@
	.fnend
	.size	VCTRL_GetChanIDByMemAddr, .-VCTRL_GetChanIDByMemAddr
	.align	2
	.global	VCTRL_GetChanVoQue
	.type	VCTRL_GetChanVoQue, %function
VCTRL_GetChanVoQue:
	.fnstart
.LFB1436:
	@ args = 0, pretend = 0, frame = 0
	@ frame_needed = 1, uses_anonymous_args = 0
	.movsp ip
	mov	ip, sp	@,
	stmfd	sp!, {fp, ip, lr, pc}	@,
	.pad #4
	.save {fp, ip, lr}
	.setfp fp, ip, #-4
	sub	fp, ip, #4	@,,
	push	{lr}
	bl	__gnu_mcount_nc
	movw	r3, #:lower16:.LANCHOR0	@ tmp154,
	movt	r3, #:upper16:.LANCHOR0	@ tmp154,
	ldr	r0, [r3, r0, asl #2]	@ D.38920, s_pstVfmwChan
	cmp	r0, #0	@ D.38920,
	beq	.L123	@,
	ldr	r2, [r0, #936]	@ <variable>.eVidStd, <variable>.eVidStd
	cmp	r2, #18	@ <variable>.eVidStd,
	ldrls	pc, [pc, r2, asl #2]	@ <variable>.eVidStd
	b	.L123	@
.L137:
	.word	.L136
	.word	.L125
	.word	.L126
	.word	.L127
	.word	.L128
	.word	.L129
	.word	.L130
	.word	.L123
	.word	.L131
	.word	.L132
	.word	.L133
	.word	.L133
	.word	.L133
	.word	.L134
	.word	.L128
	.word	.L136
	.word	.L123
	.word	.L123
	.word	.L136
.L136:
	add	r0, r0, #960	@ pstVoQue, D.38920,
	ldmfd	sp, {fp, sp, pc}	@
.L123:
	mov	r0, #0	@ pstVoQue,
	ldmfd	sp, {fp, sp, pc}	@
.L133:
	ldr	r3, [r3, #64]	@ g_VdmCharacter, g_VdmCharacter
	tst	r3, #1	@ g_VdmCharacter,
	addne	r0, r0, #13568	@ pstVoQue, D.38920,
	addne	r0, r0, #32	@ pstVoQue, pstVoQue,
	ldmnefd	sp, {fp, sp, pc}	@
.L128:
	add	ip, r0, #24320	@ pstVoQue, D.38920,
	add	r0, ip, #184	@ pstVoQue, pstVoQue,
	ldmfd	sp, {fp, sp, pc}	@
.L129:
	add	r0, r0, #31488	@ pstVoQue, D.38920,
	add	r0, r0, #200	@ pstVoQue, pstVoQue,
	ldmfd	sp, {fp, sp, pc}	@
.L130:
	add	r3, r0, #16896	@ pstVoQue, D.38920,
	add	r0, r3, #128	@ pstVoQue, pstVoQue,
	ldmfd	sp, {fp, sp, pc}	@
.L131:
	add	ip, r0, #43776	@ pstVoQue, D.38920,
	add	r0, ip, #240	@ pstVoQue, pstVoQue,
	ldmfd	sp, {fp, sp, pc}	@
.L134:
	add	r2, r0, #9088	@ pstVoQue, D.38920,
	add	r0, r2, #32	@ pstVoQue, pstVoQue,
	ldmfd	sp, {fp, sp, pc}	@
.L127:
	add	r0, r0, #77824	@ pstVoQue, D.38920,
	add	r0, r0, #552	@ pstVoQue, pstVoQue,
	ldmfd	sp, {fp, sp, pc}	@
.L132:
	add	r2, r0, #43776	@ pstVoQue, D.38920,
	add	r0, r2, #216	@ pstVoQue, pstVoQue,
	ldmfd	sp, {fp, sp, pc}	@
.L125:
	add	r1, r0, #113664	@ pstVoQue, D.38920,
	add	r0, r1, #1000	@ pstVoQue, pstVoQue,
	ldmfd	sp, {fp, sp, pc}	@
.L126:
	add	r1, r0, #23552	@ pstVoQue, D.38920,
	add	r0, r1, #8	@ pstVoQue, pstVoQue,
	ldmfd	sp, {fp, sp, pc}	@
	.fnend
	.size	VCTRL_GetChanVoQue, .-VCTRL_GetChanVoQue
	.align	2
	.global	VCTRL_SvdecLastFrame
	.type	VCTRL_SvdecLastFrame, %function
VCTRL_SvdecLastFrame:
	.fnstart
.LFB1454:
	@ args = 0, pretend = 0, frame = 8
	@ frame_needed = 1, uses_anonymous_args = 0
	.movsp ip
	mov	ip, sp	@,
	stmfd	sp!, {fp, ip, lr, pc}	@,
	.pad #4
	.save {fp, ip, lr}
	.setfp fp, ip, #-4
	sub	fp, ip, #4	@,,
	.pad #8
	sub	sp, sp, #8	@,,
	push	{lr}
	bl	__gnu_mcount_nc
	movw	r3, #:lower16:.LANCHOR0	@ tmp136,
	movt	r3, #:upper16:.LANCHOR0	@ tmp136,
	ldr	r3, [r3, #68]	@ g_event_report.759, g_event_report
	cmp	r3, #0	@ g_event_report.759,
	beq	.L143	@,
	sub	r2, fp, #12	@ tmp138,,
	add	r1, r1, #2	@ tmp137, LastFrameID,
	str	r1, [r2, #-4]!	@ tmp137, para
	mov	r1, #115	@,
	blx	r3	@ g_event_report.759
.L143:
	sub	sp, fp, #12
	ldmfd	sp, {fp, sp, pc}
	.fnend
	.size	VCTRL_SvdecLastFrame, .-VCTRL_SvdecLastFrame
	.align	2
	.global	str2val
	.type	str2val, %function
str2val:
	.fnstart
.LFB1465:
	@ args = 0, pretend = 0, frame = 0
	@ frame_needed = 1, uses_anonymous_args = 0
	.movsp ip
	mov	ip, sp	@,
	stmfd	sp!, {r4, r5, fp, ip, lr, pc}	@,
	.pad #4
	.save {r4, r5, fp, ip, lr}
	.setfp fp, ip, #-4
	sub	fp, ip, #4	@,,
	push	{lr}
	bl	__gnu_mcount_nc
	ldrb	r3, [r0, #0]	@ zero_extendqisi2	@ tmp173,* str
	cmp	r3, #48	@ tmp173,
	beq	.L187	@,
.L145:
	mov	r4, #10	@ weight,
	mov	r5, #0	@ i,
.L146:
	add	r0, r0, r5	@ ivtmp.1284, str, i
	mov	ip, #0	@ dat,
	ldrb	r3, [r0, #0]	@ zero_extendqisi2	@ D.40342,* ivtmp.1284
	cmp	r3, #31	@ D.40342,
	bls	.L147	@,
	cmp	r4, #16	@ weight,
	beq	.L176	@,
.L157:
	sub	ip, r3, #48	@ tmp194, D.40342,
	uxtb	r3, ip	@ tmp195, tmp194
	cmp	r3, #9	@ tmp195,
	bhi	.L177	@,
.L178:
	mov	r2, #1	@ tmp185,
	cmp	r2, #0	@ tmp185,
	add	r0, r0, r2	@ ivtmp.1284, ivtmp.1284,
	add	r5, r5, r2	@ i, i,
	beq	.L154	@,
	ldrb	r3, [r0, #0]	@ zero_extendqisi2	@ D.40342,* ivtmp.1284
	cmp	r3, #31	@ D.40342,
	bls	.L147	@,
	cmp	r4, #16	@ weight,
	beq	.L180	@,
.L162:
	sub	r3, r3, #48	@ tmp199, D.40342,
	uxtb	r2, r3	@ tmp200, tmp199
	cmp	r2, #9	@ tmp200,
	bhi	.L177	@,
.L181:
	add	r5, r5, #1	@ i, i,
	add	r0, r0, #1	@ ivtmp.1284, ivtmp.1284,
	cmp	r5, #9	@ i,
	mla	ip, r4, ip, r3	@ dat, weight, dat, d
	bls	.L154	@,
.L147:
	mov	r0, #0	@ D.40362,
	str	ip, [r1, #0]	@ dat,* data
	ldmfd	sp, {r4, r5, fp, sp, pc}	@
.L149:
	cmp	r3, #64	@ D.40342,
	bhi	.L150	@,
.L148:
	sub	r3, r3, #48	@ tmp181, D.40342,
	uxtb	r2, r3	@ tmp182, tmp181
	cmp	r2, #9	@ tmp182,
	bhi	.L177	@,
.L151:
	ldrb	r2, [r0, #1]	@ zero_extendqisi2	@ D.40342,
	add	r5, r5, #1	@ tmp186, i,
	mla	ip, r4, ip, r3	@ dat, weight, dat, d
	cmp	r2, #31	@ D.40342,
	add	r0, r0, #1	@ tmp187, ivtmp.1284,
	bls	.L147	@,
	cmp	r4, #16	@ weight,
	beq	.L183	@,
.L168:
	sub	r2, r2, #48	@ tmp203, D.40342,
	uxtb	r3, r2	@ tmp204, tmp203
	cmp	r3, #9	@ tmp204,
	bhi	.L177	@,
.L184:
	add	r5, r5, #1	@ i, tmp186,
	add	r0, r0, #1	@ ivtmp.1284, tmp187,
	cmp	r5, #9	@ i,
	mla	ip, r4, ip, r2	@ dat, weight, dat, d
	bhi	.L147	@,
.L154:
	ldrb	r3, [r0, #0]	@ zero_extendqisi2	@ D.40342,* ivtmp.1284
	cmp	r3, #31	@ D.40342,
	bls	.L147	@,
	cmp	r4, #16	@ weight,
	bne	.L148	@,
	cmp	r3, #96	@ D.40342,
	bls	.L149	@,
	cmp	r3, #102	@ D.40342,
	subls	r3, r3, #87	@ d, D.40342,
	bls	.L151	@,
.L150:
	cmp	r3, #70	@ D.40342,
	subls	r3, r3, #55	@ d, D.40342,
	bls	.L151	@,
	b	.L148	@
.L183:
	cmp	r2, #96	@ D.40342,
	bls	.L170	@,
	cmp	r2, #102	@ D.40342,
	bhi	.L171	@,
	sub	r2, r2, #87	@ d, D.40342,
	b	.L184	@
.L170:
	cmp	r2, #64	@ D.40342,
	bls	.L168	@,
.L171:
	cmp	r2, #70	@ D.40342,
	subls	r2, r2, #55	@ d, D.40342,
	bls	.L184	@,
	b	.L168	@
.L187:
	ldrb	r2, [r0, #1]	@ zero_extendqisi2	@ D.40336,
	cmp	r2, #120	@ D.40336,
	cmpne	r2, #88	@, D.40336,
	moveq	r4, #16	@ weight,
	moveq	r5, #2	@ i,
	beq	.L146	@,
	b	.L145	@
.L176:
	cmp	r3, #96	@ D.40342,
	bls	.L159	@,
	cmp	r3, #102	@ D.40342,
	bhi	.L160	@,
	sub	ip, r3, #87	@ d, D.40342,
	b	.L178	@
.L159:
	cmp	r3, #64	@ D.40342,
	bls	.L157	@,
.L160:
	cmp	r3, #70	@ D.40342,
	subls	ip, r3, #55	@ d, D.40342,
	bls	.L178	@,
	b	.L157	@
.L180:
	cmp	r3, #96	@ D.40342,
	bls	.L164	@,
	cmp	r3, #102	@ D.40342,
	bhi	.L165	@,
	sub	r3, r3, #87	@ d, D.40342,
	b	.L181	@
.L164:
	cmp	r3, #64	@ D.40342,
	bls	.L162	@,
.L165:
	cmp	r3, #70	@ D.40342,
	subls	r3, r3, #55	@ d, D.40342,
	bhi	.L162	@,
	add	r5, r5, #1	@ i, i,
	add	r0, r0, #1	@ ivtmp.1284, ivtmp.1284,
	cmp	r5, #9	@ i,
	mla	ip, r4, ip, r3	@ dat, weight, dat, d
	bls	.L154	@,
	b	.L147	@
.L177:
	mvn	r0, #0	@ D.40362,
	ldmfd	sp, {r4, r5, fp, sp, pc}	@
	.fnend
	.size	str2val, .-str2val
	.align	2
	.global	Get_YuvFormat
	.type	Get_YuvFormat, %function
Get_YuvFormat:
	.fnstart
.LFB1469:
	@ args = 0, pretend = 0, frame = 0
	@ frame_needed = 1, uses_anonymous_args = 0
	.movsp ip
	mov	ip, sp	@,
	stmfd	sp!, {fp, ip, lr, pc}	@,
	.pad #4
	.save {fp, ip, lr}
	.setfp fp, ip, #-4
	sub	fp, ip, #4	@,,
	push	{lr}
	bl	__gnu_mcount_nc
	cmp	r1, #6	@ enFmt,
	ldrls	pc, [pc, r1, asl #2]	@ enFmt
	b	.L189	@
.L197:
	.word	.L190
	.word	.L191
	.word	.L192
	.word	.L193
	.word	.L194
	.word	.L195
	.word	.L196
.L196:
	cmp	r0, #1	@ SemiPlanarFlag,
	movne	r0, #7	@, eYuvFormat,
	ldmfd	sp, {fp, sp, pc}	@
.L189:
	mov	r3, r1	@, enFmt
	movw	r2, #8779	@,
	mov	r0, #1	@,
	movw	r1, #:lower16:.LC0	@,
	movt	r1, #:upper16:.LC0	@,
	bl	dprint_vfmw	@
	mov	r0, #13	@ eYuvFormat,
	ldmfd	sp, {fp, sp, pc}	@
.L190:
	cmp	r0, #1	@ SemiPlanarFlag,
	movne	r0, #6	@ eYuvFormat,
	moveq	r0, #0	@ eYuvFormat,
	ldmfd	sp, {fp, sp, pc}	@
.L191:
	cmp	r0, #1	@ SemiPlanarFlag,
	moveq	r0, #2	@ eYuvFormat,
	movne	r0, #8	@ eYuvFormat,
	ldmfd	sp, {fp, sp, pc}	@
.L192:
	cmp	r0, #1	@ SemiPlanarFlag,
	moveq	r0, #4	@ eYuvFormat,
	movne	r0, #10	@ eYuvFormat,
	ldmfd	sp, {fp, sp, pc}	@
.L193:
	cmp	r0, #1	@ SemiPlanarFlag,
	moveq	r0, #3	@ eYuvFormat,
	movne	r0, #9	@ eYuvFormat,
	ldmfd	sp, {fp, sp, pc}	@
.L194:
	cmp	r0, #1	@ SemiPlanarFlag,
	moveq	r0, #5	@ eYuvFormat,
	movne	r0, #11	@ eYuvFormat,
	ldmfd	sp, {fp, sp, pc}	@
.L195:
	cmp	r0, #1	@ SemiPlanarFlag,
	moveq	r0, #13	@ eYuvFormat,
	movne	r0, #12	@ eYuvFormat,
	ldmfd	sp, {fp, sp, pc}	@
	.fnend
	.size	Get_YuvFormat, .-Get_YuvFormat
	.align	2
	.global	VCTRL_SetLastFrameIdPlus2
	.type	VCTRL_SetLastFrameIdPlus2, %function
VCTRL_SetLastFrameIdPlus2:
	.fnstart
.LFB1452:
	@ args = 0, pretend = 0, frame = 0
	@ frame_needed = 1, uses_anonymous_args = 0
	.movsp ip
	mov	ip, sp	@,
	stmfd	sp!, {fp, ip, lr, pc}	@,
	.pad #4
	.save {fp, ip, lr}
	.setfp fp, ip, #-4
	sub	fp, ip, #4	@,,
	push	{lr}
	bl	__gnu_mcount_nc
	cmp	r0, #15	@ ChanID,
	bhi	.L211	@,
	movw	r2, #:lower16:.LANCHOR0	@ tmp138,
	movt	r2, #:upper16:.LANCHOR0	@ tmp138,
	ldr	r3, [r2, r0, asl #2]	@ D.39522, s_pstVfmwChan
	cmp	r3, #0	@ D.39522,
	strne	r1, [r3, #732]	@ Value, <variable>.s32LastFrameIdPlus2
	ldmfd	sp, {fp, sp, pc}	@
.L211:
	movw	r1, #:lower16:.LC1	@,
	movw	r2, #7383	@,
	movt	r1, #:upper16:.LC1	@,
	movw	r3, #:lower16:.LC2	@,
	mov	r0, #0	@,
	movt	r3, #:upper16:.LC2	@,
	bl	dprint_vfmw	@
	ldmfd	sp, {fp, sp, pc}	@
	.fnend
	.size	VCTRL_SetLastFrameIdPlus2, .-VCTRL_SetLastFrameIdPlus2
	.align	2
	.global	VCTRL_GetLastFrameIdPlus2
	.type	VCTRL_GetLastFrameIdPlus2, %function
VCTRL_GetLastFrameIdPlus2:
	.fnstart
.LFB1451:
	@ args = 0, pretend = 0, frame = 0
	@ frame_needed = 1, uses_anonymous_args = 0
	.movsp ip
	mov	ip, sp	@,
	stmfd	sp!, {fp, ip, lr, pc}	@,
	.pad #4
	.save {fp, ip, lr}
	.setfp fp, ip, #-4
	sub	fp, ip, #4	@,,
	push	{lr}
	bl	__gnu_mcount_nc
	cmp	r0, #15	@ ChanID,
	bhi	.L217	@,
	movw	r1, #:lower16:.LANCHOR0	@ tmp139,
	movt	r1, #:upper16:.LANCHOR0	@ tmp139,
	ldr	r3, [r1, r0, asl #2]	@ D.39510, s_pstVfmwChan
	cmp	r3, #0	@ D.39510,
	mvneq	r0, #0	@ D.39508,
	ldrne	r0, [r3, #732]	@ D.39508, <variable>.s32LastFrameIdPlus2
	ldmfd	sp, {fp, sp, pc}	@
.L217:
	mov	r0, #0	@,
	movw	r1, #:lower16:.LC3	@,
	movw	r2, #7371	@,
	movt	r1, #:upper16:.LC3	@,
	movw	r3, #:lower16:.LC2	@,
	movt	r3, #:upper16:.LC2	@,
	bl	dprint_vfmw	@
	mvn	r0, #0	@ D.39508,
	ldmfd	sp, {fp, sp, pc}	@
	.fnend
	.size	VCTRL_GetLastFrameIdPlus2, .-VCTRL_GetLastFrameIdPlus2
	.align	2
	.global	VCTRL_SetVdecExtra
	.type	VCTRL_SetVdecExtra, %function
VCTRL_SetVdecExtra:
	.fnstart
.LFB1441:
	@ args = 0, pretend = 0, frame = 0
	@ frame_needed = 1, uses_anonymous_args = 0
	.movsp ip
	mov	ip, sp	@,
	stmfd	sp!, {r3, r4, r5, r6, fp, ip, lr, pc}	@,
	.pad #4
	.save {r3, r4, r5, r6, fp, ip, lr}
	.setfp fp, ip, #-4
	sub	fp, ip, #4	@,,
	push	{lr}
	bl	__gnu_mcount_nc
	add	r4, r0, #4992	@ tmp138, new_extra_ref,
	add	r3, r4, #8	@ tmp138, tmp138,
	movw	r2, #10000	@ tmp140,
	movw	r4, #:lower16:.LANCHOR0	@ tmp158,
	cmp	r3, r2	@ tmp138, tmp140
	movt	r4, #:upper16:.LANCHOR0	@ tmp158,
	mov	r5, r1	@ new_extra_disp, new_extra_disp
	str	r0, [r4, #72]	@ new_extra_ref, extra_ref
	bhi	.L222	@,
.L219:
	add	r2, r5, #4992	@ tmp148, new_extra_disp,
	movw	ip, #5000	@ tmp143,
	add	r1, r2, #8	@ tmp148, tmp148,
	cmp	r0, ip	@ new_extra_ref, tmp143
	movge	r0, ip	@ iftmp.647, tmp143
	movw	r6, #:lower16:-5000	@ tmp145,
	movt	r6, #:upper16:-5000	@ tmp145,
	cmp	r0, r6	@ iftmp.647, tmp145
	strge	r0, [r4, #72]	@, iftmp.647, extra_ref
	strlt	r6, [r4, #72]	@, tmp145, extra_ref
	movw	r0, #10000	@ tmp150,
	cmp	r1, r0	@ tmp148, tmp150
	movw	r6, #:lower16:.LANCHOR0	@ tmp144,
	str	r5, [r4, #76]	@ new_extra_disp, extra_disp
	movt	r6, #:upper16:.LANCHOR0	@ tmp144,
	bhi	.L223	@,
.L220:
	movw	r0, #5000	@ tmp153,
	movw	r3, #:lower16:-5000	@ tmp155,
	cmp	r5, r0	@ new_extra_disp, tmp153
	movge	r5, r0	@ iftmp.1383, tmp153
	movt	r3, #:upper16:-5000	@ tmp155,
	cmp	r5, r3	@ iftmp.1383, tmp155
	strge	r5, [r4, #76]	@, iftmp.1383, extra_disp
	strlt	r3, [r4, #76]	@, tmp155, extra_disp
	ldmfd	sp, {r3, r4, r5, r6, fp, sp, pc}	@
.L222:
	mov	r2, r0	@, new_extra_ref
	movw	r1, #:lower16:.LC4	@,
	mov	r0, #32	@,
	movt	r1, #:upper16:.LC4	@,
	bl	dprint_vfmw	@
	ldr	r0, [r4, #72]	@ new_extra_ref, extra_ref
	b	.L219	@
.L223:
	mov	r2, r5	@, new_extra_disp
	mov	r0, #32	@,
	movw	r1, #:lower16:.LC5	@,
	movt	r1, #:upper16:.LC5	@,
	bl	dprint_vfmw	@
	ldr	r5, [r6, #76]	@ new_extra_disp, extra_disp
	b	.L220	@
	.fnend
	.size	VCTRL_SetVdecExtra, .-VCTRL_SetVdecExtra
	.align	2
	.global	VCTRL_GetChanCapLevel
	.type	VCTRL_GetChanCapLevel, %function
VCTRL_GetChanCapLevel:
	.fnstart
.LFB1440:
	@ args = 0, pretend = 0, frame = 0
	@ frame_needed = 1, uses_anonymous_args = 0
	.movsp ip
	mov	ip, sp	@,
	stmfd	sp!, {fp, ip, lr, pc}	@,
	.pad #4
	.save {fp, ip, lr}
	.setfp fp, ip, #-4
	sub	fp, ip, #4	@,,
	push	{lr}
	bl	__gnu_mcount_nc
	cmp	r0, #15	@ ChanID,
	bhi	.L229	@,
	movw	r1, #:lower16:.LANCHOR0	@ tmp139,
	movt	r1, #:upper16:.LANCHOR0	@ tmp139,
	ldr	r3, [r1, r0, asl #2]	@ D.38993, s_pstVfmwChan
	cmp	r3, #0	@ D.38993,
	moveq	r0, #27	@ D.38991,
	ldrne	r0, [r3, #28]	@ D.38991, <variable>.eChanCapLevel
	ldmfd	sp, {fp, sp, pc}	@
.L229:
	mov	r0, #0	@,
	movw	r1, #:lower16:.LC3	@,
	movw	r2, #6514	@,
	movt	r1, #:upper16:.LC3	@,
	movw	r3, #:lower16:.LC2	@,
	movt	r3, #:upper16:.LC2	@,
	bl	dprint_vfmw	@
	mvn	r0, #0	@ D.38991,
	ldmfd	sp, {fp, sp, pc}	@
	.fnend
	.size	VCTRL_GetChanCapLevel, .-VCTRL_GetChanCapLevel
	.align	2
	.global	VCTRL_GetChanHeight
	.type	VCTRL_GetChanHeight, %function
VCTRL_GetChanHeight:
	.fnstart
.LFB1439:
	@ args = 0, pretend = 0, frame = 0
	@ frame_needed = 1, uses_anonymous_args = 0
	.movsp ip
	mov	ip, sp	@,
	stmfd	sp!, {fp, ip, lr, pc}	@,
	.pad #4
	.save {fp, ip, lr}
	.setfp fp, ip, #-4
	sub	fp, ip, #4	@,,
	push	{lr}
	bl	__gnu_mcount_nc
	cmp	r0, #15	@ ChanID,
	bhi	.L235	@,
	movw	r3, #:lower16:.LANCHOR0	@ tmp139,
	movt	r3, #:upper16:.LANCHOR0	@ tmp139,
	ldr	r0, [r3, r0, asl #2]	@ D.38981, s_pstVfmwChan
	cmp	r0, #0	@ D.38981,
	beq	.L236	@,
	movw	r1, #:lower16:11201080	@ tmp142,
	movt	r1, #:upper16:11201080	@ tmp142,
	ldr	r0, [r0, r1]	@ D.38979, <variable>.stSynExtraData.stChanOption.s32MaxHeight
	ldmfd	sp, {fp, sp, pc}	@
.L235:
	mov	r0, #0	@,
	movw	r1, #:lower16:.LC3	@,
	movw	r2, #6506	@,
	movt	r1, #:upper16:.LC3	@,
	movw	r3, #:lower16:.LC2	@,
	movt	r3, #:upper16:.LC2	@,
	bl	dprint_vfmw	@
	mvn	r0, #0	@ D.38979,
	ldmfd	sp, {fp, sp, pc}	@
.L236:
	movw	r1, #:lower16:.LC3	@,
	movw	r2, #6507	@,
	movt	r1, #:upper16:.LC3	@,
	movw	r3, #:lower16:.LC6	@,
	movt	r3, #:upper16:.LC6	@,
	bl	dprint_vfmw	@
	mvn	r0, #0	@ D.38979,
	ldmfd	sp, {fp, sp, pc}	@
	.fnend
	.size	VCTRL_GetChanHeight, .-VCTRL_GetChanHeight
	.align	2
	.global	VCTRL_GetChanWidth
	.type	VCTRL_GetChanWidth, %function
VCTRL_GetChanWidth:
	.fnstart
.LFB1438:
	@ args = 0, pretend = 0, frame = 0
	@ frame_needed = 1, uses_anonymous_args = 0
	.movsp ip
	mov	ip, sp	@,
	stmfd	sp!, {fp, ip, lr, pc}	@,
	.pad #4
	.save {fp, ip, lr}
	.setfp fp, ip, #-4
	sub	fp, ip, #4	@,,
	push	{lr}
	bl	__gnu_mcount_nc
	cmp	r0, #15	@ ChanID,
	bhi	.L242	@,
	movw	r3, #:lower16:.LANCHOR0	@ tmp139,
	movt	r3, #:upper16:.LANCHOR0	@ tmp139,
	ldr	r0, [r3, r0, asl #2]	@ D.38969, s_pstVfmwChan
	cmp	r0, #0	@ D.38969,
	beq	.L243	@,
	movw	r1, #:lower16:11201076	@ tmp142,
	movt	r1, #:upper16:11201076	@ tmp142,
	ldr	r0, [r0, r1]	@ D.38967, <variable>.stSynExtraData.stChanOption.s32MaxWidth
	ldmfd	sp, {fp, sp, pc}	@
.L242:
	mov	r0, #0	@,
	movw	r1, #:lower16:.LC3	@,
	movw	r2, #6498	@,
	movt	r1, #:upper16:.LC3	@,
	movw	r3, #:lower16:.LC2	@,
	movt	r3, #:upper16:.LC2	@,
	bl	dprint_vfmw	@
	mvn	r0, #0	@ D.38967,
	ldmfd	sp, {fp, sp, pc}	@
.L243:
	movw	r1, #:lower16:.LC3	@,
	movw	r2, #6499	@,
	movt	r1, #:upper16:.LC3	@,
	movw	r3, #:lower16:.LC6	@,
	movt	r3, #:upper16:.LC6	@,
	bl	dprint_vfmw	@
	mvn	r0, #0	@ D.38967,
	ldmfd	sp, {fp, sp, pc}	@
	.fnend
	.size	VCTRL_GetChanWidth, .-VCTRL_GetChanWidth
	.align	2
	.global	GetNextDecodeMode
	.type	GetNextDecodeMode, %function
GetNextDecodeMode:
	.fnstart
.LFB1431:
	@ args = 0, pretend = 0, frame = 0
	@ frame_needed = 1, uses_anonymous_args = 0
	.movsp ip
	mov	ip, sp	@,
	stmfd	sp!, {r4, r5, r6, r7, fp, ip, lr, pc}	@,
	.pad #4
	.save {r4, r5, r6, r7, fp, ip, lr}
	.setfp fp, ip, #-4
	sub	fp, ip, #4	@,,
	.pad #8
	sub	sp, sp, #8	@,,
	push	{lr}
	bl	__gnu_mcount_nc
	movw	r7, #:lower16:1431655766	@ tmp146,
	mov	ip, r2, asl #1	@ tmp143, Threshould,
	movt	r7, #:upper16:1431655766	@ tmp146,
	mov	r4, r2	@ Threshould, Threshould
	add	r6, r2, #7	@ tmp140, Threshould,
	smull	r2, r3, r7, ip	@, tmp145, tmp146, tmp143
	cmp	r4, #0	@ Threshould,
	mov	r5, r0	@ CurMode, CurMode
	mov	r7, r1	@ StreamAmount, StreamAmount
	movge	r6, r4	@ Threshould, Threshould
	mov	r0, #30	@,
	mov	r6, r6, asr #3	@ tmp141, Threshould,
	movw	r1, #:lower16:.LC7	@,
	movt	r1, #:upper16:.LC7	@,
	str	r4, [sp, #0]	@ Threshould,
	mov	r2, r6	@, tmp141
	sub	r3, r3, ip, asr #31	@, tmp145, tmp143,
	str	r7, [sp, #4]	@ StreamAmount,
	bl	dprint_vfmw	@
	cmp	r5, #3	@ CurMode,
	beq	.L251	@,
	cmp	r4, r7	@ Threshould, StreamAmount
	blt	.L248	@,
.L250:
	mov	r4, r5	@ NextMode, CurMode
.L247:
	mov	r2, r5	@, CurMode
	mov	r3, r4	@, NextMode
	mov	r0, #30	@,
	movw	r1, #:lower16:.LC10	@,
	movt	r1, #:upper16:.LC10	@,
	bl	dprint_vfmw	@
	mov	r0, r4	@, NextMode
	sub	sp, fp, #28
	ldmfd	sp, {r4, r5, r6, r7, fp, sp, pc}
.L248:
	movw	r1, #:lower16:.LC9	@,
	mov	r0, #30	@,
	movt	r1, #:upper16:.LC9	@,
	mov	r4, #3	@ NextMode,
	bl	dprint_vfmw	@
	b	.L247	@
.L251:
	cmp	r6, r7	@ tmp141, StreamAmount
	ble	.L250	@,
	movw	r1, #:lower16:.LC8	@,
	mov	r0, #30	@,
	movt	r1, #:upper16:.LC8	@,
	mov	r4, #0	@ NextMode,
	bl	dprint_vfmw	@
	b	.L247	@
	.fnend
	.size	GetNextDecodeMode, .-GetNextDecodeMode
	.align	2
	.global	VCTRL_GetChanMemSize
	.type	VCTRL_GetChanMemSize, %function
VCTRL_GetChanMemSize:
	.fnstart
.LFB1428:
	@ args = 0, pretend = 0, frame = 656
	@ frame_needed = 1, uses_anonymous_args = 0
	.movsp ip
	mov	ip, sp	@,
	stmfd	sp!, {r4, r5, r6, r7, r8, r9, sl, fp, ip, lr, pc}	@,
	.pad #4
	.save {r4, r5, r6, r7, r8, r9, sl, fp, ip, lr}
	.setfp fp, ip, #-4
	sub	fp, ip, #4	@,,
	.pad #692
	sub	sp, sp, #692	@,,
	push	{lr}
	bl	__gnu_mcount_nc
	mov	sl, r0, asl #3	@ tmp313, eCapLevel,
	rsb	r8, r0, sl	@ tmp169, eCapLevel, tmp313
	movw	r6, #:lower16:CapItem	@ tmp312,
	movt	r6, #:upper16:CapItem	@ tmp312,
	sub	r3, r0, #18	@ D.40705, eCapLevel,
	add	r4, r6, r8, asl #2	@, tmp171, tmp312, tmp169,
	cmp	r3, #7	@ D.40705,
	mov	r5, r0	@ eCapLevel, eCapLevel
	str	r2, [fp, #-684]	@ ScdMemSize, %sfp
	ldr	r8, [r4, #12]	@ TempMinFrame, CapItem
	movwls	r2, #:lower16:.LANCHOR1	@ tmp197,
	ldr	r0, [r4, #20]	@, CapItem
	movtls	r2, #:upper16:.LANCHOR1	@ tmp197,
	ldr	ip, [r4, #8]	@ TempPmv, CapItem
	movhi	r3, #6	@ MinDnrFspNum,
	ldr	r9, [r4, #16]	@ TempMiddleFrame, CapItem
	movw	r4, #:lower16:.LANCHOR0	@ tmp314,
	movt	r4, #:upper16:.LANCHOR0	@ tmp314,
	str	r1, [fp, #-680]	@ VdmMemSize, %sfp
	ldrls	r3, [r2, r3, asl #2]	@ MinDnrFspNum, CSWTCH.837
	sub	r2, r8, #2	@ tmp198, TempMinFrame,
	ldr	r1, [r4, #72]	@ extra_ref, extra_ref
	rsb	r3, r3, r2	@ s32MaxRefFrameNum, MinDnrFspNum, tmp198
	str	r0, [fp, #-696]	@, %sfp
	cmp	r1, #0	@ extra_ref,
	movlt	r2, #0	@ tmp202,
	strlt	r2, [r4, #72]	@ tmp202, extra_ref
	cmp	r3, #15	@ s32MaxRefFrameNum,
	movgt	r7, #0	@ extra_ref_tmp,
	bgt	.L257	@,
	ldr	r7, [r4, #72]	@ extra_ref_tmp, extra_ref
	add	r2, r3, r7	@ D.38263, s32MaxRefFrameNum, extra_ref_tmp
	cmp	r2, #16	@ D.38263,
	addgt	r7, r7, #16	@ D.38266, extra_ref_tmp,
	rsbgt	r7, r2, r7	@ extra_ref_tmp, D.38263, D.38266
.L257:
	add	r3, r7, ip	@ TempPmv.1505, extra_ref_tmp, TempPmv
	ldr	r1, [r4, #76]	@, extra_disp
	cmp	r3, #0	@ TempPmv.1505,
	str	r1, [fp, #-688]	@, %sfp
	ble	.L273	@,
	cmp	r3, #17	@ TempPmv.1505,
	movge	r3, #17	@ TempPmv.1505,
	str	r3, [fp, #-692]	@ TempPmv.1505, %sfp
.L259:
	cmp	r5, #23	@ eCapLevel,
	bhi	.L260	@,
	ldr	ip, [fp, #-688]	@, %sfp
	add	r3, r7, ip	@ D.38269, extra_ref_tmp,
	add	r2, r3, r8	@ TempMinFrame.1502, D.38269, TempMinFrame
	add	r1, r3, r9	@ TempMiddleFrame.1503, D.38269, TempMiddleFrame
	cmp	r2, #0	@ TempMinFrame.1502,
	cmpgt	r1, #0	@, TempMiddleFrame.1503,
	ble	.L261	@,
	ldr	r0, [fp, #-696]	@, %sfp
	add	lr, r3, r0	@ TempFluentFrame.1504, D.38269,
	cmp	lr, #0	@ TempFluentFrame.1504,
	strgt	lr, [fp, #-700]	@ TempFluentFrame.1504, %sfp
	strgt	r1, [fp, #-688]	@ TempMiddleFrame.1503, %sfp
	movgt	r8, r2	@ nMinFrame, TempMinFrame.1502
	ble	.L261	@,
.L263:
	movw	r7, #:lower16:g_vdm_hal_fun_ptr	@ tmp215,
	movt	r7, #:upper16:g_vdm_hal_fun_ptr	@ tmp215,
	ldr	ip, [r7, #36]	@ D.38287, g_vdm_hal_fun_ptr.pfun_VDMHAL_ArrangeMem
	cmp	ip, #0	@ D.38287,
	beq	.L266	@,
.L274:
	rsb	r5, r5, sl	@ tmp219, eCapLevel, tmp313
	ldr	sl, [fp, #-692]	@, %sfp
	str	r8, [sp, #4]	@ nMinFrame,
	add	r8, r5, #1	@ tmp227, tmp219,
	mov	r9, #0	@ tmp229,
	mov	r0, #1	@,
	str	sl, [sp, #0]	@,
	mvn	r1, #-2147483648	@,
	ldr	r3, [r6, r8, asl #2]	@ tmp228, CapItem
	mvn	sl, #0	@ tmp230,
	ldr	r2, [r6, r5, asl #2]	@ tmp222, CapItem
	movw	r4, #:lower16:CapItem	@ tmp216,
	str	r9, [sp, #8]	@ tmp229,
	sub	r9, fp, #672	@ tmp232,,
	str	sl, [sp, #12]	@ tmp230,
	movt	r4, #:upper16:CapItem	@ tmp216,
	str	r9, [sp, #16]	@ tmp232,
	add	r6, r6, r5, asl #2	@, tmp221, tmp312, tmp219,
	blx	ip	@ D.38287
	subs	r3, r0, #0	@ ret,
	bne	.L266	@,
	ldr	r2, [fp, #-668]	@ MemArrange.TotalMemUsed, MemArrange.TotalMemUsed
	ldr	lr, [fp, #-680]	@, %sfp
	add	r1, r2, #47104	@ tmp234, MemArrange.TotalMemUsed,
	add	ip, r1, #16	@ tmp234, tmp234,
	str	ip, [lr, #0]	@ tmp234,
	ldr	r1, [fp, #-684]	@, %sfp
	ldr	r0, [r6, #24]	@ tmp244, CapItem
	add	r2, r0, #32768	@ tmp245, tmp244,
	str	r2, [r1, #0]	@ tmp245,
	ldr	ip, [r7, #36]	@ temp.1507, g_vdm_hal_fun_ptr.pfun_VDMHAL_ArrangeMem
	cmp	ip, #0	@ temp.1507,
	beq	.L268	@,
	ldr	lr, [r4, r8, asl #2]	@ tmp260, CapItem
	mov	r0, #1	@,
	ldr	r2, [fp, #-688]	@, %sfp
	mvn	r1, #-2147483648	@,
	str	r3, [sp, #8]	@ ret,
	ldr	r3, [fp, #-692]	@, %sfp
	str	r2, [sp, #4]	@,
	ldr	r2, [r4, r5, asl #2]	@, CapItem
	str	r3, [sp, #0]	@,
	mov	r3, lr	@, tmp260
	str	sl, [sp, #12]	@ tmp230,
	str	r9, [sp, #16]	@ tmp232,
	blx	ip	@ temp.1507
	subs	lr, r0, #0	@ ret.1510,
	bne	.L268	@,
	ldr	ip, [fp, #-668]	@ MemArrange.TotalMemUsed, MemArrange.TotalMemUsed
	ldr	r2, [fp, #-680]	@, %sfp
	add	r0, ip, #47104	@ tmp266, MemArrange.TotalMemUsed,
	add	r3, r0, #16	@ tmp266, tmp266,
	str	r3, [r2, #4]	@ tmp266,
	ldr	r0, [fp, #-684]	@, %sfp
	ldr	r1, [r6, #24]	@ tmp276, CapItem
	add	ip, r1, #32768	@ tmp277, tmp276,
	str	ip, [r0, #4]	@ tmp277,
	ldr	ip, [r7, #36]	@ temp.1514, g_vdm_hal_fun_ptr.pfun_VDMHAL_ArrangeMem
	cmp	ip, #0	@ temp.1514,
	beq	.L270	@,
	ldr	r3, [r4, r8, asl #2]	@ tmp292, CapItem
	mov	r0, #1	@,
	ldr	r2, [r4, r5, asl #2]	@ tmp286, CapItem
	mvn	r1, #-2147483648	@,
	ldr	r4, [fp, #-692]	@, %sfp
	str	lr, [sp, #8]	@ ret.1510,
	str	sl, [sp, #12]	@ tmp230,
	str	r4, [sp, #0]	@,
	ldr	r4, [fp, #-700]	@, %sfp
	str	r9, [sp, #16]	@ tmp232,
	str	r4, [sp, #4]	@,
	blx	ip	@ temp.1514
	cmp	r0, #0	@ ret.1517
	bne	.L270	@,
	ldr	r1, [fp, #-668]	@ MemArrange.TotalMemUsed, MemArrange.TotalMemUsed
	ldr	ip, [fp, #-680]	@, %sfp
	add	lr, r1, #47104	@ tmp298, MemArrange.TotalMemUsed,
	add	r2, lr, #16	@ tmp298, tmp298,
	str	r2, [ip, #8]	@ tmp298,
	ldr	lr, [fp, #-684]	@, %sfp
	ldr	r3, [r6, #24]	@ tmp308, CapItem
	add	r1, r3, #32768	@ tmp309, tmp308,
	str	r1, [lr, #8]	@ tmp309,
	b	.L265	@
.L260:
	cmp	r5, #26	@ eCapLevel,
	bls	.L264	@,
.L272:
	mvn	r0, #0	@ D.38305,
.L265:
	sub	sp, fp, #40
	ldmfd	sp, {r4, r5, r6, r7, r8, r9, sl, fp, sp, pc}
.L261:
	ldr	ip, [r4, #76]	@ extra_disp.1506, extra_disp
	mov	r3, r7	@, extra_ref_tmp
	ldr	lr, [fp, #-696]	@, %sfp
	mov	r0, #32	@,
	str	r7, [sp, #8]	@ extra_ref_tmp,
	movw	r1, #:lower16:.LC12	@,
	str	r7, [sp, #20]	@ extra_ref_tmp,
	movw	r7, #:lower16:g_vdm_hal_fun_ptr	@ tmp215,
	movt	r7, #:upper16:g_vdm_hal_fun_ptr	@ tmp215,
	movt	r1, #:upper16:.LC12	@,
	mov	r2, r8	@, TempMinFrame
	str	ip, [sp, #24]	@ extra_disp.1506,
	str	ip, [sp, #0]	@ extra_disp.1506,
	mov	r4, lr	@,
	str	ip, [sp, #12]	@ extra_disp.1506,
	str	lr, [fp, #-700]	@, %sfp
	str	r9, [fp, #-688]	@ TempMiddleFrame, %sfp
	str	r9, [sp, #4]	@ TempMiddleFrame,
	str	lr, [sp, #16]	@ tmp4,
	bl	dprint_vfmw	@
	ldr	ip, [r7, #36]	@ D.38287, g_vdm_hal_fun_ptr.pfun_VDMHAL_ArrangeMem
	cmp	ip, #0	@ D.38287,
	bne	.L274	@,
.L266:
	mov	r0, #0	@,
	movw	r1, #:lower16:.LC13	@,
	movw	r2, #5499	@,
	movt	r1, #:upper16:.LC13	@,
	bl	dprint_vfmw	@
	mvn	r0, #0	@ D.38305,
	b	.L265	@
.L264:
	ldr	r7, [fp, #-696]	@, %sfp
	str	r9, [fp, #-688]	@ TempMiddleFrame, %sfp
	str	r7, [fp, #-700]	@, %sfp
	b	.L263	@
.L273:
	mov	r2, ip	@, TempPmv
	movw	r1, #:lower16:.LC11	@,
	mov	r3, r7	@, extra_ref_tmp
	movt	r1, #:upper16:.LC11	@,
	mov	r0, #32	@,
	cmp	ip, #17	@ TempPmv,
	movge	ip, #17	@ TempPmv,
	str	ip, [fp, #-692]	@ TempPmv, %sfp
	bl	dprint_vfmw	@
	b	.L259	@
.L268:
	mov	r0, #0	@,
	movw	r1, #:lower16:.LC13	@,
	movw	r2, #5518	@,
	movt	r1, #:upper16:.LC13	@,
	bl	dprint_vfmw	@
	mvn	r0, #0	@ D.38305,
	b	.L265	@
.L270:
	movw	r1, #:lower16:.LC13	@,
	movw	r2, #5537	@,
	movt	r1, #:upper16:.LC13	@,
	mov	r0, #0	@,
	bl	dprint_vfmw	@
	b	.L272	@
	.fnend
	.size	VCTRL_GetChanMemSize, .-VCTRL_GetChanMemSize
	.align	2
	.global	VCTRL_GetChanMemSizeWithTreeFs
	.type	VCTRL_GetChanMemSizeWithTreeFs, %function
VCTRL_GetChanMemSizeWithTreeFs:
	.fnstart
.LFB1425:
	@ args = 0, pretend = 0, frame = 640
	@ frame_needed = 1, uses_anonymous_args = 0
	.movsp ip
	mov	ip, sp	@,
	stmfd	sp!, {r4, r5, r6, r7, r8, r9, sl, fp, ip, lr, pc}	@,
	.pad #4
	.save {r4, r5, r6, r7, r8, r9, sl, fp, ip, lr}
	.setfp fp, ip, #-4
	sub	fp, ip, #4	@,,
	.pad #668
	sub	sp, sp, #668	@,,
	push	{lr}
	bl	__gnu_mcount_nc
	mov	r5, r2	@ pDetailMemSize, pDetailMemSize
	ldr	r2, [r1, #12]	@, <variable>.s32MaxHeight
	cmp	r3, #2	@ flag,
	ldr	r9, [r1, #8]	@ <variable>.s32MaxWidth, <variable>.s32MaxWidth
	mov	r4, r1	@ pChanOption, pChanOption
	str	r2, [fp, #-680]	@, %sfp
	beq	.L276	@,
	movw	r1, #:lower16:.LANCHOR0	@ tmp157,
	movt	r1, #:upper16:.LANCHOR0	@ tmp157,
	ldr	r2, [r4, #28]	@ D.37992, <variable>.s32MaxRefFrameNum
	ldr	r6, [r1, #76]	@ extra_disp.598, extra_disp
	ldr	ip, [r4, #56]	@ D.37994, <variable>.s32DisplayFrameNum
	ldr	r1, [r1, #72]	@ extra_ref.597, extra_ref
	add	r7, r6, ip	@ TempDispNum, extra_disp.598, D.37994
	add	r8, r1, r2	@ TempRefNum, extra_ref.597, D.37992
	orrs	sl, r8, r7	@, TempRefNum, TempDispNum
	bmi	.L294	@,
	add	sl, r8, r7	@ tmp169, TempRefNum, TempDispNum
	add	sl, sl, #2	@ tmp170, tmp169,
	cmp	sl, #10	@ tmp170,
	ble	.L294	@,
	rsbs	r3, r3, #1	@ tmp178, flag
	movcc	r3, #0	@ tmp178
	cmp	r0, #25	@ eCapLevel,
	str	r8, [r4, #28]	@ TempRefNum, <variable>.s32MaxRefFrameNum
	moveq	r3, #0	@, tmp178,
	cmp	r3, #0	@ tmp178,
	str	r7, [r4, #56]	@ TempDispNum, <variable>.s32DisplayFrameNum
	bne	.L296	@,
.L276:
	ldr	r3, [r4, #0]	@ D.38013, <variable>.Purpose
	cmp	r3, #2	@ D.38013,
	bhi	.L297	@,
	bne	.L281	@,
	ldr	r3, [r4, #60]	@ D.38021, <variable>.s32SlotWidth
	cmp	r3, #0	@ D.38021,
	beq	.L282	@,
	ldr	r2, [r4, #64]	@ D.38023, <variable>.s32SlotHeight
	cmp	r2, #0	@ D.38023,
	beq	.L282	@,
	mul	r2, r2, r3	@ tmp182, D.38023, D.38021
	ldr	r1, [r4, #56]	@ <variable>.s32DisplayFrameNum, <variable>.s32DisplayFrameNum
	movw	ip, #:lower16:11473056	@ tmp188,
	movt	ip, #:upper16:11473056	@ tmp188,
	str	ip, [r5, #8]	@ tmp188, <variable>.ChanCtxDetailMem
	mov	r0, #0	@ tmp187,
	str	r0, [r5, #4]	@ tmp187, <variable>.ScdDetailMem
	mov	r3, r2, asl #1	@ tmp183, tmp182,
	mla	ip, r1, r3, r3	@ tmp186, <variable>.s32DisplayFrameNum, tmp183, tmp183
	str	ip, [r5, #0]	@ tmp186, <variable>.VdhDetailMem
.L278:
	sub	sp, fp, #40
	ldmfd	sp, {r4, r5, r6, r7, r8, r9, sl, fp, sp, pc}
.L281:
	cmp	r3, #1	@ D.38013,
	mvnne	r0, #0	@ D.38002,
	bne	.L278	@
.L284:
	ldr	r3, [r4, #28]	@ temp.1548, <variable>.s32MaxRefFrameNum
	cmp	r3, #0	@ temp.1548,
	blt	.L285	@,
	cmp	r9, #31	@ <variable>.s32MaxWidth,
	ble	.L285	@,
	ldr	r0, [fp, #-680]	@, %sfp
	cmp	r0, #31	@,
	ble	.L285	@,
	ldr	lr, [r4, #52]	@ <variable>.s32SCDBufSize, <variable>.s32SCDBufSize
	cmp	lr, #262144	@ <variable>.s32SCDBufSize,
	blt	.L285	@,
	ldr	r1, [r4, #40]	@ <variable>.s32SupportH264, <variable>.s32SupportH264
	cmp	r1, #1	@ <variable>.s32SupportH264,
	beq	.L298	@,
.L286:
	ldr	sl, [r4, #36]	@ <variable>.s32SupportBFrame, <variable>.s32SupportBFrame
	movw	r6, #:lower16:g_vdm_hal_fun_ptr	@ tmp199,
	movt	r6, #:upper16:g_vdm_hal_fun_ptr	@ tmp199,
	ldr	r2, [r4, #56]	@ temp.1549, <variable>.s32DisplayFrameNum
	cmp	sl, #0	@ <variable>.s32SupportBFrame,
	ldr	ip, [r6, #36]	@ D.38054, g_vdm_hal_fun_ptr.pfun_VDMHAL_ArrangeMem
	moveq	sl, #1	@ PmvNum,
	movne	sl, #17	@ PmvNum,
	cmp	ip, #0	@ D.38054,
	beq	.L289	@,
	add	r3, r3, r2	@ tmp201, temp.1548, temp.1549
	mov	r8, #0	@ tmp200,
	add	r7, r3, #2	@ tmp202, tmp201,
	stmib	sp, {r7, r8}	@ phole stm
	mov	r2, r9	@, <variable>.s32MaxWidth
	str	r8, [sp, #0]	@ tmp200,
	mvn	r7, #0	@ tmp204,
	ldr	r3, [fp, #-680]	@, %sfp
	sub	r8, fp, #672	@ tmp206,,
	str	r7, [sp, #12]	@ tmp204,
	mov	r0, #1024	@,
	str	r8, [sp, #16]	@ tmp206,
	mvn	r1, #-2147483648	@,
	blx	ip	@ D.38054
	subs	lr, r0, #0	@ ret,
	bne	.L289	@,
	ldr	r1, [fp, #-668]	@ MemArrange.TotalMemUsed, MemArrange.TotalMemUsed
	str	r1, [r5, #0]	@ MemArrange.TotalMemUsed, <variable>.VdhDetailMem
	ldr	ip, [r6, #36]	@ temp.1550, g_vdm_hal_fun_ptr.pfun_VDMHAL_ArrangeMem
	cmp	ip, #0	@ temp.1550,
	beq	.L291	@,
	str	sl, [sp, #0]	@ PmvNum,
	mov	r0, #1024	@,
	str	lr, [sp, #8]	@ ret,
	mvn	r1, #-2147483648	@,
	str	r7, [sp, #12]	@ tmp204,
	mov	r2, #720	@,
	str	r8, [sp, #16]	@ tmp206,
	mov	r3, #576	@,
	str	lr, [sp, #4]	@ ret,
	blx	ip	@ temp.1550
	cmp	r0, #0	@ ret.1551
	bne	.L291	@,
	ldr	lr, [fp, #-668]	@ MemArrange.TotalMemUsed, MemArrange.TotalMemUsed
	ldr	r2, [r5, #0]	@ <variable>.VdhDetailMem, <variable>.VdhDetailMem
	add	r1, r2, lr	@ tmp216, <variable>.VdhDetailMem, MemArrange.TotalMemUsed
	add	r3, r1, #47104	@ tmp219, tmp216,
	add	ip, r3, #16	@ tmp219, tmp219,
	str	ip, [r5, #0]	@ tmp219, <variable>.VdhDetailMem
	ldr	r2, [r4, #52]	@ <variable>.s32SCDBufSize, <variable>.s32SCDBufSize
	add	lr, r2, #32768	@ tmp222, <variable>.s32SCDBufSize,
	str	lr, [r5, #4]	@ tmp222, <variable>.ScdDetailMem
	ldr	r3, [r4, #40]	@ <variable>.s32SupportH264, <variable>.s32SupportH264
	cmp	r3, #0	@ <variable>.s32SupportH264,
	bne	.L292	@,
	movw	ip, #:lower16:11473056	@ tmp224,
	mov	r0, r3	@ D.38002, <variable>.s32SupportH264
	movt	ip, #:upper16:11473056	@ tmp224,
	str	ip, [r5, #8]	@ tmp224, <variable>.ChanCtxDetailMem
	b	.L278	@
.L282:
	mov	r0, #32	@,
	movw	r1, #:lower16:.LC17	@,
	movt	r1, #:upper16:.LC17	@,
	bl	dprint_vfmw	@
	mvn	r0, #0	@ D.38002,
	b	.L278	@
.L294:
	mov	r3, r1	@, extra_ref.597
	mov	r0, #32	@,
	movw	r1, #:lower16:.LC14	@,
	movt	r1, #:upper16:.LC14	@,
	str	ip, [sp, #0]	@ D.37994,
	str	r6, [sp, #4]	@ extra_disp.598,
	bl	dprint_vfmw	@
	mvn	r0, #0	@ D.38002,
	b	.L278	@
.L296:
	mov	r0, #32	@,
	movw	r1, #:lower16:.LC15	@,
	movt	r1, #:upper16:.LC15	@,
	bl	dprint_vfmw	@
	mvn	r0, #0	@ D.38002,
	b	.L278	@
.L297:
	mov	r0, #32	@,
	movw	r1, #:lower16:.LC16	@,
	movt	r1, #:upper16:.LC16	@,
	bl	dprint_vfmw	@
	mvn	r0, #0	@ D.38002,
	b	.L278	@
.L292:
	ldr	r1, [r4, #20]	@ <variable>.s32MaxSpsNum, <variable>.s32MaxSpsNum
	movw	r3, #:lower16:11473056	@ tmp232,
	ldr	lr, [r4, #16]	@ <variable>.s32MaxSliceNum, <variable>.s32MaxSliceNum
	movt	r3, #:upper16:11473056	@ tmp232,
	ldr	r2, [r4, #24]	@ <variable>.s32MaxPpsNum, <variable>.s32MaxPpsNum
	movw	r4, #3992	@ tmp230,
	mul	ip, r4, r1	@ tmp228, tmp230, <variable>.s32MaxSpsNum
	movw	r4, #4060	@ tmp227,
	mla	r1, r4, lr, ip	@ tmp231, tmp227, <variable>.s32MaxSliceNum, tmp228
	add	lr, r1, r3	@ tmp232, tmp231, tmp232
	mov	r1, #2240	@ tmp236,
	mla	r3, r1, r2, lr	@ tmp237, tmp236, <variable>.s32MaxPpsNum, tmp232
	str	r3, [r5, #8]	@ tmp237, <variable>.ChanCtxDetailMem
	b	.L278	@
.L298:
	ldr	r2, [r4, #16]	@ <variable>.s32MaxSliceNum, <variable>.s32MaxSliceNum
	cmp	r2, #0	@ <variable>.s32MaxSliceNum,
	ble	.L285	@,
	ldr	ip, [r4, #20]	@ <variable>.s32MaxSpsNum, <variable>.s32MaxSpsNum
	cmp	ip, #0	@ <variable>.s32MaxSpsNum,
	ble	.L285	@,
	ldr	r0, [r4, #24]	@ <variable>.s32MaxPpsNum, <variable>.s32MaxPpsNum
	cmp	r0, #0	@ <variable>.s32MaxPpsNum,
	bgt	.L286	@,
.L285:
	mov	r0, #32	@,
	movw	r1, #:lower16:.LC18	@,
	movt	r1, #:upper16:.LC18	@,
	bl	dprint_vfmw	@
	mvn	r0, #0	@ D.38002,
	b	.L278	@
.L291:
	mov	r0, #0	@,
	movw	r1, #:lower16:.LC19	@,
	movw	r2, #5081	@,
	movt	r1, #:upper16:.LC19	@,
	bl	dprint_vfmw	@
	mvn	r0, #0	@ D.38002,
	b	.L278	@
.L289:
	mov	r0, #0	@,
	movw	r1, #:lower16:.LC19	@,
	movw	r2, #5048	@,
	movt	r1, #:upper16:.LC19	@,
	bl	dprint_vfmw	@
	mvn	r0, #0	@ D.38002,
	b	.L278	@
	.fnend
	.size	VCTRL_GetChanMemSizeWithTreeFs, .-VCTRL_GetChanMemSizeWithTreeFs
	.align	2
	.global	VCTRL_GetChanMemSizeWithOption
	.type	VCTRL_GetChanMemSizeWithOption, %function
VCTRL_GetChanMemSizeWithOption:
	.fnstart
.LFB1426:
	@ args = 0, pretend = 0, frame = 632
	@ frame_needed = 1, uses_anonymous_args = 0
	.movsp ip
	mov	ip, sp	@,
	stmfd	sp!, {r4, r5, r6, r7, r8, sl, fp, ip, lr, pc}	@,
	.pad #4
	.save {r4, r5, r6, r7, r8, sl, fp, ip, lr}
	.setfp fp, ip, #-4
	sub	fp, ip, #4	@,,
	.pad #656
	sub	sp, sp, #656	@,,
	push	{lr}
	bl	__gnu_mcount_nc
	ldr	ip, [r1, #32]	@ <variable>.s32TreeFsEnable, <variable>.s32TreeFsEnable
	mov	r4, r1	@ pChanOption, pChanOption
	mov	r8, r0	@ eCapLevel, eCapLevel
	cmp	ip, #1	@ <variable>.s32TreeFsEnable,
	mov	r5, r2	@ pDetailMemSize, pDetailMemSize
	mov	r7, r3	@ flag, flag
	beq	.L320	@,
	cmp	r3, #2	@ flag,
	beq	.L303	@,
	movw	r3, #:lower16:.LANCHOR0	@ tmp159,
	movt	r3, #:upper16:.LANCHOR0	@ tmp159,
	ldr	ip, [r1, #56]	@ D.38115, <variable>.s32DisplayFrameNum
	ldr	sl, [r3, #76]	@ extra_disp.602, extra_disp
	ldr	r2, [r1, #28]	@ D.38113, <variable>.s32MaxRefFrameNum
	ldr	r3, [r3, #72]	@ extra_ref.601, extra_ref
	add	r6, sl, ip	@ TempDispNum, extra_disp.602, D.38115
	add	r1, r3, r2	@ TempRefNum, extra_ref.601, D.38113
	orrs	r0, r6, r1	@, TempDispNum, TempRefNum
	bmi	.L321	@,
	cmp	r1, #16	@ TempRefNum,
	strle	r1, [r4, #28]	@ TempRefNum, <variable>.s32MaxRefFrameNum
	strle	r6, [r4, #56]	@ TempDispNum, <variable>.s32DisplayFrameNum
	bgt	.L322	@,
.L306:
	rsbs	r7, r7, #1	@ tmp179, flag
	movcc	r7, #0	@ tmp179
	cmp	r8, #25	@ eCapLevel,
	moveq	r7, #0	@, tmp179,
	cmp	r7, #0	@ tmp179,
	bne	.L323	@,
.L303:
	ldr	r3, [r4, #0]	@ D.38133, <variable>.Purpose
	cmp	r3, #2	@ D.38133,
	bhi	.L324	@,
	bne	.L308	@,
	ldr	r3, [r4, #60]	@ D.38141, <variable>.s32SlotWidth
	cmp	r3, #0	@ D.38141,
	beq	.L309	@,
	ldr	r2, [r4, #64]	@ D.38143, <variable>.s32SlotHeight
	cmp	r2, #0	@ D.38143,
	beq	.L309	@,
	mul	r2, r2, r3	@ tmp183, D.38143, D.38141
	ldr	r1, [r4, #56]	@ <variable>.s32DisplayFrameNum, <variable>.s32DisplayFrameNum
	mov	r0, #0	@ tmp188,
	movw	r3, #:lower16:11473056	@ tmp189,
	str	r0, [r5, #4]	@ tmp188, <variable>.ScdDetailMem
	movt	r3, #:upper16:11473056	@ tmp189,
	str	r3, [r5, #8]	@ tmp189, <variable>.ChanCtxDetailMem
	mov	ip, r2, asl #1	@ tmp184, tmp183,
	mla	r2, r1, ip, ip	@ tmp187, <variable>.s32DisplayFrameNum, tmp184, tmp184
	str	r2, [r5, #0]	@ tmp187, <variable>.VdhDetailMem
.L302:
	sub	sp, fp, #36
	ldmfd	sp, {r4, r5, r6, r7, r8, sl, fp, sp, pc}
.L322:
	mov	r0, #32	@,
	movw	r1, #:lower16:.LC21	@,
	movt	r1, #:upper16:.LC21	@,
	bl	dprint_vfmw	@
	mov	r0, #16	@ tmp172,
	str	r6, [r4, #56]	@ TempDispNum, <variable>.s32DisplayFrameNum
	str	r0, [r4, #28]	@ tmp172, <variable>.s32MaxRefFrameNum
	b	.L306	@
.L320:
	bl	VCTRL_GetChanMemSizeWithTreeFs	@
	cmp	r0, #0	@ D.38106
	beq	.L302	@,
	mov	r0, #0	@,
	movw	r1, #:lower16:.LC20	@,
	movw	r2, #5152	@,
	movt	r1, #:upper16:.LC20	@,
	bl	dprint_vfmw	@
	mvn	r0, #0	@ D.38110,
	b	.L302	@
.L308:
	cmp	r3, #1	@ D.38133,
	mvnne	r0, #0	@ D.38110,
	bne	.L302	@
.L311:
	ldr	r0, [r4, #28]	@ temp.1583, <variable>.s32MaxRefFrameNum
	cmp	r0, #0	@ temp.1583,
	blt	.L312	@,
	ldr	r2, [r4, #8]	@ D.38154, <variable>.s32MaxWidth
	cmp	r2, #31	@ D.38154,
	ble	.L312	@,
	ldr	r3, [r4, #12]	@ D.38156, <variable>.s32MaxHeight
	cmp	r3, #31	@ D.38156,
	ble	.L312	@,
	ldr	ip, [r4, #52]	@ <variable>.s32SCDBufSize, <variable>.s32SCDBufSize
	cmp	ip, #262144	@ <variable>.s32SCDBufSize,
	blt	.L312	@,
	ldr	r1, [r4, #40]	@ <variable>.s32SupportH264, <variable>.s32SupportH264
	cmp	r1, #1	@ <variable>.s32SupportH264,
	beq	.L325	@,
.L313:
	ldr	r6, [r4, #36]	@ <variable>.s32SupportBFrame, <variable>.s32SupportBFrame
	cmp	r6, #0	@ <variable>.s32SupportBFrame,
	moveq	lr, #1	@ PmvNum,
	beq	.L315	@,
	add	lr, r0, #1	@ PmvNum.1584, temp.1583,
	cmp	lr, #17	@ PmvNum.1584,
	movge	lr, #17	@ PmvNum,
.L315:
	movw	r1, #:lower16:g_vdm_hal_fun_ptr	@ tmp198,
	movt	r1, #:upper16:g_vdm_hal_fun_ptr	@ tmp198,
	ldr	r6, [r4, #56]	@ temp.1585, <variable>.s32DisplayFrameNum
	ldr	ip, [r1, #36]	@ D.38174, g_vdm_hal_fun_ptr.pfun_VDMHAL_ArrangeMem
	cmp	ip, #0	@ D.38174,
	beq	.L316	@,
	add	r0, r0, r6	@ tmp199, temp.1583, temp.1585
	str	lr, [sp, #0]	@ PmvNum,
	mov	r1, #0	@ tmp201,
	add	lr, r0, #2	@ tmp200, tmp199,
	str	r1, [sp, #8]	@ tmp201,
	mvn	r0, #0	@ tmp202,
	str	lr, [sp, #4]	@ tmp200,
	mvn	r1, #-2147483648	@,
	str	r0, [sp, #12]	@ tmp202,
	sub	lr, fp, #664	@ tmp204,,
	mov	r0, #1	@,
	str	lr, [sp, #16]	@ tmp204,
	blx	ip	@ D.38174
	cmp	r0, #0	@ ret
	bne	.L316	@,
	ldr	lr, [fp, #-660]	@ MemArrange.TotalMemUsed, MemArrange.TotalMemUsed
	add	r1, lr, #47104	@ tmp206, MemArrange.TotalMemUsed,
	add	ip, r1, #16	@ tmp206, tmp206,
	str	ip, [r5, #0]	@ tmp206, <variable>.VdhDetailMem
	ldr	r3, [r4, #52]	@ <variable>.s32SCDBufSize, <variable>.s32SCDBufSize
	add	r2, r3, #32768	@ tmp209, <variable>.s32SCDBufSize,
	str	r2, [r5, #4]	@ tmp209, <variable>.ScdDetailMem
	ldr	r3, [r4, #40]	@ <variable>.s32SupportH264, <variable>.s32SupportH264
	cmp	r3, #0	@ <variable>.s32SupportH264,
	bne	.L317	@,
	movw	r2, #:lower16:11473056	@ tmp211,
	mov	r0, r3	@ D.38110, <variable>.s32SupportH264
	movt	r2, #:upper16:11473056	@ tmp211,
	str	r2, [r5, #8]	@ tmp211, <variable>.ChanCtxDetailMem
	b	.L302	@
.L309:
	mov	r0, #32	@,
	movw	r1, #:lower16:.LC17	@,
	movt	r1, #:upper16:.LC17	@,
	bl	dprint_vfmw	@
	mvn	r0, #0	@ D.38110,
	b	.L302	@
.L323:
	mov	r0, #32	@,
	movw	r1, #:lower16:.LC15	@,
	movt	r1, #:upper16:.LC15	@,
	bl	dprint_vfmw	@
	mvn	r0, #0	@ D.38110,
	b	.L302	@
.L324:
	mov	r0, #32	@,
	movw	r1, #:lower16:.LC16	@,
	movt	r1, #:upper16:.LC16	@,
	bl	dprint_vfmw	@
	mvn	r0, #0	@ D.38110,
	b	.L302	@
.L317:
	ldr	r3, [r4, #20]	@ <variable>.s32MaxSpsNum, <variable>.s32MaxSpsNum
	movw	r2, #:lower16:11473056	@ tmp219,
	ldr	r1, [r4, #16]	@ <variable>.s32MaxSliceNum, <variable>.s32MaxSliceNum
	movt	r2, #:upper16:11473056	@ tmp219,
	ldr	lr, [r4, #24]	@ <variable>.s32MaxPpsNum, <variable>.s32MaxPpsNum
	movw	r4, #3992	@ tmp217,
	mul	ip, r4, r3	@ tmp215, tmp217, <variable>.s32MaxSpsNum
	movw	r4, #4060	@ tmp214,
	mla	r3, r4, r1, ip	@ tmp218, tmp214, <variable>.s32MaxSliceNum, tmp215
	mov	r1, #2240	@ tmp223,
	add	ip, r3, r2	@ tmp219, tmp218, tmp219
	mla	r3, r1, lr, ip	@ tmp224, tmp223, <variable>.s32MaxPpsNum, tmp219
	str	r3, [r5, #8]	@ tmp224, <variable>.ChanCtxDetailMem
	b	.L302	@
.L321:
	mov	r0, #32	@,
	movw	r1, #:lower16:.LC14	@,
	movt	r1, #:upper16:.LC14	@,
	str	ip, [sp, #0]	@ D.38115,
	str	sl, [sp, #4]	@ extra_disp.602,
	bl	dprint_vfmw	@
	mvn	r0, #0	@ D.38110,
	b	.L302	@
.L325:
	ldr	ip, [r4, #16]	@ <variable>.s32MaxSliceNum, <variable>.s32MaxSliceNum
	cmp	ip, #0	@ <variable>.s32MaxSliceNum,
	ble	.L312	@,
	ldr	r1, [r4, #20]	@ <variable>.s32MaxSpsNum, <variable>.s32MaxSpsNum
	cmp	r1, #0	@ <variable>.s32MaxSpsNum,
	ble	.L312	@,
	ldr	ip, [r4, #24]	@ <variable>.s32MaxPpsNum, <variable>.s32MaxPpsNum
	cmp	ip, #0	@ <variable>.s32MaxPpsNum,
	bgt	.L313	@,
.L312:
	mov	r0, #32	@,
	movw	r1, #:lower16:.LC18	@,
	movt	r1, #:upper16:.LC18	@,
	bl	dprint_vfmw	@
	mvn	r0, #0	@ D.38110,
	b	.L302	@
.L316:
	mov	r0, #0	@,
	movw	r1, #:lower16:.LC22	@,
	movw	r2, #5271	@,
	movt	r1, #:upper16:.LC22	@,
	bl	dprint_vfmw	@
	mvn	r0, #0	@ D.38110,
	b	.L302	@
	.fnend
	.size	VCTRL_GetChanMemSizeWithOption, .-VCTRL_GetChanMemSizeWithOption
	.align	2
	.global	VCTRL_ConfigFFFBSpeed
	.type	VCTRL_ConfigFFFBSpeed, %function
VCTRL_ConfigFFFBSpeed:
	.fnstart
.LFB1414:
	@ args = 0, pretend = 0, frame = 0
	@ frame_needed = 1, uses_anonymous_args = 0
	.movsp ip
	mov	ip, sp	@,
	stmfd	sp!, {fp, ip, lr, pc}	@,
	.pad #4
	.save {fp, ip, lr}
	.setfp fp, ip, #-4
	sub	fp, ip, #4	@,,
	push	{lr}
	bl	__gnu_mcount_nc
	cmp	r0, #15	@ ChanID,
	bhi	.L332	@,
	movw	ip, #:lower16:.LANCHOR0	@ tmp140,
	movt	ip, #:upper16:.LANCHOR0	@ tmp140,
	ldr	r2, [ip, r0, asl #2]	@ D.37657, s_pstVfmwChan
	ldr	r3, [r2, #12]	@ <variable>.s32IsOpen, <variable>.s32IsOpen
	cmp	r3, #1	@ <variable>.s32IsOpen,
	bne	.L333	@,
	cmp	r1, #0	@ pArgs,
	beq	.L334	@,
	ldr	r1, [r1, #0]	@ tmp147,* pArgs
	movw	r3, #:lower16:11201032	@ tmp146,
	movt	r3, #:upper16:11201032	@ tmp146,
	mov	r0, #0	@ D.37655,
	str	r1, [r2, r3]	@ tmp147, <variable>.stSynExtraData.s32FastForwardBackwardSpeed
	ldmfd	sp, {fp, sp, pc}	@
.L333:
	mov	r0, #0	@,
	movw	r1, #:lower16:.LC3	@,
	movw	r2, #4403	@,
	movt	r1, #:upper16:.LC3	@,
	movw	r3, #:lower16:.LC23	@,
	movt	r3, #:upper16:.LC23	@,
	bl	dprint_vfmw	@
	mvn	r0, #0	@ D.37655,
	ldmfd	sp, {fp, sp, pc}	@
.L332:
	mov	r0, #0	@,
	movw	r1, #:lower16:.LC3	@,
	movw	r2, #4402	@,
	movt	r1, #:upper16:.LC3	@,
	movw	r3, #:lower16:.LC2	@,
	movt	r3, #:upper16:.LC2	@,
	bl	dprint_vfmw	@
	mvn	r0, #0	@ D.37655,
	ldmfd	sp, {fp, sp, pc}	@
.L334:
	mov	r0, r1	@, pArgs
	movw	r2, #4404	@,
	movw	r1, #:lower16:.LC3	@,
	movw	r3, #:lower16:.LC24	@,
	movt	r1, #:upper16:.LC3	@,
	movt	r3, #:upper16:.LC24	@,
	bl	dprint_vfmw	@
	mvn	r0, #0	@ D.37655,
	ldmfd	sp, {fp, sp, pc}	@
	.fnend
	.size	VCTRL_ConfigFFFBSpeed, .-VCTRL_ConfigFFFBSpeed
	.align	2
	.global	VCTRL_GetChanMemInfo
	.type	VCTRL_GetChanMemInfo, %function
VCTRL_GetChanMemInfo:
	.fnstart
.LFB1409:
	@ args = 0, pretend = 0, frame = 0
	@ frame_needed = 1, uses_anonymous_args = 0
	.movsp ip
	mov	ip, sp	@,
	stmfd	sp!, {fp, ip, lr, pc}	@,
	.pad #4
	.save {fp, ip, lr}
	.setfp fp, ip, #-4
	sub	fp, ip, #4	@,,
	push	{lr}
	bl	__gnu_mcount_nc
	cmp	r0, #15	@ ChanId,
	bhi	.L341	@,
	movw	r3, #:lower16:.LANCHOR0	@ tmp141,
	movt	r3, #:upper16:.LANCHOR0	@ tmp141,
	ldr	r0, [r3, r0, asl #2]	@ D.37446, s_pstVfmwChan
	cmp	r0, #0	@ D.37446,
	beq	.L342	@,
	cmp	r1, #0	@ pstMemRec,
	bne	.L343	@,
.L339:
	mvn	r0, #0	@ D.37444,
	ldmfd	sp, {fp, sp, pc}	@
.L342:
	movw	r1, #:lower16:.LC3	@,
	movw	r2, #4067	@,
	movt	r1, #:upper16:.LC3	@,
	movw	r3, #:lower16:.LC6	@,
	movt	r3, #:upper16:.LC6	@,
	bl	dprint_vfmw	@
	mvn	r0, #0	@ D.37444,
	ldmfd	sp, {fp, sp, pc}	@
.L343:
	ldr	r2, [r0, #160]	@ <variable>.s32OneChanMem, <variable>.s32OneChanMem
	cmp	r2, #1	@ <variable>.s32OneChanMem,
	bne	.L339	@,
	add	r2, r0, #164
	ldmia	r2, {r2, r3, ip}	@ phole ldm
	cmp	r3, #0	@ D.37458,
	stmib	r1, {r3, ip}	@ phole stm
	movne	r0, #0	@ D.37444,
	str	r2, [r1, #0]	@ <variable>.stChanMem.PhyAddr, <variable>.PhyAddr
	ldmnefd	sp, {fp, sp, pc}	@
	b	.L339	@
.L341:
	mov	r0, #0	@,
	movw	r1, #:lower16:.LC3	@,
	movw	r2, #4066	@,
	movt	r1, #:upper16:.LC3	@,
	movw	r3, #:lower16:.LC25	@,
	movt	r3, #:upper16:.LC25	@,
	bl	dprint_vfmw	@
	mvn	r0, #0	@ D.37444,
	ldmfd	sp, {fp, sp, pc}	@
	.fnend
	.size	VCTRL_GetChanMemInfo, .-VCTRL_GetChanMemInfo
	.align	2
	.global	VCTRL_GetVidStd
	.type	VCTRL_GetVidStd, %function
VCTRL_GetVidStd:
	.fnstart
.LFB1406:
	@ args = 0, pretend = 0, frame = 0
	@ frame_needed = 1, uses_anonymous_args = 0
	.movsp ip
	mov	ip, sp	@,
	stmfd	sp!, {fp, ip, lr, pc}	@,
	.pad #4
	.save {fp, ip, lr}
	.setfp fp, ip, #-4
	sub	fp, ip, #4	@,,
	push	{lr}
	bl	__gnu_mcount_nc
	cmp	r0, #15	@ ChanId,
	bhi	.L345	@,
	movw	r3, #:lower16:.LANCHOR0	@ tmp137,
	movt	r3, #:upper16:.LANCHOR0	@ tmp137,
	ldr	r3, [r3, r0, asl #2]	@ D.37345, s_pstVfmwChan
	cmp	r3, #0	@ D.37345,
	beq	.L345	@,
	ldr	r2, [r3, #12]	@ <variable>.s32IsOpen, <variable>.s32IsOpen
	cmp	r2, #1	@ <variable>.s32IsOpen,
	beq	.L348	@,
	mov	r3, r0	@, ChanId
	movw	r1, #:lower16:.LC27	@,
	mov	r0, #0	@,
	movt	r1, #:upper16:.LC27	@,
	movw	r2, #3893	@,
	bl	dprint_vfmw	@
	mov	r0, #19	@ D.37347,
	ldmfd	sp, {fp, sp, pc}	@
.L345:
	mov	r0, #0	@,
	movw	r1, #:lower16:.LC26	@,
	movw	r2, #3886	@,
	movt	r1, #:upper16:.LC26	@,
	bl	dprint_vfmw	@
	mov	r0, #19	@ D.37347,
	ldmfd	sp, {fp, sp, pc}	@
.L348:
	ldr	r0, [r3, #936]	@ D.37347, <variable>.eVidStd
	ldmfd	sp, {fp, sp, pc}	@
	.fnend
	.size	VCTRL_GetVidStd, .-VCTRL_GetVidStd
	.align	2
	.global	VCTRL_CheckChanWH
	.type	VCTRL_CheckChanWH, %function
VCTRL_CheckChanWH:
	.fnstart
.LFB1397:
	@ args = 0, pretend = 0, frame = 0
	@ frame_needed = 1, uses_anonymous_args = 0
	.movsp ip
	mov	ip, sp	@,
	stmfd	sp!, {r4, fp, ip, lr, pc}	@,
	.pad #4
	.save {r4, fp, ip, lr}
	.setfp fp, ip, #-4
	sub	fp, ip, #4	@,,
	.pad #12
	sub	sp, sp, #12	@,,
	push	{lr}
	bl	__gnu_mcount_nc
	movw	ip, #:lower16:.LANCHOR0	@ tmp143,
	movt	ip, #:upper16:.LANCHOR0	@ tmp143,
	movw	r4, #:lower16:g_chipID	@ tmp146,
	movt	r4, #:upper16:g_chipID	@ tmp146,
	movw	r2, #:lower16:11201076	@ tmp144,
	ldr	r0, [ip, r0, asl #2]	@ D.36738, s_pstVfmwChan
	movt	r2, #:upper16:11201076	@ tmp144,
	ldr	ip, [r4, #0]	@ g_chipID.484, g_chipID
	movw	r3, #:lower16:11201080	@ tmp145,
	movt	r3, #:upper16:11201080	@ tmp145,
	ldr	r4, [r0, r2]	@ ChanMaxWidth, <variable>.stSynExtraData.stChanOption.s32MaxWidth
	ldr	r3, [r0, r3]	@ ChanMaxHeight, <variable>.stSynExtraData.stChanOption.s32MaxHeight
	cmp	ip, #10	@ g_chipID.484,
	ldrls	pc, [pc, ip, asl #2]	@ g_chipID.484
	b	.L351	@
.L354:
	.word	.L352
	.word	.L352
	.word	.L352
	.word	.L352
	.word	.L352
	.word	.L353
	.word	.L353
	.word	.L353
	.word	.L353
	.word	.L353
	.word	.L353
.L353:
	movw	r0, #:lower16:g_ChipMaxWidth	@ tmp153,
	movt	r0, #:upper16:g_ChipMaxWidth	@ tmp153,
	ldr	r2, [r0, #0]	@ g_ChipMaxWidth.1686, g_ChipMaxWidth
	cmp	r4, r2	@ ChanMaxWidth, g_ChipMaxWidth.1686
	ble	.L360	@,
	ldr	r3, [r1, #0]	@ D.36752, <variable>.eVidStd
	cmp	r3, #13	@ D.36752,
	cmpne	r3, #0	@, D.36752,
	beq	.L356	@,
.L364:
	cmp	r3, #15	@ D.36752,
	beq	.L356	@,
	cmp	r3, #18	@ D.36752,
	bne	.L361	@,
.L356:
	mov	r0, #0	@ ret,
	b	.L357	@
.L352:
	movw	r2, #:lower16:g_ChipMaxWidth	@ tmp147,
	movt	r2, #:upper16:g_ChipMaxWidth	@ tmp147,
	ldr	r0, [r2, #0]	@ g_ChipMaxWidth, g_ChipMaxWidth
	cmp	r4, r0	@ ChanMaxWidth, g_ChipMaxWidth
	ble	.L362	@,
	ldr	r3, [r1, #0]	@ <variable>.eVidStd, <variable>.eVidStd
	cmp	r3, #18	@ <variable>.eVidStd,
	beq	.L356	@,
.L363:
	mov	r2, ip	@, g_chipID.484
	mov	r0, #0	@,
	movw	r1, #:lower16:.LC28	@,
	movt	r1, #:upper16:.LC28	@,
	bl	dprint_vfmw	@
	mvn	r0, #0	@ ret,
	b	.L357	@
.L351:
	mov	r2, ip	@, g_chipID.484
	mov	r0, #0	@,
	movw	r1, #:lower16:.LC30	@,
	movt	r1, #:upper16:.LC30	@,
	bl	dprint_vfmw	@
	mvn	r0, #0	@ ret,
.L357:
	sub	sp, fp, #16
	ldmfd	sp, {r4, fp, sp, pc}
.L362:
	movw	r2, #:lower16:g_ChipMaxHeight	@ tmp149,
	movt	r2, #:upper16:g_ChipMaxHeight	@ tmp149,
	ldr	r0, [r2, #0]	@ g_ChipMaxHeight, g_ChipMaxHeight
	cmp	r3, r0	@ ChanMaxHeight, g_ChipMaxHeight
	ble	.L356	@,
	ldr	r3, [r1, #0]	@ <variable>.eVidStd, <variable>.eVidStd
	cmp	r3, #18	@ <variable>.eVidStd,
	beq	.L356	@,
	b	.L363	@
.L360:
	movw	r0, #:lower16:g_ChipMaxHeight	@ tmp154,
	movt	r0, #:upper16:g_ChipMaxHeight	@ tmp154,
	ldr	r0, [r0, #0]	@ g_ChipMaxHeight, g_ChipMaxHeight
	cmp	r3, r0	@ ChanMaxHeight, g_ChipMaxHeight
	ble	.L356	@,
	ldr	r3, [r1, #0]	@ D.36752, <variable>.eVidStd
	cmp	r3, #13	@ D.36752,
	cmpne	r3, #0	@, D.36752,
	bne	.L364	@,
	b	.L356	@
.L361:
	movw	r1, #:lower16:g_ChipMaxHeight	@ tmp164,
	movt	r1, #:upper16:g_ChipMaxHeight	@ tmp164,
	mov	r0, #0	@,
	ldr	r3, [r1, #0]	@ g_ChipMaxHeight, g_ChipMaxHeight
	movw	r1, #:lower16:.LC29	@,
	movt	r1, #:upper16:.LC29	@,
	str	ip, [sp, #0]	@ g_chipID.484,
	bl	dprint_vfmw	@
	mvn	r0, #0	@ ret,
	b	.L357	@
	.fnend
	.size	VCTRL_CheckChanWH, .-VCTRL_CheckChanWH
	.align	2
	.global	RefreshDecCore
	.type	RefreshDecCore, %function
RefreshDecCore:
	.fnstart
.LFB1395:
	@ args = 0, pretend = 0, frame = 8
	@ frame_needed = 1, uses_anonymous_args = 0
	.movsp ip
	mov	ip, sp	@,
	stmfd	sp!, {r4, r5, r6, r7, fp, ip, lr, pc}	@,
	.pad #4
	.save {r4, r5, r6, r7, fp, ip, lr}
	.setfp fp, ip, #-4
	sub	fp, ip, #4	@,,
	.pad #8
	sub	sp, sp, #8	@,,
	push	{lr}
	bl	__gnu_mcount_nc
	movw	r4, #:lower16:.LANCHOR0	@ tmp190,
	movt	r4, #:upper16:.LANCHOR0	@ tmp190,
	movw	r6, #:lower16:11201200	@ tmp146,
	movt	r6, #:upper16:11201200	@ tmp146,
	mov	r5, r0	@ ChanID, ChanID
	ldr	r2, [r4, r0, asl #2]	@ D.36612, s_pstVfmwChan
	ldr	ip, [r2, #936]	@ <variable>.eVidStd, <variable>.eVidStd
	ldr	r0, [r2, r6]	@ eOldDecCore, <variable>.eDecCore
	sub	r3, ip, #4	@ tmp148, <variable>.eVidStd,
	cmp	r3, #10	@ tmp148,
	ldrls	pc, [pc, r3, asl #2]	@ tmp148
	b	.L366	@
.L372:
	.word	.L367
	.word	.L366
	.word	.L366
	.word	.L366
	.word	.L366
	.word	.L366
	.word	.L368
	.word	.L369
	.word	.L370
	.word	.L366
	.word	.L371
.L366:
	movw	r3, #:lower16:11201200	@ tmp174,
	movt	r3, #:upper16:11201200	@ tmp174,
	mov	r6, #0	@ tmp175,
	str	r6, [r2, r3]	@ tmp175, <variable>.eDecCore
.L373:
	ldr	ip, [r4, r5, asl #2]	@ prephitmp.1705, s_pstVfmwChan
	movw	r6, #:lower16:11201200	@ tmp177,
	movt	r6, #:upper16:11201200	@ tmp177,
	movw	r7, #:lower16:.LANCHOR0	@ tmp176,
	movt	r7, #:upper16:.LANCHOR0	@ tmp176,
	ldr	r2, [ip, r6]	@ prephitmp.1707, <variable>.eDecCore
	cmp	r2, r0	@ prephitmp.1707, eOldDecCore
	beq	.L377	@,
	sub	r0, r0, #1	@ tmp178, eOldDecCore,
	cmp	r0, #4	@ tmp178,
	bhi	.L378	@,
	ldr	r3, [r7, #84]	@ D.36632, g_SdecFunc.pfun_iMediaSoftDEC_Destroy
	cmp	r3, #0	@ D.36632,
	beq	.L378	@,
	add	r0, ip, #952	@, prephitmp.1705,
	str	r1, [fp, #-32]	@,
	blx	r3	@ D.36632
	ldr	ip, [r7, r5, asl #2]	@ prephitmp.1705, s_pstVfmwChan
	ldr	r1, [fp, #-32]	@,
	ldr	r2, [ip, r6]	@ prephitmp.1707, <variable>.eDecCore
.L378:
	sub	r2, r2, #1	@ tmp183, prephitmp.1707,
	cmp	r2, #4	@ tmp183,
	bhi	.L377	@,
	ldr	r3, [r4, #80]	@ D.36643, g_SdecFunc.pfun_iMediaSoftDEC_Create
	cmp	r3, #0	@ D.36643,
	beq	.L379	@,
	ldr	r2, [ip, #936]	@, <variable>.eVidStd
	add	r0, ip, #952	@, prephitmp.1705,
	blx	r3	@ D.36643
	cmp	r0, #0	@,
	bne	.L379	@,
.L377:
	mov	r0, #0	@ D.36647,
.L380:
	sub	sp, fp, #28
	ldmfd	sp, {r4, r5, r6, r7, fp, sp, pc}
.L371:
	movw	r6, #:lower16:11201200	@ tmp151,
	movt	r6, #:upper16:11201200	@ tmp151,
	mov	ip, #2	@ tmp152,
	str	ip, [r2, r6]	@ tmp152, <variable>.eDecCore
	b	.L373	@
.L367:
	movw	r7, #:lower16:11201200	@ tmp149,
	movt	r7, #:upper16:11201200	@ tmp149,
	mov	r3, #1	@ tmp150,
	str	r3, [r2, r7]	@ tmp150, <variable>.eDecCore
	b	.L373	@
.L368:
	ldr	r7, [r4, #64]	@ g_VdmCharacter, g_VdmCharacter
	tst	r7, #1	@ g_VdmCharacter,
	bne	.L366	@,
	movw	r3, #:lower16:11201200	@ tmp156,
	movt	r3, #:upper16:11201200	@ tmp156,
	mov	r6, #3	@ tmp157,
	str	r6, [r2, r3]	@ tmp157, <variable>.eDecCore
	b	.L373	@
.L369:
	ldr	ip, [r4, #64]	@ g_VdmCharacter, g_VdmCharacter
	tst	ip, #1	@ g_VdmCharacter,
	bne	.L366	@,
	movw	r7, #:lower16:11201200	@ tmp163,
	movt	r7, #:upper16:11201200	@ tmp163,
	mov	r3, #4	@ tmp164,
	str	r3, [r2, r7]	@ tmp164, <variable>.eDecCore
	b	.L373	@
.L370:
	ldr	r6, [r4, #64]	@ g_VdmCharacter, g_VdmCharacter
	tst	r6, #1	@ g_VdmCharacter,
	bne	.L366	@,
	movw	r7, #:lower16:11201200	@ tmp170,
	movt	r7, #:upper16:11201200	@ tmp170,
	mov	ip, #5	@ tmp171,
	str	ip, [r2, r7]	@ tmp171, <variable>.eDecCore
	b	.L373	@
.L379:
	mov	r0, #0	@,
	movw	r1, #:lower16:.LC31	@,
	movt	r1, #:upper16:.LC31	@,
	bl	dprint_vfmw	@
	mvn	r0, #0	@ D.36647,
	b	.L380	@
	.fnend
	.size	RefreshDecCore, .-RefreshDecCore
	.align	2
	.global	VCTRL_SetMoreGapEnable
	.type	VCTRL_SetMoreGapEnable, %function
VCTRL_SetMoreGapEnable:
	.fnstart
.LFB1371:
	@ args = 0, pretend = 0, frame = 0
	@ frame_needed = 1, uses_anonymous_args = 0
	.movsp ip
	mov	ip, sp	@,
	stmfd	sp!, {fp, ip, lr, pc}	@,
	.pad #4
	.save {fp, ip, lr}
	.setfp fp, ip, #-4
	sub	fp, ip, #4	@,,
	push	{lr}
	bl	__gnu_mcount_nc
	cmp	r0, #15	@ ChanID,
	bhi	.L389	@,
	movw	r3, #:lower16:.LANCHOR0	@ tmp140,
	movt	r3, #:upper16:.LANCHOR0	@ tmp140,
	ldr	r3, [r3, r0, asl #2]	@ D.35743, s_pstVfmwChan
	cmp	r3, #0	@ D.35743,
	beq	.L390	@,
	ldr	r2, [r3, #12]	@ <variable>.s32IsOpen, <variable>.s32IsOpen
	cmp	r2, #1	@ <variable>.s32IsOpen,
	bne	.L391	@,
	cmp	r1, #1	@ MoreGapEnable,
	movw	ip, #:lower16:11201028	@ tmp146,
	movt	ip, #:upper16:11201028	@ tmp146,
	movhi	r1, #0	@ tmp148,
	movls	r0, #0	@ D.35741,
	strls	r1, [r3, ip]	@ MoreGapEnable, <variable>.stSynExtraData.s32MoreGapEnable
	mvnhi	r0, #0	@ D.35741,
	strhi	r1, [r3, ip]	@ tmp148, <variable>.stSynExtraData.s32MoreGapEnable
	ldmfd	sp, {fp, sp, pc}	@
.L391:
	mov	r0, #0	@,
	movw	r1, #:lower16:.LC3	@,
	mov	r2, #836	@,
	movt	r1, #:upper16:.LC3	@,
	movw	r3, #:lower16:.LC32	@,
	movt	r3, #:upper16:.LC32	@,
	bl	dprint_vfmw	@
	mvn	r0, #0	@ D.35741,
	ldmfd	sp, {fp, sp, pc}	@
.L389:
	mov	r0, #0	@,
	movw	r1, #:lower16:.LC3	@,
	movw	r2, #834	@,
	movt	r1, #:upper16:.LC3	@,
	movw	r3, #:lower16:.LC2	@,
	movt	r3, #:upper16:.LC2	@,
	bl	dprint_vfmw	@
	mvn	r0, #0	@ D.35741,
	ldmfd	sp, {fp, sp, pc}	@
.L390:
	mov	r0, r3	@, D.35743
	movw	r1, #:lower16:.LC3	@,
	movw	r2, #835	@,
	movt	r1, #:upper16:.LC3	@,
	movw	r3, #:lower16:.LC6	@,
	movt	r3, #:upper16:.LC6	@,
	bl	dprint_vfmw	@
	mvn	r0, #0	@ D.35741,
	ldmfd	sp, {fp, sp, pc}	@
	.fnend
	.size	VCTRL_SetMoreGapEnable, .-VCTRL_SetMoreGapEnable
	.align	2
	.global	VCTRL_RegisterSoftDecoder
	.type	VCTRL_RegisterSoftDecoder, %function
VCTRL_RegisterSoftDecoder:
	.fnstart
.LFB1359:
	@ args = 0, pretend = 0, frame = 0
	@ frame_needed = 1, uses_anonymous_args = 0
	.movsp ip
	mov	ip, sp	@,
	stmfd	sp!, {r4, r5, fp, ip, lr, pc}	@,
	.pad #4
	.save {r4, r5, fp, ip, lr}
	.setfp fp, ip, #-4
	sub	fp, ip, #4	@,,
	push	{lr}
	bl	__gnu_mcount_nc
	ldr	r3, [r0, #0]	@ <variable>.pfun_iMediaSoftDEC_Create, <variable>.pfun_iMediaSoftDEC_Create
	cmp	r3, #0	@ <variable>.pfun_iMediaSoftDEC_Create,
	beq	.L402	@,
	ldr	r3, [r0, #4]	@ <variable>.pfun_iMediaSoftDEC_Destroy, <variable>.pfun_iMediaSoftDEC_Destroy
	cmp	r3, #0	@ <variable>.pfun_iMediaSoftDEC_Destroy,
	beq	.L403	@,
	ldr	r3, [r0, #8]	@ <variable>.pfun_iMediaSoftDEC_Init, <variable>.pfun_iMediaSoftDEC_Init
	cmp	r3, #0	@ <variable>.pfun_iMediaSoftDEC_Init,
	beq	.L404	@,
	ldr	r3, [r0, #12]	@ <variable>.pfun_iMediaSoftDEC_Decode, <variable>.pfun_iMediaSoftDEC_Decode
	cmp	r3, #0	@ <variable>.pfun_iMediaSoftDEC_Decode,
	beq	.L405	@,
	ldr	r3, [r0, #16]	@ <variable>.pfun_iMediaSoftDEC_RecycleImage, <variable>.pfun_iMediaSoftDEC_RecycleImage
	cmp	r3, #0	@ <variable>.pfun_iMediaSoftDEC_RecycleImage,
	beq	.L406	@,
	ldr	r3, [r0, #20]	@ <variable>.pfun_iMediaSoftDEC_GetRemainImg, <variable>.pfun_iMediaSoftDEC_GetRemainImg
	cmp	r3, #0	@ <variable>.pfun_iMediaSoftDEC_GetRemainImg,
	beq	.L407	@,
	ldr	r3, [r0, #24]	@ <variable>.pfun_iMediaSoftDEC_GetImageBuffer, <variable>.pfun_iMediaSoftDEC_GetImageBuffer
	cmp	r3, #0	@ <variable>.pfun_iMediaSoftDEC_GetImageBuffer,
	beq	.L408	@,
	mov	r4, r0	@ pstSdecFunc, pstSdecFunc
	ldr	ip, .L409	@ tmp158,
	ldmia	r4!, {r0, r1, r2, r3}	@ pstSdecFunc,,,,
	mov	r5, #0	@ D.35514,
	stmia	ip!, {r0, r1, r2, r3}	@ tmp158,,,,
	ldmia	r4, {r0, r1, r2}	@ pstSdecFunc,,,
	stmia	ip, {r0, r1, r2}	@ tmp161,,,
.L394:
	mov	r0, r5	@, D.35514
	ldmfd	sp, {r4, r5, fp, sp, pc}	@
.L402:
	mov	r0, r3	@, <variable>.pfun_iMediaSoftDEC_Create
	movw	r1, #:lower16:.LC33	@,
	movw	r2, #:lower16:.LC34	@,
	movt	r1, #:upper16:.LC33	@,
	movt	r2, #:upper16:.LC34	@,
	mvn	r5, #0	@ D.35514,
	bl	dprint_vfmw	@
	b	.L394	@
.L407:
	mov	r0, r3	@, <variable>.pfun_iMediaSoftDEC_GetRemainImg
	movw	r1, #:lower16:.LC33	@,
	movw	r2, #:lower16:.LC39	@,
	movt	r1, #:upper16:.LC33	@,
	movt	r2, #:upper16:.LC39	@,
	mvn	r5, #0	@ D.35514,
	bl	dprint_vfmw	@
	b	.L394	@
.L406:
	mov	r0, r3	@, <variable>.pfun_iMediaSoftDEC_RecycleImage
	movw	r1, #:lower16:.LC33	@,
	movw	r2, #:lower16:.LC38	@,
	movt	r1, #:upper16:.LC33	@,
	movt	r2, #:upper16:.LC38	@,
	mvn	r5, #0	@ D.35514,
	bl	dprint_vfmw	@
	b	.L394	@
.L405:
	mov	r0, r3	@, <variable>.pfun_iMediaSoftDEC_Decode
	movw	r1, #:lower16:.LC33	@,
	movw	r2, #:lower16:.LC37	@,
	movt	r1, #:upper16:.LC33	@,
	movt	r2, #:upper16:.LC37	@,
	mvn	r5, #0	@ D.35514,
	bl	dprint_vfmw	@
	b	.L394	@
.L404:
	mov	r0, r3	@, <variable>.pfun_iMediaSoftDEC_Init
	movw	r1, #:lower16:.LC33	@,
	movw	r2, #:lower16:.LC36	@,
	movt	r1, #:upper16:.LC33	@,
	movt	r2, #:upper16:.LC36	@,
	mvn	r5, #0	@ D.35514,
	bl	dprint_vfmw	@
	b	.L394	@
.L403:
	mov	r0, r3	@, <variable>.pfun_iMediaSoftDEC_Destroy
	movw	r1, #:lower16:.LC33	@,
	movw	r2, #:lower16:.LC35	@,
	movt	r1, #:upper16:.LC33	@,
	movt	r2, #:upper16:.LC35	@,
	mvn	r5, #0	@ D.35514,
	bl	dprint_vfmw	@
	b	.L394	@
.L408:
	mov	r0, r3	@, <variable>.pfun_iMediaSoftDEC_GetImageBuffer
	movw	r1, #:lower16:.LC33	@,
	movw	r2, #:lower16:.LC40	@,
	movt	r1, #:upper16:.LC33	@,
	movt	r2, #:upper16:.LC40	@,
	mvn	r5, #0	@ D.35514,
	bl	dprint_vfmw	@
	b	.L394	@
.L410:
	.align	2
.L409:
	.word	.LANCHOR0+80
	.fnend
	.size	VCTRL_RegisterSoftDecoder, .-VCTRL_RegisterSoftDecoder
	.align	2
	.global	vfmw_read_proc_chn
	.type	vfmw_read_proc_chn, %function
vfmw_read_proc_chn:
	.fnstart
.LFB1463:
	@ args = 8, pretend = 0, frame = 0
	@ frame_needed = 1, uses_anonymous_args = 0
	.movsp ip
	mov	ip, sp	@,
	stmfd	sp!, {r4, r5, r6, r7, r8, sl, fp, ip, lr, pc}	@,
	.pad #4
	.save {r4, r5, r6, r7, r8, sl, fp, ip, lr}
	.setfp fp, ip, #-4
	sub	fp, ip, #4	@,,
	.pad #8
	sub	sp, sp, #8	@,,
	push	{lr}
	bl	__gnu_mcount_nc
	movw	r2, #:lower16:.LC41	@,
	mov	sl, r1	@ start, start
	movt	r2, #:upper16:.LC41	@,
	mov	r1, r3	@, count
	mov	r4, r3	@ count, count
	mov	r5, r0	@ page, page
	bl	snprintf	@
	movw	r2, #:lower16:.LC42	@,
	movt	r2, #:upper16:.LC42	@,
	movw	r7, #:lower16:g_ChanCtx	@ tmp291,
	movt	r7, #:upper16:g_ChanCtx	@ tmp291,
	movw	r8, #:lower16:.LANCHOR0	@ tmp680,
	movt	r8, #:upper16:.LANCHOR0	@ tmp680,
	rsb	r1, r0, r4	@, D.40008, count
	mov	r6, r0	@ D.40008,
	add	r0, r5, r0	@, page, D.40008
	bl	snprintf	@
	ldr	r3, [r7, #128]	@ g_ChanCtx.ChanDecByVdhPlusOne, g_ChanCtx.ChanDecByVdhPlusOne
	movw	r2, #:lower16:.LC43	@,
	movt	r2, #:upper16:.LC43	@,
	sub	r3, r3, #1	@, g_ChanCtx.ChanDecByVdhPlusOne,
	add	r6, r0, r6	@ len,, D.40008
	rsb	r1, r6, r4	@, len, count
	add	r0, r5, r6	@, page, len
	bl	snprintf	@
	ldr	ip, [r7, #132]	@ g_ChanCtx.ChanDecByVdhPlusOne, g_ChanCtx.ChanDecByVdhPlusOne
	movw	r2, #:lower16:.LC43	@,
	movt	r2, #:upper16:.LC43	@,
	sub	r3, ip, #1	@, g_ChanCtx.ChanDecByVdhPlusOne,
	add	r6, r6, r0	@ len.1871, len,
	rsb	r1, r6, r4	@, len.1871, count
	add	r0, r5, r6	@, page, len.1871
	bl	snprintf	@
	ldr	r1, [r7, #136]	@ g_ChanCtx.ChanDecByVdhPlusOne, g_ChanCtx.ChanDecByVdhPlusOne
	movw	r2, #:lower16:.LC43	@,
	movt	r2, #:upper16:.LC43	@,
	sub	r3, r1, #1	@, g_ChanCtx.ChanDecByVdhPlusOne,
	add	r6, r6, r0	@ len.1884, len.1871,
	rsb	r1, r6, r4	@, len.1884, count
	add	r0, r5, r6	@, page, len.1884
	bl	snprintf	@
	ldr	r3, [r7, #140]	@ g_ChanCtx.ChanDecByVdhPlusOne, g_ChanCtx.ChanDecByVdhPlusOne
	movw	r2, #:lower16:.LC43	@,
	movt	r2, #:upper16:.LC43	@,
	sub	r3, r3, #1	@, g_ChanCtx.ChanDecByVdhPlusOne,
	add	r6, r6, r0	@ len.1892, len.1884,
	rsb	r1, r6, r4	@, len.1892, count
	add	r0, r5, r6	@, page, len.1892
	bl	snprintf	@
	ldr	ip, [r7, #144]	@ g_ChanCtx.ChanDecByVdhPlusOne, g_ChanCtx.ChanDecByVdhPlusOne
	movw	r2, #:lower16:.LC43	@,
	movt	r2, #:upper16:.LC43	@,
	sub	r3, ip, #1	@, g_ChanCtx.ChanDecByVdhPlusOne,
	add	r6, r6, r0	@ len.1900, len.1892,
	rsb	r1, r6, r4	@, len.1900, count
	add	r0, r5, r6	@, page, len.1900
	bl	snprintf	@
	ldr	r1, [r7, #148]	@ g_ChanCtx.ChanDecByVdhPlusOne, g_ChanCtx.ChanDecByVdhPlusOne
	movw	r2, #:lower16:.LC43	@,
	movt	r2, #:upper16:.LC43	@,
	sub	r3, r1, #1	@, g_ChanCtx.ChanDecByVdhPlusOne,
	add	r6, r6, r0	@ len.1908, len.1900,
	rsb	r1, r6, r4	@, len.1908, count
	add	r0, r5, r6	@, page, len.1908
	bl	snprintf	@
	ldr	r3, [r7, #152]	@ g_ChanCtx.ChanDecByVdhPlusOne, g_ChanCtx.ChanDecByVdhPlusOne
	movw	r2, #:lower16:.LC43	@,
	movt	r2, #:upper16:.LC43	@,
	sub	r3, r3, #1	@, g_ChanCtx.ChanDecByVdhPlusOne,
	add	r6, r6, r0	@ len.1916, len.1908,
	rsb	r1, r6, r4	@, len.1916, count
	add	r0, r5, r6	@, page, len.1916
	bl	snprintf	@
	ldr	ip, [r7, #156]	@ g_ChanCtx.ChanDecByVdhPlusOne, g_ChanCtx.ChanDecByVdhPlusOne
	movw	r2, #:lower16:.LC43	@,
	movt	r2, #:upper16:.LC43	@,
	sub	r3, ip, #1	@, g_ChanCtx.ChanDecByVdhPlusOne,
	add	r6, r6, r0	@ len.1924, len.1916,
	rsb	r1, r6, r4	@, len.1924, count
	add	r0, r5, r6	@, page, len.1924
	bl	snprintf	@
	ldr	r1, [r7, #160]	@ g_ChanCtx.ChanDecByVdhPlusOne, g_ChanCtx.ChanDecByVdhPlusOne
	movw	r2, #:lower16:.LC43	@,
	movt	r2, #:upper16:.LC43	@,
	sub	r3, r1, #1	@, g_ChanCtx.ChanDecByVdhPlusOne,
	add	r6, r6, r0	@ len.1932, len.1924,
	rsb	r1, r6, r4	@, len.1932, count
	add	r0, r5, r6	@, page, len.1932
	bl	snprintf	@
	ldr	r3, [r7, #164]	@ g_ChanCtx.ChanDecByVdhPlusOne, g_ChanCtx.ChanDecByVdhPlusOne
	movw	r2, #:lower16:.LC43	@,
	movt	r2, #:upper16:.LC43	@,
	sub	r3, r3, #1	@, g_ChanCtx.ChanDecByVdhPlusOne,
	add	r6, r6, r0	@ len.1940, len.1932,
	rsb	r1, r6, r4	@, len.1940, count
	add	r0, r5, r6	@, page, len.1940
	bl	snprintf	@
	ldr	ip, [r7, #168]	@ g_ChanCtx.ChanDecByVdhPlusOne, g_ChanCtx.ChanDecByVdhPlusOne
	movw	r2, #:lower16:.LC43	@,
	movt	r2, #:upper16:.LC43	@,
	sub	r3, ip, #1	@, g_ChanCtx.ChanDecByVdhPlusOne,
	add	r6, r6, r0	@ len.1948, len.1940,
	rsb	r1, r6, r4	@, len.1948, count
	add	r0, r5, r6	@, page, len.1948
	bl	snprintf	@
	ldr	r1, [r7, #172]	@ g_ChanCtx.ChanDecByVdhPlusOne, g_ChanCtx.ChanDecByVdhPlusOne
	movw	r2, #:lower16:.LC43	@,
	movt	r2, #:upper16:.LC43	@,
	sub	r3, r1, #1	@, g_ChanCtx.ChanDecByVdhPlusOne,
	add	r6, r6, r0	@ len.1956, len.1948,
	rsb	r1, r6, r4	@, len.1956, count
	add	r0, r5, r6	@, page, len.1956
	bl	snprintf	@
	ldr	r3, [r7, #176]	@ g_ChanCtx.ChanDecByVdhPlusOne, g_ChanCtx.ChanDecByVdhPlusOne
	movw	r2, #:lower16:.LC43	@,
	movt	r2, #:upper16:.LC43	@,
	sub	r3, r3, #1	@, g_ChanCtx.ChanDecByVdhPlusOne,
	add	r6, r6, r0	@ len.1964, len.1956,
	rsb	r1, r6, r4	@, len.1964, count
	add	r0, r5, r6	@, page, len.1964
	bl	snprintf	@
	ldr	ip, [r7, #180]	@ g_ChanCtx.ChanDecByVdhPlusOne, g_ChanCtx.ChanDecByVdhPlusOne
	movw	r2, #:lower16:.LC43	@,
	movt	r2, #:upper16:.LC43	@,
	sub	r3, ip, #1	@, g_ChanCtx.ChanDecByVdhPlusOne,
	add	r6, r6, r0	@ len.1972, len.1964,
	rsb	r1, r6, r4	@, len.1972, count
	add	r0, r5, r6	@, page, len.1972
	bl	snprintf	@
	ldr	r1, [r7, #184]	@ g_ChanCtx.ChanDecByVdhPlusOne, g_ChanCtx.ChanDecByVdhPlusOne
	movw	r2, #:lower16:.LC43	@,
	movt	r2, #:upper16:.LC43	@,
	sub	r3, r1, #1	@, g_ChanCtx.ChanDecByVdhPlusOne,
	add	r6, r6, r0	@ len.1980, len.1972,
	rsb	r1, r6, r4	@, len.1980, count
	add	r0, r5, r6	@, page, len.1980
	bl	snprintf	@
	ldr	r3, [r7, #188]	@ g_ChanCtx.ChanDecByVdhPlusOne, g_ChanCtx.ChanDecByVdhPlusOne
	movw	r2, #:lower16:.LC43	@,
	movt	r2, #:upper16:.LC43	@,
	sub	r3, r3, #1	@, g_ChanCtx.ChanDecByVdhPlusOne,
	add	r6, r6, r0	@ len.1988, len.1980,
	rsb	r1, r6, r4	@, len.1988, count
	add	r0, r5, r6	@, page, len.1988
	bl	snprintf	@
	movw	r2, #:lower16:.LC44	@,
	movt	r2, #:upper16:.LC44	@,
	add	r6, r0, r6	@ len.1821,, len.1988
	rsb	r1, r6, r4	@, len.1821, count
	add	r0, r5, r6	@, page, len.1821
	bl	snprintf	@
	movw	r2, #:lower16:.LC45	@,
	movt	r2, #:upper16:.LC45	@,
	add	r6, r6, r0	@ len.1826, len.1821,
	rsb	r1, r6, r4	@, len.1826, count
	add	r0, r5, r6	@, page, len.1826
	bl	snprintf	@
	ldr	r3, [r7, #64]	@, g_ChanCtx.ChanIdTabByPrior
	movw	r2, #:lower16:.LC43	@,
	movt	r2, #:upper16:.LC43	@,
	add	r6, r6, r0	@ len.1831, len.1826,
	rsb	r1, r6, r4	@, len.1831, count
	add	r0, r5, r6	@, page, len.1831
	bl	snprintf	@
	ldr	r3, [r7, #68]	@, g_ChanCtx.ChanIdTabByPrior
	movw	r2, #:lower16:.LC43	@,
	movt	r2, #:upper16:.LC43	@,
	add	r6, r6, r0	@ len.1995, len.1831,
	rsb	r1, r6, r4	@, len.1995, count
	add	r0, r5, r6	@, page, len.1995
	bl	snprintf	@
	ldr	r3, [r7, #72]	@, g_ChanCtx.ChanIdTabByPrior
	movw	r2, #:lower16:.LC43	@,
	movt	r2, #:upper16:.LC43	@,
	add	r6, r6, r0	@ len.2002, len.1995,
	rsb	r1, r6, r4	@, len.2002, count
	add	r0, r5, r6	@, page, len.2002
	bl	snprintf	@
	ldr	r3, [r7, #76]	@, g_ChanCtx.ChanIdTabByPrior
	movw	r2, #:lower16:.LC43	@,
	movt	r2, #:upper16:.LC43	@,
	add	r6, r6, r0	@ len.2009, len.2002,
	rsb	r1, r6, r4	@, len.2009, count
	add	r0, r5, r6	@, page, len.2009
	bl	snprintf	@
	ldr	r3, [r7, #80]	@, g_ChanCtx.ChanIdTabByPrior
	movw	r2, #:lower16:.LC43	@,
	movt	r2, #:upper16:.LC43	@,
	add	r6, r6, r0	@ len.2016, len.2009,
	rsb	r1, r6, r4	@, len.2016, count
	add	r0, r5, r6	@, page, len.2016
	bl	snprintf	@
	ldr	r3, [r7, #84]	@, g_ChanCtx.ChanIdTabByPrior
	movw	r2, #:lower16:.LC43	@,
	movt	r2, #:upper16:.LC43	@,
	add	r6, r6, r0	@ len.2023, len.2016,
	rsb	r1, r6, r4	@, len.2023, count
	add	r0, r5, r6	@, page, len.2023
	bl	snprintf	@
	ldr	r3, [r7, #88]	@, g_ChanCtx.ChanIdTabByPrior
	movw	r2, #:lower16:.LC43	@,
	movt	r2, #:upper16:.LC43	@,
	add	r6, r6, r0	@ len.2030, len.2023,
	rsb	r1, r6, r4	@, len.2030, count
	add	r0, r5, r6	@, page, len.2030
	bl	snprintf	@
	ldr	r3, [r7, #92]	@, g_ChanCtx.ChanIdTabByPrior
	movw	r2, #:lower16:.LC43	@,
	movt	r2, #:upper16:.LC43	@,
	add	r6, r6, r0	@ len.2037, len.2030,
	rsb	r1, r6, r4	@, len.2037, count
	add	r0, r5, r6	@, page, len.2037
	bl	snprintf	@
	ldr	r3, [r7, #96]	@, g_ChanCtx.ChanIdTabByPrior
	movw	r2, #:lower16:.LC43	@,
	movt	r2, #:upper16:.LC43	@,
	add	r6, r6, r0	@ len.2044, len.2037,
	rsb	r1, r6, r4	@, len.2044, count
	add	r0, r5, r6	@, page, len.2044
	bl	snprintf	@
	ldr	r3, [r7, #100]	@, g_ChanCtx.ChanIdTabByPrior
	movw	r2, #:lower16:.LC43	@,
	movt	r2, #:upper16:.LC43	@,
	add	r6, r6, r0	@ len.2051, len.2044,
	rsb	r1, r6, r4	@, len.2051, count
	add	r0, r5, r6	@, page, len.2051
	bl	snprintf	@
	ldr	r3, [r7, #104]	@, g_ChanCtx.ChanIdTabByPrior
	movw	r2, #:lower16:.LC43	@,
	movt	r2, #:upper16:.LC43	@,
	add	r6, r6, r0	@ len.2058, len.2051,
	rsb	r1, r6, r4	@, len.2058, count
	add	r0, r5, r6	@, page, len.2058
	bl	snprintf	@
	ldr	r3, [r7, #108]	@, g_ChanCtx.ChanIdTabByPrior
	movw	r2, #:lower16:.LC43	@,
	movt	r2, #:upper16:.LC43	@,
	add	r6, r6, r0	@ len.2065, len.2058,
	rsb	r1, r6, r4	@, len.2065, count
	add	r0, r5, r6	@, page, len.2065
	bl	snprintf	@
	ldr	r3, [r7, #112]	@, g_ChanCtx.ChanIdTabByPrior
	movw	r2, #:lower16:.LC43	@,
	movt	r2, #:upper16:.LC43	@,
	add	r6, r6, r0	@ len.2072, len.2065,
	rsb	r1, r6, r4	@, len.2072, count
	add	r0, r5, r6	@, page, len.2072
	bl	snprintf	@
	ldr	r3, [r7, #116]	@, g_ChanCtx.ChanIdTabByPrior
	movw	r2, #:lower16:.LC43	@,
	movt	r2, #:upper16:.LC43	@,
	add	r6, r6, r0	@ len.2079, len.2072,
	rsb	r1, r6, r4	@, len.2079, count
	add	r0, r5, r6	@, page, len.2079
	bl	snprintf	@
	ldr	r3, [r7, #120]	@, g_ChanCtx.ChanIdTabByPrior
	movw	r2, #:lower16:.LC43	@,
	movt	r2, #:upper16:.LC43	@,
	add	r6, r6, r0	@ len.2086, len.2079,
	rsb	r1, r6, r4	@, len.2086, count
	add	r0, r5, r6	@, page, len.2086
	bl	snprintf	@
	ldr	r3, [r7, #124]	@, g_ChanCtx.ChanIdTabByPrior
	movw	r2, #:lower16:.LC43	@,
	movt	r2, #:upper16:.LC43	@,
	add	r6, r6, r0	@ len.2093, len.2086,
	rsb	r1, r6, r4	@, len.2093, count
	add	r0, r5, r6	@, page, len.2093
	bl	snprintf	@
	movw	r2, #:lower16:.LC44	@,
	movt	r2, #:upper16:.LC44	@,
	add	r6, r0, r6	@ len.1836,, len.2093
	rsb	r1, r6, r4	@, len.1836, count
	add	r0, r5, r6	@, page, len.1836
	bl	snprintf	@
	movw	r2, #:lower16:.LC46	@,
	movt	r2, #:upper16:.LC46	@,
	add	r6, r6, r0	@ len.1841, len.1836,
	rsb	r1, r6, r4	@, len.1841, count
	add	r0, r5, r6	@, page, len.1841
	bl	snprintf	@
	ldr	r3, [r7, #0]	@, g_ChanCtx.PriorByChanId
	movw	r2, #:lower16:.LC43	@,
	movt	r2, #:upper16:.LC43	@,
	add	r6, r6, r0	@ len.1846, len.1841,
	rsb	r1, r6, r4	@, len.1846, count
	add	r0, r5, r6	@, page, len.1846
	bl	snprintf	@
	ldr	r3, [r7, #4]	@, g_ChanCtx.PriorByChanId
	movw	r2, #:lower16:.LC43	@,
	movt	r2, #:upper16:.LC43	@,
	add	r6, r6, r0	@ len.2100, len.1846,
	rsb	r1, r6, r4	@, len.2100, count
	add	r0, r5, r6	@, page, len.2100
	bl	snprintf	@
	ldr	r3, [r7, #8]	@, g_ChanCtx.PriorByChanId
	movw	r2, #:lower16:.LC43	@,
	movt	r2, #:upper16:.LC43	@,
	add	r6, r6, r0	@ len.2107, len.2100,
	rsb	r1, r6, r4	@, len.2107, count
	add	r0, r5, r6	@, page, len.2107
	bl	snprintf	@
	ldr	r3, [r7, #12]	@, g_ChanCtx.PriorByChanId
	movw	r2, #:lower16:.LC43	@,
	movt	r2, #:upper16:.LC43	@,
	add	r6, r6, r0	@ len.2114, len.2107,
	rsb	r1, r6, r4	@, len.2114, count
	add	r0, r5, r6	@, page, len.2114
	bl	snprintf	@
	ldr	r3, [r7, #16]	@, g_ChanCtx.PriorByChanId
	movw	r2, #:lower16:.LC43	@,
	movt	r2, #:upper16:.LC43	@,
	add	r6, r6, r0	@ len.2121, len.2114,
	rsb	r1, r6, r4	@, len.2121, count
	add	r0, r5, r6	@, page, len.2121
	bl	snprintf	@
	ldr	r3, [r7, #20]	@, g_ChanCtx.PriorByChanId
	movw	r2, #:lower16:.LC43	@,
	movt	r2, #:upper16:.LC43	@,
	add	r6, r6, r0	@ len.2128, len.2121,
	rsb	r1, r6, r4	@, len.2128, count
	add	r0, r5, r6	@, page, len.2128
	bl	snprintf	@
	ldr	r3, [r7, #24]	@, g_ChanCtx.PriorByChanId
	movw	r2, #:lower16:.LC43	@,
	movt	r2, #:upper16:.LC43	@,
	add	r6, r6, r0	@ len.2135, len.2128,
	rsb	r1, r6, r4	@, len.2135, count
	add	r0, r5, r6	@, page, len.2135
	bl	snprintf	@
	ldr	r3, [r7, #28]	@, g_ChanCtx.PriorByChanId
	movw	r2, #:lower16:.LC43	@,
	movt	r2, #:upper16:.LC43	@,
	add	r6, r6, r0	@ len.2142, len.2135,
	rsb	r1, r6, r4	@, len.2142, count
	add	r0, r5, r6	@, page, len.2142
	bl	snprintf	@
	ldr	r3, [r7, #32]	@, g_ChanCtx.PriorByChanId
	movw	r2, #:lower16:.LC43	@,
	movt	r2, #:upper16:.LC43	@,
	add	r6, r6, r0	@ len.2149, len.2142,
	rsb	r1, r6, r4	@, len.2149, count
	add	r0, r5, r6	@, page, len.2149
	bl	snprintf	@
	ldr	r3, [r7, #36]	@, g_ChanCtx.PriorByChanId
	movw	r2, #:lower16:.LC43	@,
	movt	r2, #:upper16:.LC43	@,
	add	r6, r6, r0	@ len.2156, len.2149,
	rsb	r1, r6, r4	@, len.2156, count
	add	r0, r5, r6	@, page, len.2156
	bl	snprintf	@
	ldr	r3, [r7, #40]	@, g_ChanCtx.PriorByChanId
	movw	r2, #:lower16:.LC43	@,
	movt	r2, #:upper16:.LC43	@,
	add	r6, r6, r0	@ len.2163, len.2156,
	rsb	r1, r6, r4	@, len.2163, count
	add	r0, r5, r6	@, page, len.2163
	bl	snprintf	@
	ldr	r3, [r7, #44]	@, g_ChanCtx.PriorByChanId
	movw	r2, #:lower16:.LC43	@,
	movt	r2, #:upper16:.LC43	@,
	add	r6, r6, r0	@ len.2170, len.2163,
	rsb	r1, r6, r4	@, len.2170, count
	add	r0, r5, r6	@, page, len.2170
	bl	snprintf	@
	ldr	r3, [r7, #48]	@, g_ChanCtx.PriorByChanId
	movw	r2, #:lower16:.LC43	@,
	movt	r2, #:upper16:.LC43	@,
	add	r6, r6, r0	@ len.2177, len.2170,
	rsb	r1, r6, r4	@, len.2177, count
	add	r0, r5, r6	@, page, len.2177
	bl	snprintf	@
	ldr	r3, [r7, #52]	@, g_ChanCtx.PriorByChanId
	movw	r2, #:lower16:.LC43	@,
	movt	r2, #:upper16:.LC43	@,
	add	r6, r6, r0	@ len.2184, len.2177,
	rsb	r1, r6, r4	@, len.2184, count
	add	r0, r5, r6	@, page, len.2184
	bl	snprintf	@
	ldr	r3, [r7, #56]	@, g_ChanCtx.PriorByChanId
	movw	r2, #:lower16:.LC43	@,
	movt	r2, #:upper16:.LC43	@,
	add	r6, r6, r0	@ len.2191, len.2184,
	rsb	r1, r6, r4	@, len.2191, count
	add	r0, r5, r6	@, page, len.2191
	bl	snprintf	@
	ldr	r3, [r7, #60]	@, g_ChanCtx.PriorByChanId
	movw	r2, #:lower16:.LC43	@,
	movt	r2, #:upper16:.LC43	@,
	add	r6, r6, r0	@ len.2198, len.2191,
	rsb	r1, r6, r4	@, len.2198, count
	add	r0, r5, r6	@, page, len.2198
	bl	snprintf	@
	movw	r2, #:lower16:.LC44	@,
	movt	r2, #:upper16:.LC44	@,
	add	r6, r0, r6	@ len.1851,, len.2198
	rsb	r1, r6, r4	@, len.1851, count
	add	r0, r5, r6	@, page, len.1851
	bl	snprintf	@
	movw	r2, #:lower16:.LC47	@,
	movt	r2, #:upper16:.LC47	@,
	add	r6, r6, r0	@ len.1856, len.1851,
	add	r0, r5, r6	@, page, len.1856
	rsb	r1, r6, r4	@, len.1856, count
	bl	snprintf	@
	ldr	ip, [r8, #0]	@ temp.2199, s_pstVfmwChan
	cmp	ip, #0	@ temp.2199,
	add	r6, r6, r0	@ len.1861, len.1856,
	beq	.L412	@,
	ldr	lr, [ip, #16]	@ <variable>.s32IsRun, <variable>.s32IsRun
	add	r0, r5, r6	@, page, len.1861
	ldr	r3, [ip, #12]	@ <variable>.s32IsOpen, <variable>.s32IsOpen
	rsb	r1, r6, r4	@, len.1861, count
	movw	r2, #:lower16:.LC48	@,
	movt	r2, #:upper16:.LC48	@,
	str	lr, [sp, #0]	@ <variable>.s32IsRun,
	ldr	lr, [ip, #20]	@ <variable>.s32Priority, <variable>.s32Priority
	str	lr, [sp, #4]	@ <variable>.s32Priority,
	bl	snprintf	@
	add	r6, r6, r0	@ len.1861, len.1861,
.L412:
	ldr	ip, [r8, #4]	@ temp.2208, s_pstVfmwChan
	cmp	ip, #0	@ temp.2208,
	beq	.L413	@,
	ldr	lr, [ip, #16]	@ <variable>.s32IsRun, <variable>.s32IsRun
	add	r0, r5, r6	@, page, len.1861
	ldr	r3, [ip, #12]	@ <variable>.s32IsOpen, <variable>.s32IsOpen
	rsb	r1, r6, r4	@, len.1861, count
	movw	r2, #:lower16:.LC48	@,
	movt	r2, #:upper16:.LC48	@,
	str	lr, [sp, #0]	@ <variable>.s32IsRun,
	ldr	ip, [ip, #20]	@ <variable>.s32Priority, <variable>.s32Priority
	str	ip, [sp, #4]	@ <variable>.s32Priority,
	bl	snprintf	@
	add	r6, r6, r0	@ len.1861, len.1861,
.L413:
	ldr	ip, [r8, #8]	@ temp.2217, s_pstVfmwChan
	cmp	ip, #0	@ temp.2217,
	beq	.L414	@,
	ldr	lr, [ip, #16]	@ <variable>.s32IsRun, <variable>.s32IsRun
	add	r0, r5, r6	@, page, len.1861
	ldr	r3, [ip, #12]	@ <variable>.s32IsOpen, <variable>.s32IsOpen
	rsb	r1, r6, r4	@, len.1861, count
	movw	r2, #:lower16:.LC48	@,
	movt	r2, #:upper16:.LC48	@,
	str	lr, [sp, #0]	@ <variable>.s32IsRun,
	ldr	ip, [ip, #20]	@ <variable>.s32Priority, <variable>.s32Priority
	str	ip, [sp, #4]	@ <variable>.s32Priority,
	bl	snprintf	@
	add	r6, r6, r0	@ len.1861, len.1861,
.L414:
	ldr	ip, [r8, #12]	@ temp.2226, s_pstVfmwChan
	cmp	ip, #0	@ temp.2226,
	beq	.L415	@,
	ldr	lr, [ip, #16]	@ <variable>.s32IsRun, <variable>.s32IsRun
	add	r0, r5, r6	@, page, len.1861
	ldr	r3, [ip, #12]	@ <variable>.s32IsOpen, <variable>.s32IsOpen
	rsb	r1, r6, r4	@, len.1861, count
	movw	r2, #:lower16:.LC48	@,
	movt	r2, #:upper16:.LC48	@,
	str	lr, [sp, #0]	@ <variable>.s32IsRun,
	ldr	ip, [ip, #20]	@ <variable>.s32Priority, <variable>.s32Priority
	str	ip, [sp, #4]	@ <variable>.s32Priority,
	bl	snprintf	@
	add	r6, r6, r0	@ len.1861, len.1861,
.L415:
	ldr	ip, [r8, #16]	@ temp.2235, s_pstVfmwChan
	cmp	ip, #0	@ temp.2235,
	beq	.L416	@,
	ldr	lr, [ip, #16]	@ <variable>.s32IsRun, <variable>.s32IsRun
	add	r0, r5, r6	@, page, len.1861
	ldr	r3, [ip, #12]	@ <variable>.s32IsOpen, <variable>.s32IsOpen
	rsb	r1, r6, r4	@, len.1861, count
	movw	r2, #:lower16:.LC48	@,
	movt	r2, #:upper16:.LC48	@,
	str	lr, [sp, #0]	@ <variable>.s32IsRun,
	ldr	ip, [ip, #20]	@ <variable>.s32Priority, <variable>.s32Priority
	str	ip, [sp, #4]	@ <variable>.s32Priority,
	bl	snprintf	@
	add	r6, r6, r0	@ len.1861, len.1861,
.L416:
	ldr	ip, [r8, #20]	@ temp.2244, s_pstVfmwChan
	cmp	ip, #0	@ temp.2244,
	beq	.L417	@,
	ldr	lr, [ip, #16]	@ <variable>.s32IsRun, <variable>.s32IsRun
	add	r0, r5, r6	@, page, len.1861
	ldr	r3, [ip, #12]	@ <variable>.s32IsOpen, <variable>.s32IsOpen
	rsb	r1, r6, r4	@, len.1861, count
	movw	r2, #:lower16:.LC48	@,
	movt	r2, #:upper16:.LC48	@,
	str	lr, [sp, #0]	@ <variable>.s32IsRun,
	ldr	ip, [ip, #20]	@ <variable>.s32Priority, <variable>.s32Priority
	str	ip, [sp, #4]	@ <variable>.s32Priority,
	bl	snprintf	@
	add	r6, r6, r0	@ len.1861, len.1861,
.L417:
	ldr	ip, [r8, #24]	@ temp.2253, s_pstVfmwChan
	cmp	ip, #0	@ temp.2253,
	beq	.L418	@,
	ldr	lr, [ip, #16]	@ <variable>.s32IsRun, <variable>.s32IsRun
	add	r0, r5, r6	@, page, len.1861
	ldr	r3, [ip, #12]	@ <variable>.s32IsOpen, <variable>.s32IsOpen
	rsb	r1, r6, r4	@, len.1861, count
	movw	r2, #:lower16:.LC48	@,
	movt	r2, #:upper16:.LC48	@,
	str	lr, [sp, #0]	@ <variable>.s32IsRun,
	ldr	ip, [ip, #20]	@ <variable>.s32Priority, <variable>.s32Priority
	str	ip, [sp, #4]	@ <variable>.s32Priority,
	bl	snprintf	@
	add	r6, r6, r0	@ len.1861, len.1861,
.L418:
	ldr	ip, [r8, #28]	@ temp.2262, s_pstVfmwChan
	cmp	ip, #0	@ temp.2262,
	beq	.L419	@,
	ldr	lr, [ip, #16]	@ <variable>.s32IsRun, <variable>.s32IsRun
	add	r0, r5, r6	@, page, len.1861
	ldr	r3, [ip, #12]	@ <variable>.s32IsOpen, <variable>.s32IsOpen
	rsb	r1, r6, r4	@, len.1861, count
	movw	r2, #:lower16:.LC48	@,
	movt	r2, #:upper16:.LC48	@,
	str	lr, [sp, #0]	@ <variable>.s32IsRun,
	ldr	ip, [ip, #20]	@ <variable>.s32Priority, <variable>.s32Priority
	str	ip, [sp, #4]	@ <variable>.s32Priority,
	bl	snprintf	@
	add	r6, r6, r0	@ len.1861, len.1861,
.L419:
	ldr	ip, [r8, #32]	@ temp.2271, s_pstVfmwChan
	cmp	ip, #0	@ temp.2271,
	beq	.L420	@,
	ldr	lr, [ip, #16]	@ <variable>.s32IsRun, <variable>.s32IsRun
	add	r0, r5, r6	@, page, len.1861
	ldr	r3, [ip, #12]	@ <variable>.s32IsOpen, <variable>.s32IsOpen
	rsb	r1, r6, r4	@, len.1861, count
	movw	r2, #:lower16:.LC48	@,
	movt	r2, #:upper16:.LC48	@,
	str	lr, [sp, #0]	@ <variable>.s32IsRun,
	ldr	ip, [ip, #20]	@ <variable>.s32Priority, <variable>.s32Priority
	str	ip, [sp, #4]	@ <variable>.s32Priority,
	bl	snprintf	@
	add	r6, r6, r0	@ len.1861, len.1861,
.L420:
	ldr	ip, [r8, #36]	@ temp.2280, s_pstVfmwChan
	cmp	ip, #0	@ temp.2280,
	beq	.L421	@,
	ldr	lr, [ip, #16]	@ <variable>.s32IsRun, <variable>.s32IsRun
	add	r0, r5, r6	@, page, len.1861
	ldr	r3, [ip, #12]	@ <variable>.s32IsOpen, <variable>.s32IsOpen
	rsb	r1, r6, r4	@, len.1861, count
	movw	r2, #:lower16:.LC48	@,
	movt	r2, #:upper16:.LC48	@,
	str	lr, [sp, #0]	@ <variable>.s32IsRun,
	ldr	ip, [ip, #20]	@ <variable>.s32Priority, <variable>.s32Priority
	str	ip, [sp, #4]	@ <variable>.s32Priority,
	bl	snprintf	@
	add	r6, r6, r0	@ len.1861, len.1861,
.L421:
	ldr	ip, [r8, #40]	@ temp.2289, s_pstVfmwChan
	cmp	ip, #0	@ temp.2289,
	beq	.L422	@,
	ldr	lr, [ip, #16]	@ <variable>.s32IsRun, <variable>.s32IsRun
	add	r0, r5, r6	@, page, len.1861
	ldr	r3, [ip, #12]	@ <variable>.s32IsOpen, <variable>.s32IsOpen
	rsb	r1, r6, r4	@, len.1861, count
	movw	r2, #:lower16:.LC48	@,
	movt	r2, #:upper16:.LC48	@,
	str	lr, [sp, #0]	@ <variable>.s32IsRun,
	ldr	ip, [ip, #20]	@ <variable>.s32Priority, <variable>.s32Priority
	str	ip, [sp, #4]	@ <variable>.s32Priority,
	bl	snprintf	@
	add	r6, r6, r0	@ len.1861, len.1861,
.L422:
	ldr	ip, [r8, #44]	@ temp.2298, s_pstVfmwChan
	cmp	ip, #0	@ temp.2298,
	beq	.L423	@,
	ldr	lr, [ip, #16]	@ <variable>.s32IsRun, <variable>.s32IsRun
	add	r0, r5, r6	@, page, len.1861
	ldr	r3, [ip, #12]	@ <variable>.s32IsOpen, <variable>.s32IsOpen
	rsb	r1, r6, r4	@, len.1861, count
	movw	r2, #:lower16:.LC48	@,
	movt	r2, #:upper16:.LC48	@,
	str	lr, [sp, #0]	@ <variable>.s32IsRun,
	ldr	ip, [ip, #20]	@ <variable>.s32Priority, <variable>.s32Priority
	str	ip, [sp, #4]	@ <variable>.s32Priority,
	bl	snprintf	@
	add	r6, r6, r0	@ len.1861, len.1861,
.L423:
	ldr	ip, [r8, #48]	@ temp.2307, s_pstVfmwChan
	cmp	ip, #0	@ temp.2307,
	beq	.L424	@,
	ldr	lr, [ip, #16]	@ <variable>.s32IsRun, <variable>.s32IsRun
	add	r0, r5, r6	@, page, len.1861
	ldr	r3, [ip, #12]	@ <variable>.s32IsOpen, <variable>.s32IsOpen
	rsb	r1, r6, r4	@, len.1861, count
	movw	r2, #:lower16:.LC48	@,
	movt	r2, #:upper16:.LC48	@,
	str	lr, [sp, #0]	@ <variable>.s32IsRun,
	ldr	ip, [ip, #20]	@ <variable>.s32Priority, <variable>.s32Priority
	str	ip, [sp, #4]	@ <variable>.s32Priority,
	bl	snprintf	@
	add	r6, r6, r0	@ len.1861, len.1861,
.L424:
	ldr	ip, [r8, #52]	@ temp.2316, s_pstVfmwChan
	cmp	ip, #0	@ temp.2316,
	beq	.L425	@,
	ldr	lr, [ip, #16]	@ <variable>.s32IsRun, <variable>.s32IsRun
	add	r0, r5, r6	@, page, len.1861
	ldr	r3, [ip, #12]	@ <variable>.s32IsOpen, <variable>.s32IsOpen
	rsb	r1, r6, r4	@, len.1861, count
	movw	r2, #:lower16:.LC48	@,
	movt	r2, #:upper16:.LC48	@,
	str	lr, [sp, #0]	@ <variable>.s32IsRun,
	ldr	ip, [ip, #20]	@ <variable>.s32Priority, <variable>.s32Priority
	str	ip, [sp, #4]	@ <variable>.s32Priority,
	bl	snprintf	@
	add	r6, r6, r0	@ len.1861, len.1861,
.L425:
	ldr	ip, [r8, #56]	@ temp.2325, s_pstVfmwChan
	cmp	ip, #0	@ temp.2325,
	beq	.L426	@,
	ldr	lr, [ip, #16]	@ <variable>.s32IsRun, <variable>.s32IsRun
	add	r0, r5, r6	@, page, len.1861
	ldr	r3, [ip, #12]	@ <variable>.s32IsOpen, <variable>.s32IsOpen
	rsb	r1, r6, r4	@, len.1861, count
	movw	r2, #:lower16:.LC48	@,
	movt	r2, #:upper16:.LC48	@,
	str	lr, [sp, #0]	@ <variable>.s32IsRun,
	ldr	ip, [ip, #20]	@ <variable>.s32Priority, <variable>.s32Priority
	str	ip, [sp, #4]	@ <variable>.s32Priority,
	bl	snprintf	@
	add	r6, r6, r0	@ len.1861, len.1861,
.L426:
	ldr	ip, [r8, #60]	@ D.40024, s_pstVfmwChan
	cmp	ip, #0	@ D.40024,
	beq	.L427	@,
	ldr	lr, [ip, #16]	@ <variable>.s32IsRun, <variable>.s32IsRun
	add	r0, r5, r6	@, page, len.1861
	ldr	r3, [ip, #12]	@ <variable>.s32IsOpen, <variable>.s32IsOpen
	rsb	r1, r6, r4	@, len.1861, count
	movw	r2, #:lower16:.LC48	@,
	movt	r2, #:upper16:.LC48	@,
	str	lr, [sp, #0]	@ <variable>.s32IsRun,
	ldr	ip, [ip, #20]	@ <variable>.s32Priority, <variable>.s32Priority
	str	ip, [sp, #4]	@ <variable>.s32Priority,
	bl	snprintf	@
	add	r6, r6, r0	@ len.1861, len.1861,
.L427:
	rsb	r1, r6, r4	@, len.1861, count
	add	r0, r5, r6	@, page, len.1861
	movw	r2, #:lower16:.LC44	@,
	movt	r2, #:upper16:.LC44	@,
	bl	snprintf	@
	mov	r3, #0	@ tmp677,
	str	r3, [sl, #0]	@ tmp677,* start
	mov	r2, #1	@ tmp678,
	ldr	r1, [fp, #4]	@ eof, eof
	str	r2, [r1, #0]	@ tmp678,* eof
	add	r0, r6, r0	@, len.1861,
	sub	sp, fp, #36
	ldmfd	sp, {r4, r5, r6, r7, r8, sl, fp, sp, pc}
	.fnend
	.size	vfmw_read_proc_chn, .-vfmw_read_proc_chn
	.align	2
	.global	vfmw_read_proc_prn
	.type	vfmw_read_proc_prn, %function
vfmw_read_proc_prn:
	.fnstart
.LFB1461:
	@ args = 8, pretend = 0, frame = 0
	@ frame_needed = 1, uses_anonymous_args = 0
	.movsp ip
	mov	ip, sp	@,
	stmfd	sp!, {r4, r5, r6, r7, r8, sl, fp, ip, lr, pc}	@,
	.pad #4
	.save {r4, r5, r6, r7, r8, sl, fp, ip, lr}
	.setfp fp, ip, #-4
	sub	fp, ip, #4	@,,
	push	{lr}
	bl	__gnu_mcount_nc
	movw	r2, #:lower16:.LC49	@,
	mov	sl, r1	@ start, start
	movt	r2, #:upper16:.LC49	@,
	mov	r1, r3	@, count
	mov	r4, r3	@ count, count
	mov	r5, r0	@ page, page
	bl	snprintf	@
	movw	r7, #:lower16:.LC50	@ tmp199,
	movt	r7, #:upper16:.LC50	@ tmp199,
	movw	r6, #:lower16:.LC60	@ tmp235,
	movt	r6, #:upper16:.LC60	@ tmp235,
	mov	r2, r7	@, tmp199
	rsb	r1, r0, r4	@, D.39865, count
	mov	r8, r0	@ D.39865,
	add	r0, r5, r0	@, page, D.39865
	bl	snprintf	@
	movw	r2, #:lower16:.LC51	@,
	movt	r2, #:upper16:.LC51	@,
	add	r8, r0, r8	@ len,, D.39865
	rsb	r1, r8, r4	@, len, count
	add	r0, r5, r8	@, page, len
	bl	snprintf	@
	movw	r2, #:lower16:.LC52	@,
	movt	r2, #:upper16:.LC52	@,
	add	r8, r8, r0	@ len.2364, len,
	rsb	r1, r8, r4	@, len.2364, count
	add	r0, r5, r8	@, page, len.2364
	bl	snprintf	@
	movw	r2, #:lower16:.LC53	@,
	movt	r2, #:upper16:.LC53	@,
	add	r8, r8, r0	@ len.2369, len.2364,
	rsb	r1, r8, r4	@, len.2369, count
	add	r0, r5, r8	@, page, len.2369
	bl	snprintf	@
	movw	r2, #:lower16:.LC54	@,
	movt	r2, #:upper16:.LC54	@,
	add	r8, r8, r0	@ len.2374, len.2369,
	rsb	r1, r8, r4	@, len.2374, count
	add	r0, r5, r8	@, page, len.2374
	bl	snprintf	@
	movw	r2, #:lower16:.LC55	@,
	movt	r2, #:upper16:.LC55	@,
	add	r8, r8, r0	@ len.2379, len.2374,
	rsb	r1, r8, r4	@, len.2379, count
	add	r0, r5, r8	@, page, len.2379
	bl	snprintf	@
	movw	r2, #:lower16:.LC56	@,
	movt	r2, #:upper16:.LC56	@,
	add	r8, r8, r0	@ len.2384, len.2379,
	rsb	r1, r8, r4	@, len.2384, count
	add	r0, r5, r8	@, page, len.2384
	bl	snprintf	@
	movw	r2, #:lower16:.LC57	@,
	movt	r2, #:upper16:.LC57	@,
	add	r8, r8, r0	@ len.2389, len.2384,
	rsb	r1, r8, r4	@, len.2389, count
	add	r0, r5, r8	@, page, len.2389
	bl	snprintf	@
	movw	r2, #:lower16:.LC58	@,
	movt	r2, #:upper16:.LC58	@,
	add	r8, r8, r0	@ len.2394, len.2389,
	rsb	r1, r8, r4	@, len.2394, count
	add	r0, r5, r8	@, page, len.2394
	bl	snprintf	@
	mov	r2, r7	@, tmp199
	add	r8, r8, r0	@ len.2399, len.2394,
	rsb	r1, r8, r4	@, len.2399, count
	add	r0, r5, r8	@, page, len.2399
	bl	snprintf	@
	movw	r2, #:lower16:.LC59	@,
	movt	r2, #:upper16:.LC59	@,
	add	r8, r8, r0	@ len.2404, len.2399,
	rsb	r1, r8, r4	@, len.2404, count
	add	r0, r5, r8	@, page, len.2404
	bl	snprintf	@
	mov	r2, r7	@, tmp199
	add	r8, r8, r0	@ len.2409, len.2404,
	rsb	r1, r8, r4	@, len.2409, count
	add	r0, r5, r8	@, page, len.2409
	bl	snprintf	@
	mov	r2, r6	@, tmp235
	add	r8, r8, r0	@ len.2414, len.2409,
	rsb	r1, r8, r4	@, len.2414, count
	add	r0, r5, r8	@, page, len.2414
	bl	snprintf	@
	mov	r2, r6	@, tmp235
	add	r8, r8, r0	@ len.2419, len.2414,
	rsb	r1, r8, r4	@, len.2419, count
	add	r0, r5, r8	@, page, len.2419
	bl	snprintf	@
	movw	r2, #:lower16:.LC61	@,
	movt	r2, #:upper16:.LC61	@,
	add	r8, r8, r0	@ len.2424, len.2419,
	rsb	r1, r8, r4	@, len.2424, count
	add	r0, r5, r8	@, page, len.2424
	bl	snprintf	@
	movw	r2, #:lower16:.LC62	@,
	movt	r2, #:upper16:.LC62	@,
	add	r8, r8, r0	@ len.2429, len.2424,
	rsb	r1, r8, r4	@, len.2429, count
	add	r0, r5, r8	@, page, len.2429
	bl	snprintf	@
	movw	r2, #:lower16:.LC63	@,
	movt	r2, #:upper16:.LC63	@,
	add	r8, r8, r0	@ len.2434, len.2429,
	rsb	r1, r8, r4	@, len.2434, count
	add	r0, r5, r8	@, page, len.2434
	bl	snprintf	@
	movw	r2, #:lower16:.LC64	@,
	movt	r2, #:upper16:.LC64	@,
	add	r8, r8, r0	@ len.2439, len.2434,
	rsb	r1, r8, r4	@, len.2439, count
	add	r0, r5, r8	@, page, len.2439
	bl	snprintf	@
	mov	r2, r7	@, tmp199
	add	r8, r8, r0	@ len.2444, len.2439,
	rsb	r1, r8, r4	@, len.2444, count
	add	r0, r5, r8	@, page, len.2444
	bl	snprintf	@
	movw	r2, #:lower16:.LC65	@,
	movt	r2, #:upper16:.LC65	@,
	add	r8, r8, r0	@ len.2449, len.2444,
	rsb	r1, r8, r4	@, len.2449, count
	add	r0, r5, r8	@, page, len.2449
	bl	snprintf	@
	mov	r2, r7	@, tmp199
	add	r8, r8, r0	@ len.2454, len.2449,
	rsb	r1, r8, r4	@, len.2454, count
	add	r0, r5, r8	@, page, len.2454
	bl	snprintf	@
	mov	r2, r6	@, tmp235
	add	r8, r8, r0	@ len.2459, len.2454,
	rsb	r1, r8, r4	@, len.2459, count
	add	r0, r5, r8	@, page, len.2459
	bl	snprintf	@
	mov	r2, r6	@, tmp235
	add	r8, r8, r0	@ len.2464, len.2459,
	rsb	r1, r8, r4	@, len.2464, count
	add	r0, r5, r8	@, page, len.2464
	bl	snprintf	@
	mov	r2, r6	@, tmp235
	add	r8, r8, r0	@ len.2469, len.2464,
	rsb	r1, r8, r4	@, len.2469, count
	add	r0, r5, r8	@, page, len.2469
	bl	snprintf	@
	mov	r2, r6	@, tmp235
	add	r8, r8, r0	@ len.2474, len.2469,
	rsb	r1, r8, r4	@, len.2474, count
	add	r0, r5, r8	@, page, len.2474
	bl	snprintf	@
	mov	r2, r6	@, tmp235
	add	r8, r8, r0	@ len.2479, len.2474,
	rsb	r1, r8, r4	@, len.2479, count
	add	r0, r5, r8	@, page, len.2479
	bl	snprintf	@
	movw	r2, #:lower16:.LC66	@,
	movt	r2, #:upper16:.LC66	@,
	add	r8, r8, r0	@ len.2484, len.2479,
	rsb	r1, r8, r4	@, len.2484, count
	add	r0, r5, r8	@, page, len.2484
	bl	snprintf	@
	mov	r2, r7	@, tmp199
	add	r8, r8, r0	@ len.2489, len.2484,
	rsb	r1, r8, r4	@, len.2489, count
	add	r0, r5, r8	@, page, len.2489
	bl	snprintf	@
	mov	r1, #0	@ tmp281,
	str	r1, [sl, #0]	@ tmp281,* start
	mov	r2, #1	@ tmp282,
	ldr	r3, [fp, #4]	@ eof, eof
	str	r2, [r3, #0]	@ tmp282,* eof
	add	r0, r8, r0	@, len.2489,
	ldmfd	sp, {r4, r5, r6, r7, r8, sl, fp, sp, pc}	@
	.fnend
	.size	vfmw_read_proc_prn, .-vfmw_read_proc_prn
	.align	2
	.global	vfmw_read_proc_dbg
	.type	vfmw_read_proc_dbg, %function
vfmw_read_proc_dbg:
	.fnstart
.LFB1460:
	@ args = 8, pretend = 0, frame = 0
	@ frame_needed = 1, uses_anonymous_args = 0
	.movsp ip
	mov	ip, sp	@,
	stmfd	sp!, {r4, r5, r6, r7, r8, r9, sl, fp, ip, lr, pc}	@,
	.pad #4
	.save {r4, r5, r6, r7, r8, r9, sl, fp, ip, lr}
	.setfp fp, ip, #-4
	sub	fp, ip, #4	@,,
	.pad #20
	sub	sp, sp, #20	@,,
	push	{lr}
	bl	__gnu_mcount_nc
	movw	r2, #:lower16:.LC67	@,
	mov	r9, r1	@ start, start
	movt	r2, #:upper16:.LC67	@,
	mov	r1, r3	@, count
	mov	r4, r3	@ count, count
	mov	r5, r0	@ page, page
	bl	snprintf	@
	movw	r6, #:lower16:.LC68	@ tmp213,
	movt	r6, #:upper16:.LC68	@ tmp213,
	movw	r3, #:lower16:.LC69	@,
	movt	r3, #:upper16:.LC69	@,
	mov	r2, r6	@, tmp213
	movw	sl, #:lower16:.LANCHOR2	@ tmp221,
	movt	sl, #:upper16:.LANCHOR2	@ tmp221,
	movw	r7, #:lower16:.LC74	@ tmp236,
	movt	r7, #:upper16:.LC74	@ tmp236,
	mov	r8, r0	@ D.39808,
	movw	r0, #:lower16:TracerPhyAddr	@ tmp215,
	movt	r0, #:upper16:TracerPhyAddr	@ tmp215,
	rsb	r1, r8, r4	@, D.39808, count
	ldr	ip, [r0, #0]	@ TracerPhyAddr, TracerPhyAddr
	add	r0, r5, r8	@, page, D.39808
	str	ip, [sp, #0]	@ TracerPhyAddr,
	bl	snprintf	@
	movw	r2, #:lower16:.LC70	@,
	movw	r3, #:lower16:.LC71	@,
	movt	r2, #:upper16:.LC70	@,
	movt	r3, #:upper16:.LC71	@,
	str	sl, [sp, #0]	@ tmp221,
	movw	sl, #:lower16:.LC50	@ tmp254,
	movt	sl, #:upper16:.LC50	@ tmp254,
	add	r8, r0, r8	@ len,, D.39808
	rsb	r1, r8, r4	@, len, count
	add	r0, r5, r8	@, page, len
	bl	snprintf	@
	movw	r1, #:lower16:g_PrintEnable	@ tmp226,
	movt	r1, #:upper16:g_PrintEnable	@ tmp226,
	mov	r2, r6	@, tmp213
	movw	r3, #:lower16:.LC72	@,
	movt	r3, #:upper16:.LC72	@,
	ldr	ip, [r1, #0]	@ g_PrintEnable, g_PrintEnable
	str	ip, [sp, #0]	@ g_PrintEnable,
	add	r8, r8, r0	@ len.2526, len,
	rsb	r1, r8, r4	@, len.2526, count
	add	r0, r5, r8	@, page, len.2526
	bl	snprintf	@
	movw	r1, #:lower16:g_TraceCtrl	@ tmp232,
	movt	r1, #:upper16:g_TraceCtrl	@ tmp232,
	mov	r2, r6	@, tmp213
	movw	r3, #:lower16:.LC73	@,
	movt	r3, #:upper16:.LC73	@,
	ldr	r6, [r1, #0]	@ g_TraceCtrl, g_TraceCtrl
	str	r6, [sp, #0]	@ g_TraceCtrl,
	add	r6, r8, r0	@ len.2531, len.2526,
	rsb	r1, r6, r4	@, len.2531, count
	add	r0, r5, r6	@, page, len.2531
	bl	snprintf	@
	movw	ip, #:lower16:g_TraceBsPeriod	@ tmp238,
	movt	ip, #:upper16:g_TraceBsPeriod	@ tmp238,
	mov	r2, r7	@, tmp236
	movw	r3, #:lower16:.LC75	@,
	movt	r3, #:upper16:.LC75	@,
	ldr	r1, [ip, #0]	@ g_TraceBsPeriod, g_TraceBsPeriod
	str	r1, [sp, #0]	@ g_TraceBsPeriod,
	add	r6, r6, r0	@ len.2536, len.2531,
	rsb	r1, r6, r4	@, len.2536, count
	add	r0, r5, r6	@, page, len.2536
	bl	snprintf	@
	movw	ip, #:lower16:g_TraceFramePeriod	@ tmp244,
	movt	ip, #:upper16:g_TraceFramePeriod	@ tmp244,
	mov	r2, r7	@, tmp236
	movw	r3, #:lower16:.LC76	@,
	movt	r3, #:upper16:.LC76	@,
	ldr	r1, [ip, #0]	@ g_TraceFramePeriod, g_TraceFramePeriod
	str	r1, [sp, #0]	@ g_TraceFramePeriod,
	add	r6, r6, r0	@ len.2541, len.2536,
	rsb	r1, r6, r4	@, len.2541, count
	add	r0, r5, r6	@, page, len.2541
	bl	snprintf	@
	movw	ip, #:lower16:g_TraceImgPeriod	@ tmp250,
	movt	ip, #:upper16:g_TraceImgPeriod	@ tmp250,
	mov	r2, r7	@, tmp236
	movw	r3, #:lower16:.LC77	@,
	movt	r3, #:upper16:.LC77	@,
	ldr	r1, [ip, #0]	@ g_TraceImgPeriod, g_TraceImgPeriod
	str	r1, [sp, #0]	@ g_TraceImgPeriod,
	add	r6, r6, r0	@ len.2546, len.2541,
	rsb	r1, r6, r4	@, len.2546, count
	add	r0, r5, r6	@, page, len.2546
	bl	snprintf	@
	mov	r2, sl	@, tmp254
	add	r6, r6, r0	@ len.2551, len.2546,
	rsb	r1, r6, r4	@, len.2551, count
	add	r0, r5, r6	@, page, len.2551
	bl	snprintf	@
	movw	r2, #:lower16:.LC78	@,
	movt	r2, #:upper16:.LC78	@,
	add	r6, r6, r0	@ len.2556, len.2551,
	rsb	r1, r6, r4	@, len.2556, count
	add	r0, r5, r6	@, page, len.2556
	bl	snprintf	@
	movw	r2, #:lower16:.LC79	@,
	movt	r2, #:upper16:.LC79	@,
	add	r6, r6, r0	@ len.2561, len.2556,
	rsb	r1, r6, r4	@, len.2561, count
	add	r0, r5, r6	@, page, len.2561
	bl	snprintf	@
	movw	r2, #:lower16:.LC80	@,
	movt	r2, #:upper16:.LC80	@,
	add	r6, r6, r0	@ len.2566, len.2561,
	rsb	r1, r6, r4	@, len.2566, count
	add	r0, r5, r6	@, page, len.2566
	bl	snprintf	@
	movw	r2, #:lower16:.LC81	@,
	movt	r2, #:upper16:.LC81	@,
	add	r6, r6, r0	@ len.2571, len.2566,
	rsb	r1, r6, r4	@, len.2571, count
	add	r0, r5, r6	@, page, len.2571
	bl	snprintf	@
	movw	r2, #:lower16:.LC82	@,
	movt	r2, #:upper16:.LC82	@,
	add	r6, r6, r0	@ len.2576, len.2571,
	rsb	r1, r6, r4	@, len.2576, count
	add	r0, r5, r6	@, page, len.2576
	bl	snprintf	@
	movw	r2, #:lower16:.LC83	@,
	movt	r2, #:upper16:.LC83	@,
	add	r6, r6, r0	@ len.2581, len.2576,
	rsb	r1, r6, r4	@, len.2581, count
	add	r0, r5, r6	@, page, len.2581
	bl	snprintf	@
	movw	r2, #:lower16:.LC84	@,
	movt	r2, #:upper16:.LC84	@,
	add	r6, r6, r0	@ len.2586, len.2581,
	rsb	r1, r6, r4	@, len.2586, count
	add	r0, r5, r6	@, page, len.2586
	bl	snprintf	@
	movw	r2, #:lower16:.LC85	@,
	movt	r2, #:upper16:.LC85	@,
	add	r6, r6, r0	@ len.2591, len.2586,
	rsb	r1, r6, r4	@, len.2591, count
	add	r0, r5, r6	@, page, len.2591
	bl	snprintf	@
	movw	r2, #:lower16:.LC86	@,
	movt	r2, #:upper16:.LC86	@,
	add	r6, r6, r0	@ len.2596, len.2591,
	rsb	r1, r6, r4	@, len.2596, count
	add	r0, r5, r6	@, page, len.2596
	bl	snprintf	@
	movw	r2, #:lower16:.LC87	@,
	movt	r2, #:upper16:.LC87	@,
	add	r6, r6, r0	@ len.2601, len.2596,
	rsb	r1, r6, r4	@, len.2601, count
	add	r0, r5, r6	@, page, len.2601
	bl	snprintf	@
	movw	r2, #:lower16:.LC88	@,
	movt	r2, #:upper16:.LC88	@,
	add	r6, r6, r0	@ len.2606, len.2601,
	rsb	r1, r6, r4	@, len.2606, count
	add	r0, r5, r6	@, page, len.2606
	bl	snprintf	@
	movw	r2, #:lower16:.LC89	@,
	movt	r2, #:upper16:.LC89	@,
	add	r6, r6, r0	@ len.2611, len.2606,
	rsb	r1, r6, r4	@, len.2611, count
	add	r0, r5, r6	@, page, len.2611
	bl	snprintf	@
	movw	ip, #:lower16:.LC91	@ tmp294,
	movt	ip, #:upper16:.LC91	@ tmp294,
	movw	r2, #:lower16:.LC90	@,
	movt	r2, #:upper16:.LC90	@,
	str	ip, [sp, #0]	@ tmp294,
	mov	r3, ip	@, tmp294
	str	ip, [sp, #4]	@ tmp294,
	str	ip, [sp, #8]	@ tmp294,
	str	ip, [sp, #12]	@ tmp294,
	add	r6, r6, r0	@ len.2616, len.2611,
	rsb	r1, r6, r4	@, len.2616, count
	add	r0, r5, r6	@, page, len.2616
	bl	snprintf	@
	movw	r2, #:lower16:.LC92	@,
	movt	r2, #:upper16:.LC92	@,
	add	r6, r6, r0	@ len.2621, len.2616,
	rsb	r1, r6, r4	@, len.2621, count
	add	r0, r5, r6	@, page, len.2621
	bl	snprintf	@
	movw	r2, #:lower16:.LC93	@,
	movt	r2, #:upper16:.LC93	@,
	add	r6, r6, r0	@ len.2626, len.2621,
	rsb	r1, r6, r4	@, len.2626, count
	add	r0, r5, r6	@, page, len.2626
	bl	snprintf	@
	movw	r2, #:lower16:.LC94	@,
	movt	r2, #:upper16:.LC94	@,
	add	r6, r6, r0	@ len.2631, len.2626,
	rsb	r1, r6, r4	@, len.2631, count
	add	r0, r5, r6	@, page, len.2631
	bl	snprintf	@
	movw	r2, #:lower16:.LC95	@,
	movt	r2, #:upper16:.LC95	@,
	add	r6, r6, r0	@ len.2636, len.2631,
	rsb	r1, r6, r4	@, len.2636, count
	add	r0, r5, r6	@, page, len.2636
	bl	snprintf	@
	movw	r2, #:lower16:.LC96	@,
	movt	r2, #:upper16:.LC96	@,
	add	r6, r6, r0	@ len.2641, len.2636,
	rsb	r1, r6, r4	@, len.2641, count
	add	r0, r5, r6	@, page, len.2641
	bl	snprintf	@
	movw	r2, #:lower16:.LC97	@,
	movt	r2, #:upper16:.LC97	@,
	add	r6, r6, r0	@ len.2646, len.2641,
	rsb	r1, r6, r4	@, len.2646, count
	add	r0, r5, r6	@, page, len.2646
	bl	snprintf	@
	movw	r2, #:lower16:.LC98	@,
	movt	r2, #:upper16:.LC98	@,
	add	r6, r6, r0	@ len.2651, len.2646,
	rsb	r1, r6, r4	@, len.2651, count
	add	r0, r5, r6	@, page, len.2651
	bl	snprintf	@
	movw	r2, #:lower16:.LC99	@,
	movt	r2, #:upper16:.LC99	@,
	add	r6, r6, r0	@ len.2656, len.2651,
	rsb	r1, r6, r4	@, len.2656, count
	add	r0, r5, r6	@, page, len.2656
	bl	snprintf	@
	movw	r2, #:lower16:.LC100	@,
	movt	r2, #:upper16:.LC100	@,
	add	r6, r6, r0	@ len.2661, len.2656,
	rsb	r1, r6, r4	@, len.2661, count
	add	r0, r5, r6	@, page, len.2661
	bl	snprintf	@
	movw	r2, #:lower16:.LC101	@,
	movt	r2, #:upper16:.LC101	@,
	add	r6, r6, r0	@ len.2666, len.2661,
	rsb	r1, r6, r4	@, len.2666, count
	add	r0, r5, r6	@, page, len.2666
	bl	snprintf	@
	movw	r2, #:lower16:.LC102	@,
	movt	r2, #:upper16:.LC102	@,
	add	r6, r6, r0	@ len.2671, len.2666,
	rsb	r1, r6, r4	@, len.2671, count
	add	r0, r5, r6	@, page, len.2671
	bl	snprintf	@
	movw	r2, #:lower16:.LC103	@,
	movt	r2, #:upper16:.LC103	@,
	add	r6, r6, r0	@ len.2676, len.2671,
	rsb	r1, r6, r4	@, len.2676, count
	add	r0, r5, r6	@, page, len.2676
	bl	snprintf	@
	movw	r2, #:lower16:.LC104	@,
	movt	r2, #:upper16:.LC104	@,
	add	r6, r6, r0	@ len.2681, len.2676,
	rsb	r1, r6, r4	@, len.2681, count
	add	r0, r5, r6	@, page, len.2681
	bl	snprintf	@
	mov	r2, sl	@, tmp254
	add	r6, r6, r0	@ len.2686, len.2681,
	rsb	r1, r6, r4	@, len.2686, count
	add	r0, r5, r6	@, page, len.2686
	bl	snprintf	@
	mov	r1, #0	@ tmp341,
	str	r1, [r9, #0]	@ tmp341,* start
	mov	r2, #1	@ tmp342,
	ldr	r3, [fp, #4]	@ eof, eof
	str	r2, [r3, #0]	@ tmp342,* eof
	add	r0, r6, r0	@, len.2686,
	sub	sp, fp, #40
	ldmfd	sp, {r4, r5, r6, r7, r8, r9, sl, fp, sp, pc}
	.fnend
	.size	vfmw_read_proc_dbg, .-vfmw_read_proc_dbg
	.align	2
	.global	vfmw_read_proc
	.type	vfmw_read_proc, %function
vfmw_read_proc:
	.fnstart
.LFB1459:
	@ args = 8, pretend = 0, frame = 8
	@ frame_needed = 1, uses_anonymous_args = 0
	.movsp ip
	mov	ip, sp	@,
	stmfd	sp!, {r4, r5, r6, r7, r8, r9, sl, fp, ip, lr, pc}	@,
	.pad #4
	.save {r4, r5, r6, r7, r8, r9, sl, fp, ip, lr}
	.setfp fp, ip, #-4
	sub	fp, ip, #4	@,,
	.pad #28
	sub	sp, sp, #28	@,,
	push	{lr}
	bl	__gnu_mcount_nc
	movw	r2, #:lower16:.LC105	@,
	str	r1, [fp, #-48]	@ start, %sfp
	movt	r2, #:upper16:.LC105	@,
	mov	r1, r3	@, count
	mov	r4, r3	@ count, count
	mov	r7, r0	@ page, page
	bl	snprintf	@
	movw	r5, #:lower16:.LC106	@ tmp165,
	movt	r5, #:upper16:.LC106	@ tmp165,
	movw	r3, #:lower16:.LC107	@,
	movt	r3, #:upper16:.LC107	@,
	mov	r2, r5	@, tmp165
	movw	r6, #:lower16:2013092600	@ tmp167,
	movt	r6, #:upper16:2013092600	@ tmp167,
	str	r6, [sp, #0]	@ tmp167,
	movw	r6, #:lower16:.LANCHOR0	@ tmp168,
	movt	r6, #:upper16:.LANCHOR0	@ tmp168,
	movw	r8, #:lower16:-858993459	@ tmp247,
	movt	r8, #:upper16:-858993459	@ tmp247,
	mov	r9, #0	@ tmp173,
	rsb	r1, r0, r4	@, D.39768, count
	mov	sl, r0	@ D.39768,
	add	r0, r7, r0	@, page, D.39768
	bl	snprintf	@
	ldr	ip, [r6, #120]	@ D.39771, <variable>.u32VaVdmLoad
	movw	r2, #:lower16:.LC108	@,
	movw	r3, #:lower16:.LC109	@,
	movt	r2, #:upper16:.LC108	@,
	movt	r3, #:upper16:.LC109	@,
	umull	lr, r1, r8, ip	@, tmp175, tmp247, D.39771
	str	r9, [sp, #0]	@ tmp173,
	mov	lr, r1, lsr #3	@ tmp174, tmp175,
	str	lr, [sp, #4]	@ tmp174,
	add	r1, lr, lr, asl #2	@, tmp182, tmp174, tmp174,
	sub	lr, ip, r1, asl #1	@ tmp184, D.39771, tmp182,
	str	lr, [sp, #8]	@ tmp184,
	add	sl, r0, sl	@ len,, D.39768
	rsb	r1, sl, r4	@, len, count
	add	r0, r7, sl	@, page, len
	bl	snprintf	@
	ldr	r1, [r6, #136]	@ D.39775, <variable>.u32DaDnrLoad
	movw	r2, #:lower16:.LC110	@,
	movw	r3, #:lower16:.LC111	@,
	movt	r2, #:upper16:.LC110	@,
	movt	r3, #:upper16:.LC111	@,
	umull	ip, r8, r8, r1	@, tmp191, tmp247, D.39775
	mov	ip, r8, lsr #3	@ tmp190, tmp191,
	str	ip, [sp, #0]	@ tmp190,
	add	r8, ip, ip, asl #2	@, tmp198, tmp190, tmp190,
	sub	ip, r1, r8, asl #1	@ tmp200, D.39775, tmp198,
	str	ip, [sp, #4]	@ tmp200,
	add	r8, sl, r0	@ len.2762, len,
	rsb	r1, r8, r4	@, len.2762, count
	add	r0, r7, r8	@, page, len.2762
	bl	snprintf	@
	ldr	r1, [r6, #72]	@ extra_ref, extra_ref
	mov	r2, r5	@, tmp165
	movw	r3, #:lower16:.LC112	@,
	movt	r3, #:upper16:.LC112	@,
	str	r1, [sp, #0]	@ extra_ref,
	add	r8, r8, r0	@ len.2722, len.2762,
	rsb	r1, r8, r4	@, len.2722, count
	add	r0, r7, r8	@, page, len.2722
	bl	snprintf	@
	ldr	ip, [r6, #76]	@ extra_disp, extra_disp
	mov	r2, r5	@, tmp165
	movw	r3, #:lower16:.LC113	@,
	movt	r3, #:upper16:.LC113	@,
	str	ip, [sp, #0]	@ extra_disp,
	add	r8, r8, r0	@ len.2727, len.2722,
	rsb	r1, r8, r4	@, len.2727, count
	add	r0, r7, r8	@, page, len.2727
	bl	snprintf	@
	ldr	r1, [r6, #172]	@ extra_cmd, extra_cmd
	mov	r2, r5	@, tmp165
	movw	r3, #:lower16:.LC114	@,
	movt	r3, #:upper16:.LC114	@,
	str	r1, [sp, #0]	@ extra_cmd,
	add	r8, r8, r0	@ len.2732, len.2727,
	rsb	r1, r8, r4	@, len.2732, count
	add	r0, r7, r8	@, page, len.2732
	bl	snprintf	@
	movw	ip, #:lower16:USE_FF_APT_EN	@ tmp223,
	movt	ip, #:upper16:USE_FF_APT_EN	@ tmp223,
	mov	r2, r5	@, tmp165
	movw	r3, #:lower16:.LC115	@,
	movt	r3, #:upper16:.LC115	@,
	ldr	r1, [ip, #0]	@ USE_FF_APT_EN, USE_FF_APT_EN
	str	r1, [sp, #0]	@ USE_FF_APT_EN,
	add	r8, r8, r0	@ len.2737, len.2732,
	rsb	r1, r8, r4	@, len.2737, count
	add	r0, r7, r8	@, page, len.2737
	bl	snprintf	@
	ldr	ip, [r6, #176]	@ g_ResetCreateNewSave, g_ResetCreateNewSave
	mov	r2, r5	@, tmp165
	movw	r3, #:lower16:.LC116	@,
	movt	r3, #:upper16:.LC116	@,
	str	ip, [sp, #0]	@ g_ResetCreateNewSave,
	add	r8, r8, r0	@ len.2742, len.2737,
	rsb	r1, r8, r4	@, len.2742, count
	add	r0, r7, r8	@, page, len.2742
	bl	snprintf	@
	ldr	r1, [r6, #164]	@ <variable>.u32VaVdmKiloCycle, <variable>.u32VaVdmKiloCycle
	mov	r2, r5	@, tmp165
	movw	r3, #:lower16:.LC117	@,
	movt	r3, #:upper16:.LC117	@,
	str	r1, [sp, #0]	@ <variable>.u32VaVdmKiloCycle,
	add	r8, r8, r0	@ len.2747, len.2742,
	rsb	r1, r8, r4	@, len.2747, count
	add	r0, r7, r8	@, page, len.2747
	bl	snprintf	@
	ldr	ip, [r6, #168]	@ <variable>.u32StatTime, <variable>.u32StatTime
	mov	r2, r5	@, tmp165
	movw	r3, #:lower16:.LC118	@,
	movt	r3, #:upper16:.LC118	@,
	str	ip, [sp, #0]	@ <variable>.u32StatTime,
	add	r8, r8, r0	@ len.2752, len.2747,
	rsb	r1, r8, r4	@, len.2752, count
	add	r0, r7, r8	@, page, len.2752
	bl	snprintf	@
	ldr	r1, [fp, #-48]	@, %sfp
	mov	r2, #1	@ tmp244,
	str	r9, [r1, #0]	@ tmp173,
	ldr	r3, [fp, #4]	@ eof, eof
	str	r2, [r3, #0]	@ tmp244,* eof
	add	r0, r8, r0	@, len.2752,
	sub	sp, fp, #40
	ldmfd	sp, {r4, r5, r6, r7, r8, r9, sl, fp, sp, pc}
	.fnend
	.size	vfmw_read_proc, .-vfmw_read_proc
	.align	2
	.global	vfmw_proc_exit
	.type	vfmw_proc_exit, %function
vfmw_proc_exit:
	.fnstart
.LFB1468:
	@ args = 0, pretend = 0, frame = 16
	@ frame_needed = 1, uses_anonymous_args = 0
	.movsp ip
	mov	ip, sp	@,
	stmfd	sp!, {r4, r5, fp, ip, lr, pc}	@,
	.pad #4
	.save {r4, r5, fp, ip, lr}
	.setfp fp, ip, #-4
	sub	fp, ip, #4	@,,
	.pad #16
	sub	sp, sp, #16	@,,
	push	{lr}
	bl	__gnu_mcount_nc
	movw	r5, #:lower16:.LC119	@ tmp134,
	sub	r4, fp, #36	@ tmp133,,
	movt	r5, #:upper16:.LC119	@ tmp134,
	mov	r3, #0	@,
	mov	r1, #16	@,
	mov	r2, r5	@, tmp134
	mov	r0, r4	@, tmp133
	bl	snprintf	@
	mov	r0, r4	@, tmp133
	mov	r1, #0	@,
	bl	remove_proc_entry	@
	mov	r2, r5	@, tmp134
	mov	r3, #1	@,
	mov	r0, r4	@, tmp133
	mov	r1, #16	@,
	bl	snprintf	@
	mov	r0, r4	@, tmp133
	mov	r1, #0	@,
	bl	remove_proc_entry	@
	mov	r2, r5	@, tmp134
	mov	r3, #2	@,
	mov	r0, r4	@, tmp133
	mov	r1, #16	@,
	bl	snprintf	@
	mov	r0, r4	@, tmp133
	mov	r1, #0	@,
	bl	remove_proc_entry	@
	mov	r2, r5	@, tmp134
	mov	r3, #3	@,
	mov	r0, r4	@, tmp133
	mov	r1, #16	@,
	bl	snprintf	@
	mov	r0, r4	@, tmp133
	mov	r1, #0	@,
	bl	remove_proc_entry	@
	mov	r2, r5	@, tmp134
	mov	r3, #4	@,
	mov	r0, r4	@, tmp133
	mov	r1, #16	@,
	bl	snprintf	@
	mov	r0, r4	@, tmp133
	mov	r1, #0	@,
	bl	remove_proc_entry	@
	mov	r2, r5	@, tmp134
	mov	r3, #5	@,
	mov	r0, r4	@, tmp133
	mov	r1, #16	@,
	bl	snprintf	@
	mov	r0, r4	@, tmp133
	mov	r1, #0	@,
	bl	remove_proc_entry	@
	mov	r2, r5	@, tmp134
	mov	r3, #6	@,
	mov	r0, r4	@, tmp133
	mov	r1, #16	@,
	bl	snprintf	@
	mov	r0, r4	@, tmp133
	mov	r1, #0	@,
	bl	remove_proc_entry	@
	mov	r2, r5	@, tmp134
	mov	r3, #7	@,
	mov	r0, r4	@, tmp133
	mov	r1, #16	@,
	bl	snprintf	@
	mov	r0, r4	@, tmp133
	mov	r1, #0	@,
	bl	remove_proc_entry	@
	mov	r2, r5	@, tmp134
	mov	r3, #8	@,
	mov	r0, r4	@, tmp133
	mov	r1, #16	@,
	bl	snprintf	@
	mov	r0, r4	@, tmp133
	mov	r1, #0	@,
	bl	remove_proc_entry	@
	mov	r2, r5	@, tmp134
	mov	r3, #9	@,
	mov	r0, r4	@, tmp133
	mov	r1, #16	@,
	bl	snprintf	@
	mov	r0, r4	@, tmp133
	mov	r1, #0	@,
	bl	remove_proc_entry	@
	mov	r2, r5	@, tmp134
	mov	r3, #10	@,
	mov	r0, r4	@, tmp133
	mov	r1, #16	@,
	bl	snprintf	@
	mov	r0, r4	@, tmp133
	mov	r1, #0	@,
	bl	remove_proc_entry	@
	mov	r2, r5	@, tmp134
	mov	r3, #11	@,
	mov	r0, r4	@, tmp133
	mov	r1, #16	@,
	bl	snprintf	@
	mov	r0, r4	@, tmp133
	mov	r1, #0	@,
	bl	remove_proc_entry	@
	mov	r2, r5	@, tmp134
	mov	r3, #12	@,
	mov	r0, r4	@, tmp133
	mov	r1, #16	@,
	bl	snprintf	@
	mov	r0, r4	@, tmp133
	mov	r1, #0	@,
	bl	remove_proc_entry	@
	mov	r2, r5	@, tmp134
	mov	r3, #13	@,
	mov	r0, r4	@, tmp133
	mov	r1, #16	@,
	bl	snprintf	@
	mov	r0, r4	@, tmp133
	mov	r1, #0	@,
	bl	remove_proc_entry	@
	mov	r2, r5	@, tmp134
	mov	r3, #14	@,
	mov	r0, r4	@, tmp133
	mov	r1, #16	@,
	bl	snprintf	@
	mov	r0, r4	@, tmp133
	mov	r1, #0	@,
	bl	remove_proc_entry	@
	mov	r2, r5	@, tmp134
	mov	r3, #15	@,
	mov	r0, r4	@, tmp133
	mov	r1, #16	@,
	bl	snprintf	@
	mov	r0, r4	@, tmp133
	mov	r1, #0	@,
	bl	remove_proc_entry	@
	mov	r1, #0	@,
	movw	r0, #:lower16:.LC120	@,
	movt	r0, #:upper16:.LC120	@,
	bl	remove_proc_entry	@
	mov	r1, #0	@,
	movw	r0, #:lower16:.LC121	@,
	movt	r0, #:upper16:.LC121	@,
	bl	remove_proc_entry	@
	mov	r1, #0	@,
	movw	r0, #:lower16:.LC122	@,
	movt	r0, #:upper16:.LC122	@,
	bl	remove_proc_entry	@
	mov	r1, #0	@,
	movw	r0, #:lower16:.LC123	@,
	movt	r0, #:upper16:.LC123	@,
	bl	remove_proc_entry	@
	mov	r1, #0	@,
	movw	r0, #:lower16:.LC124	@,
	movt	r0, #:upper16:.LC124	@,
	bl	remove_proc_entry	@
	movw	r0, #:lower16:.LC125	@,
	mov	r1, #0	@,
	movt	r0, #:upper16:.LC125	@,
	bl	remove_proc_entry	@
	sub	sp, fp, #20
	ldmfd	sp, {r4, r5, fp, sp, pc}
	.fnend
	.size	vfmw_proc_exit, .-vfmw_proc_exit
	.align	2
	.global	vfmw_proc_init
	.type	vfmw_proc_init, %function
vfmw_proc_init:
	.fnstart
.LFB1467:
	@ args = 0, pretend = 0, frame = 16
	@ frame_needed = 1, uses_anonymous_args = 0
	.movsp ip
	mov	ip, sp	@,
	stmfd	sp!, {r4, r5, r6, fp, ip, lr, pc}	@,
	.pad #4
	.save {r4, r5, r6, fp, ip, lr}
	.setfp fp, ip, #-4
	sub	fp, ip, #4	@,,
	.pad #20
	sub	sp, sp, #20	@,,
	push	{lr}
	bl	__gnu_mcount_nc
	sub	r4, fp, #44	@ tmp259,,
	mov	r1, #16	@,
	mov	r3, #0	@,
	movw	r2, #:lower16:.LC119	@,
	mov	r0, r4	@, tmp259
	movt	r2, #:upper16:.LC119	@,
	bl	snprintf	@
	mov	r0, r4	@, tmp259
	mov	r1, #420	@,
	mov	r2, #0	@,
	bl	create_proc_entry	@
	cmp	r0, #0	@ p.2845
	beq	.L438	@,
	mov	r1, #16	@,
	mov	r3, #1	@,
	movw	r6, #:lower16:vfmw_read_proc_info	@ tmp258,
	movw	r5, #:lower16:vfmw_write_proc	@ tmp257,
	movt	r6, #:upper16:vfmw_read_proc_info	@ tmp258,
	movt	r5, #:upper16:vfmw_write_proc	@ tmp257,
	str	r6, [r0, #48]	@ tmp258, <variable>.read_proc
	movw	r2, #:lower16:.LC119	@,
	str	r5, [r0, #52]	@ tmp257, <variable>.write_proc
	movt	r2, #:upper16:.LC119	@,
	mov	r0, r4	@, tmp259
	bl	snprintf	@
	mov	r0, r4	@, tmp259
	mov	r1, #420	@,
	mov	r2, #0	@,
	bl	create_proc_entry	@
	cmp	r0, #0	@ p.2846
	beq	.L438	@,
	str	r5, [r0, #52]	@ tmp257, <variable>.write_proc
	mov	r1, #16	@,
	str	r6, [r0, #48]	@ tmp258, <variable>.read_proc
	mov	r3, #2	@,
	mov	r0, r4	@, tmp259
	movw	r2, #:lower16:.LC119	@,
	movt	r2, #:upper16:.LC119	@,
	bl	snprintf	@
	mov	r0, r4	@, tmp259
	mov	r1, #420	@,
	mov	r2, #0	@,
	bl	create_proc_entry	@
	cmp	r0, #0	@ p.2847
	beq	.L438	@,
	str	r5, [r0, #52]	@ tmp257, <variable>.write_proc
	mov	r1, #16	@,
	str	r6, [r0, #48]	@ tmp258, <variable>.read_proc
	mov	r3, #3	@,
	mov	r0, r4	@, tmp259
	movw	r2, #:lower16:.LC119	@,
	movt	r2, #:upper16:.LC119	@,
	bl	snprintf	@
	mov	r0, r4	@, tmp259
	mov	r1, #420	@,
	mov	r2, #0	@,
	bl	create_proc_entry	@
	cmp	r0, #0	@ p.2848
	beq	.L438	@,
	str	r5, [r0, #52]	@ tmp257, <variable>.write_proc
	mov	r1, #16	@,
	str	r6, [r0, #48]	@ tmp258, <variable>.read_proc
	mov	r3, #4	@,
	mov	r0, r4	@, tmp259
	movw	r2, #:lower16:.LC119	@,
	movt	r2, #:upper16:.LC119	@,
	bl	snprintf	@
	mov	r0, r4	@, tmp259
	mov	r1, #420	@,
	mov	r2, #0	@,
	bl	create_proc_entry	@
	cmp	r0, #0	@ p.2849
	beq	.L438	@,
	str	r5, [r0, #52]	@ tmp257, <variable>.write_proc
	mov	r1, #16	@,
	str	r6, [r0, #48]	@ tmp258, <variable>.read_proc
	mov	r3, #5	@,
	mov	r0, r4	@, tmp259
	movw	r2, #:lower16:.LC119	@,
	movt	r2, #:upper16:.LC119	@,
	bl	snprintf	@
	mov	r0, r4	@, tmp259
	mov	r1, #420	@,
	mov	r2, #0	@,
	bl	create_proc_entry	@
	cmp	r0, #0	@ p.2850
	beq	.L438	@,
	str	r5, [r0, #52]	@ tmp257, <variable>.write_proc
	mov	r1, #16	@,
	str	r6, [r0, #48]	@ tmp258, <variable>.read_proc
	mov	r3, #6	@,
	mov	r0, r4	@, tmp259
	movw	r2, #:lower16:.LC119	@,
	movt	r2, #:upper16:.LC119	@,
	bl	snprintf	@
	mov	r0, r4	@, tmp259
	mov	r1, #420	@,
	mov	r2, #0	@,
	bl	create_proc_entry	@
	cmp	r0, #0	@ p.2851
	beq	.L438	@,
	str	r5, [r0, #52]	@ tmp257, <variable>.write_proc
	mov	r1, #16	@,
	str	r6, [r0, #48]	@ tmp258, <variable>.read_proc
	mov	r3, #7	@,
	mov	r0, r4	@, tmp259
	movw	r2, #:lower16:.LC119	@,
	movt	r2, #:upper16:.LC119	@,
	bl	snprintf	@
	mov	r0, r4	@, tmp259
	mov	r1, #420	@,
	mov	r2, #0	@,
	bl	create_proc_entry	@
	cmp	r0, #0	@ p.2852
	beq	.L438	@,
	str	r5, [r0, #52]	@ tmp257, <variable>.write_proc
	mov	r1, #16	@,
	str	r6, [r0, #48]	@ tmp258, <variable>.read_proc
	mov	r3, #8	@,
	mov	r0, r4	@, tmp259
	movw	r2, #:lower16:.LC119	@,
	movt	r2, #:upper16:.LC119	@,
	bl	snprintf	@
	mov	r0, r4	@, tmp259
	mov	r1, #420	@,
	mov	r2, #0	@,
	bl	create_proc_entry	@
	cmp	r0, #0	@ p.2853
	beq	.L438	@,
	str	r5, [r0, #52]	@ tmp257, <variable>.write_proc
	mov	r1, #16	@,
	str	r6, [r0, #48]	@ tmp258, <variable>.read_proc
	mov	r3, #9	@,
	mov	r0, r4	@, tmp259
	movw	r2, #:lower16:.LC119	@,
	movt	r2, #:upper16:.LC119	@,
	bl	snprintf	@
	mov	r0, r4	@, tmp259
	mov	r1, #420	@,
	mov	r2, #0	@,
	bl	create_proc_entry	@
	cmp	r0, #0	@ p.2854
	beq	.L438	@,
	str	r5, [r0, #52]	@ tmp257, <variable>.write_proc
	mov	r1, #16	@,
	str	r6, [r0, #48]	@ tmp258, <variable>.read_proc
	mov	r3, #10	@,
	mov	r0, r4	@, tmp259
	movw	r2, #:lower16:.LC119	@,
	movt	r2, #:upper16:.LC119	@,
	bl	snprintf	@
	mov	r0, r4	@, tmp259
	mov	r1, #420	@,
	mov	r2, #0	@,
	bl	create_proc_entry	@
	cmp	r0, #0	@ p.2855
	beq	.L438	@,
	str	r5, [r0, #52]	@ tmp257, <variable>.write_proc
	mov	r1, #16	@,
	str	r6, [r0, #48]	@ tmp258, <variable>.read_proc
	mov	r3, #11	@,
	mov	r0, r4	@, tmp259
	movw	r2, #:lower16:.LC119	@,
	movt	r2, #:upper16:.LC119	@,
	bl	snprintf	@
	mov	r0, r4	@, tmp259
	mov	r1, #420	@,
	mov	r2, #0	@,
	bl	create_proc_entry	@
	cmp	r0, #0	@ p.2856
	beq	.L438	@,
	str	r5, [r0, #52]	@ tmp257, <variable>.write_proc
	mov	r1, #16	@,
	str	r6, [r0, #48]	@ tmp258, <variable>.read_proc
	mov	r3, #12	@,
	mov	r0, r4	@, tmp259
	movw	r2, #:lower16:.LC119	@,
	movt	r2, #:upper16:.LC119	@,
	bl	snprintf	@
	mov	r0, r4	@, tmp259
	mov	r1, #420	@,
	mov	r2, #0	@,
	bl	create_proc_entry	@
	cmp	r0, #0	@ p.2857
	beq	.L438	@,
	str	r5, [r0, #52]	@ tmp257, <variable>.write_proc
	mov	r1, #16	@,
	str	r6, [r0, #48]	@ tmp258, <variable>.read_proc
	mov	r3, #13	@,
	mov	r0, r4	@, tmp259
	movw	r2, #:lower16:.LC119	@,
	movt	r2, #:upper16:.LC119	@,
	bl	snprintf	@
	mov	r0, r4	@, tmp259
	mov	r1, #420	@,
	mov	r2, #0	@,
	bl	create_proc_entry	@
	cmp	r0, #0	@ p.2858
	beq	.L438	@,
	str	r5, [r0, #52]	@ tmp257, <variable>.write_proc
	mov	r1, #16	@,
	str	r6, [r0, #48]	@ tmp258, <variable>.read_proc
	mov	r3, #14	@,
	mov	r0, r4	@, tmp259
	movw	r2, #:lower16:.LC119	@,
	movt	r2, #:upper16:.LC119	@,
	bl	snprintf	@
	mov	r0, r4	@, tmp259
	mov	r1, #420	@,
	mov	r2, #0	@,
	bl	create_proc_entry	@
	cmp	r0, #0	@ p.2859
	beq	.L438	@,
	mov	r3, #15	@,
	str	r5, [r0, #52]	@ tmp257, <variable>.write_proc
	mov	r1, #16	@,
	str	r6, [r0, #48]	@ tmp258, <variable>.read_proc
	movw	r2, #:lower16:.LC119	@,
	mov	r0, r4	@, tmp259
	movt	r2, #:upper16:.LC119	@,
	bl	snprintf	@
	mov	r0, r4	@, tmp259
	mov	r1, #420	@,
	mov	r2, #0	@,
	bl	create_proc_entry	@
	subs	r3, r0, #0	@ p,
	beq	.L438	@,
	str	r6, [r3, #48]	@ tmp258, <variable>.read_proc
	movw	r0, #:lower16:.LC120	@,
	str	r5, [r3, #52]	@ tmp257, <variable>.write_proc
	movt	r0, #:upper16:.LC120	@,
	mov	r1, #420	@,
	mov	r2, #0	@,
	bl	create_proc_entry	@
	cmp	r0, #0	@ p.2839
	bne	.L441	@,
.L438:
	mvn	r0, #0	@ D.40514,
.L439:
	sub	sp, fp, #24
	ldmfd	sp, {r4, r5, r6, fp, sp, pc}
.L441:
	str	r5, [r0, #52]	@ tmp257, <variable>.write_proc
	movw	r3, #:lower16:vfmw_read_proc	@ tmp238,
	mov	r1, #420	@,
	movt	r3, #:upper16:vfmw_read_proc	@ tmp238,
	mov	r2, #0	@,
	str	r3, [r0, #48]	@ tmp238, <variable>.read_proc
	movw	r0, #:lower16:.LC121	@,
	movt	r0, #:upper16:.LC121	@,
	bl	create_proc_entry	@
	cmp	r0, #0	@ p.2840
	beq	.L438	@,
	str	r5, [r0, #52]	@ tmp257, <variable>.write_proc
	movw	r1, #:lower16:vfmw_read_proc_dbg	@ tmp241,
	mov	r2, #0	@,
	movt	r1, #:upper16:vfmw_read_proc_dbg	@ tmp241,
	str	r1, [r0, #48]	@ tmp241, <variable>.read_proc
	movw	r0, #:lower16:.LC122	@,
	mov	r1, #420	@,
	movt	r0, #:upper16:.LC122	@,
	bl	create_proc_entry	@
	cmp	r0, #0	@ p.2841
	beq	.L438	@,
	str	r5, [r0, #52]	@ tmp257, <variable>.write_proc
	movw	r2, #:lower16:vfmw_read_proc_prn	@ tmp244,
	mov	r1, #420	@,
	movt	r2, #:upper16:vfmw_read_proc_prn	@ tmp244,
	str	r2, [r0, #48]	@ tmp244, <variable>.read_proc
	movw	r0, #:lower16:.LC124	@,
	mov	r2, #0	@,
	movt	r0, #:upper16:.LC124	@,
	bl	create_proc_entry	@
	cmp	r0, #0	@ p.2842
	beq	.L438	@,
	str	r5, [r0, #52]	@ tmp257, <variable>.write_proc
	movw	ip, #:lower16:vfmw_read_proc_scd	@ tmp247,
	mov	r1, #420	@,
	movt	ip, #:upper16:vfmw_read_proc_scd	@ tmp247,
	mov	r2, #0	@,
	str	ip, [r0, #48]	@ tmp247, <variable>.read_proc
	movw	r0, #:lower16:.LC123	@,
	movt	r0, #:upper16:.LC123	@,
	bl	create_proc_entry	@
	cmp	r0, #0	@ p.2843
	beq	.L438	@,
	str	r5, [r0, #52]	@ tmp257, <variable>.write_proc
	movw	lr, #:lower16:vfmw_read_proc_dec	@ tmp250,
	mov	r1, #420	@,
	movt	lr, #:upper16:vfmw_read_proc_dec	@ tmp250,
	mov	r2, #0	@,
	str	lr, [r0, #48]	@ tmp250, <variable>.read_proc
	movw	r0, #:lower16:.LC125	@,
	movt	r0, #:upper16:.LC125	@,
	bl	create_proc_entry	@
	cmp	r0, #0	@ p.2844
	beq	.L438	@,
	str	r5, [r0, #52]	@ tmp257, <variable>.write_proc
	movw	r3, #:lower16:vfmw_read_proc_chn	@ tmp253,
	movt	r3, #:upper16:vfmw_read_proc_chn	@ tmp253,
	str	r3, [r0, #48]	@ tmp253, <variable>.read_proc
	mov	r0, #0	@ D.40514,
	b	.L439	@
	.fnend
	.size	vfmw_proc_init, .-vfmw_proc_init
	.align	2
	.global	ChanCtx_Init
	.type	ChanCtx_Init, %function
ChanCtx_Init:
	.fnstart
.LFB1363:
	@ args = 0, pretend = 0, frame = 0
	@ frame_needed = 1, uses_anonymous_args = 0
	.movsp ip
	mov	ip, sp	@,
	stmfd	sp!, {r3, r4, fp, ip, lr, pc}	@,
	.pad #4
	.save {r3, r4, fp, ip, lr}
	.setfp fp, ip, #-4
	sub	fp, ip, #4	@,,
	push	{lr}
	bl	__gnu_mcount_nc
	movw	r4, #:lower16:g_ChanCtx	@ tmp133,
	movt	r4, #:upper16:g_ChanCtx	@ tmp133,
	mov	r1, #192	@,
	mov	r0, r4	@, tmp133
	bl	__memzero	@
	mvn	r3, #0	@ tmp135,
	str	r3, [r4, #124]	@ tmp135, g_ChanCtx.ChanIdTabByPrior
	str	r3, [r4, #64]	@ tmp135, g_ChanCtx.ChanIdTabByPrior
	str	r3, [r4, #68]	@ tmp135, g_ChanCtx.ChanIdTabByPrior
	str	r3, [r4, #72]	@ tmp135, g_ChanCtx.ChanIdTabByPrior
	str	r3, [r4, #76]	@ tmp135, g_ChanCtx.ChanIdTabByPrior
	str	r3, [r4, #80]	@ tmp135, g_ChanCtx.ChanIdTabByPrior
	str	r3, [r4, #84]	@ tmp135, g_ChanCtx.ChanIdTabByPrior
	str	r3, [r4, #88]	@ tmp135, g_ChanCtx.ChanIdTabByPrior
	str	r3, [r4, #92]	@ tmp135, g_ChanCtx.ChanIdTabByPrior
	str	r3, [r4, #96]	@ tmp135, g_ChanCtx.ChanIdTabByPrior
	str	r3, [r4, #100]	@ tmp135, g_ChanCtx.ChanIdTabByPrior
	str	r3, [r4, #104]	@ tmp135, g_ChanCtx.ChanIdTabByPrior
	str	r3, [r4, #108]	@ tmp135, g_ChanCtx.ChanIdTabByPrior
	str	r3, [r4, #112]	@ tmp135, g_ChanCtx.ChanIdTabByPrior
	str	r3, [r4, #116]	@ tmp135, g_ChanCtx.ChanIdTabByPrior
	str	r3, [r4, #120]	@ tmp135, g_ChanCtx.ChanIdTabByPrior
	ldmfd	sp, {r3, r4, fp, sp, pc}	@
	.fnend
	.size	ChanCtx_Init, .-ChanCtx_Init
	.align	2
	.global	VCTRL_ConfigPVRInfo
	.type	VCTRL_ConfigPVRInfo, %function
VCTRL_ConfigPVRInfo:
	.fnstart
.LFB1415:
	@ args = 0, pretend = 0, frame = 0
	@ frame_needed = 1, uses_anonymous_args = 0
	.movsp ip
	mov	ip, sp	@,
	stmfd	sp!, {r3, r4, r5, r6, fp, ip, lr, pc}	@,
	.pad #4
	.save {r3, r4, r5, r6, fp, ip, lr}
	.setfp fp, ip, #-4
	sub	fp, ip, #4	@,,
	push	{lr}
	bl	__gnu_mcount_nc
	cmp	r0, #15	@ ChanID,
	bhi	.L450	@,
	movw	r2, #:lower16:.LANCHOR0	@ tmp140,
	movt	r2, #:upper16:.LANCHOR0	@ tmp140,
	ldr	r4, [r2, r0, asl #2]	@ D.37674, s_pstVfmwChan
	ldr	r3, [r4, #12]	@ <variable>.s32IsOpen, <variable>.s32IsOpen
	cmp	r3, #1	@ <variable>.s32IsOpen,
	bne	.L451	@,
	cmp	r1, #0	@ pArgs,
	beq	.L452	@,
	mov	r5, r1	@ pArgs, pArgs
	movw	ip, #:lower16:11201048	@ tmp146,
	ldmia	r5!, {r0, r1, r2, r3}	@ pArgs,,,,
	movt	ip, #:upper16:11201048	@ tmp146,
	add	ip, r4, ip	@ tmp146, D.37674, tmp146
	mov	r6, #0	@ D.37672,
	stmia	ip!, {r0, r1, r2, r3}	@ tmp146,,,,
	ldr	r0, [r5, #0]	@ tmp150,* pArgs
	str	r0, [ip, #0]	@ tmp150, <variable>.stSynExtraData.stPvrInfo
.L446:
	mov	r0, r6	@, D.37672
	ldmfd	sp, {r3, r4, r5, r6, fp, sp, pc}	@
.L451:
	mov	r0, #0	@,
	movw	r1, #:lower16:.LC3	@,
	movw	r2, #4415	@,
	movt	r1, #:upper16:.LC3	@,
	movw	r3, #:lower16:.LC23	@,
	movt	r3, #:upper16:.LC23	@,
	bl	dprint_vfmw	@
	mvn	r6, #0	@ D.37672,
	b	.L446	@
.L450:
	mov	r0, #0	@,
	movw	r1, #:lower16:.LC3	@,
	movw	r2, #4414	@,
	movt	r1, #:upper16:.LC3	@,
	movw	r3, #:lower16:.LC2	@,
	movt	r3, #:upper16:.LC2	@,
	bl	dprint_vfmw	@
	mvn	r6, #0	@ D.37672,
	b	.L446	@
.L452:
	mov	r0, r1	@, pArgs
	mov	r2, #4416	@,
	movw	r1, #:lower16:.LC3	@,
	movw	r3, #:lower16:.LC24	@,
	movt	r1, #:upper16:.LC3	@,
	movt	r3, #:upper16:.LC24	@,
	bl	dprint_vfmw	@
	mvn	r6, #0	@ D.37672,
	b	.L446	@
	.fnend
	.size	VCTRL_ConfigPVRInfo, .-VCTRL_ConfigPVRInfo
	.align	2
	.global	VCTRL_GetChanCfg
	.type	VCTRL_GetChanCfg, %function
VCTRL_GetChanCfg:
	.fnstart
.LFB1394:
	@ args = 0, pretend = 0, frame = 0
	@ frame_needed = 1, uses_anonymous_args = 0
	.movsp ip
	mov	ip, sp	@,
	stmfd	sp!, {fp, ip, lr, pc}	@,
	.pad #4
	.save {fp, ip, lr}
	.setfp fp, ip, #-4
	sub	fp, ip, #4	@,,
	push	{lr}
	bl	__gnu_mcount_nc
	cmp	r0, #15	@ ChanID,
	bhi	.L459	@,
	cmp	r1, #0	@ pstCfg,
	beq	.L460	@,
	movw	r3, #:lower16:.LANCHOR0	@ tmp142,
	movt	r3, #:upper16:.LANCHOR0	@ tmp142,
	ldr	r3, [r3, r0, asl #2]	@ D.36595, s_pstVfmwChan
	cmp	r3, #0	@ D.36595,
	beq	.L461	@,
	mov	r0, r1	@, pstCfg
	mov	r2, #76	@,
	add	r1, r3, #36	@, D.36595,
	bl	memcpy	@
	mov	r0, #0	@ D.36591,
	ldmfd	sp, {fp, sp, pc}	@
.L459:
	mov	r0, #0	@,
	movw	r1, #:lower16:.LC3	@,
	movw	r2, #2679	@,
	movt	r1, #:upper16:.LC3	@,
	movw	r3, #:lower16:.LC2	@,
	movt	r3, #:upper16:.LC2	@,
	bl	dprint_vfmw	@
	mvn	r0, #0	@ D.36591,
	ldmfd	sp, {fp, sp, pc}	@
.L461:
	mov	r0, r3	@, D.36595
	movw	r1, #:lower16:.LC3	@,
	movw	r2, #2681	@,
	movt	r1, #:upper16:.LC3	@,
	movw	r3, #:lower16:.LC6	@,
	movt	r3, #:upper16:.LC6	@,
	bl	dprint_vfmw	@
	mvn	r0, #0	@ D.36591,
	ldmfd	sp, {fp, sp, pc}	@
.L460:
	mov	r0, r1	@, pstCfg
	movw	r2, #2680	@,
	movw	r1, #:lower16:.LC3	@,
	movw	r3, #:lower16:.LC126	@,
	movt	r1, #:upper16:.LC3	@,
	movt	r3, #:upper16:.LC126	@,
	bl	dprint_vfmw	@
	mvn	r0, #0	@ D.36591,
	ldmfd	sp, {fp, sp, pc}	@
	.fnend
	.size	VCTRL_GetChanCfg, .-VCTRL_GetChanCfg
	.align	2
	.global	VCTRL_SetDiscardPicParam
	.type	VCTRL_SetDiscardPicParam, %function
VCTRL_SetDiscardPicParam:
	.fnstart
.LFB1381:
	@ args = 0, pretend = 0, frame = 0
	@ frame_needed = 1, uses_anonymous_args = 0
	.movsp ip
	mov	ip, sp	@,
	stmfd	sp!, {r3, r4, fp, ip, lr, pc}	@,
	.pad #4
	.save {r3, r4, fp, ip, lr}
	.setfp fp, ip, #-4
	sub	fp, ip, #4	@,,
	push	{lr}
	bl	__gnu_mcount_nc
	cmp	r0, #15	@ ChanID,
	mov	r4, r0	@ ChanID, ChanID
	bhi	.L469	@,
	cmp	r1, #0	@ pArgs,
	beq	.L470	@,
	movw	r2, #:lower16:.LANCHOR0	@ tmp143,
	movt	r2, #:upper16:.LANCHOR0	@ tmp143,
	ldr	ip, [r2, r0, asl #2]	@ D.35929, s_pstVfmwChan
	cmp	ip, #0	@ D.35929,
	beq	.L471	@,
	ldmia	r1, {r0, r1}	@ pArgs,,
	movw	r3, #:lower16:11201192	@ tmp146,
	movt	r3, #:upper16:11201192	@ tmp146,
	add	r3, ip, r3	@ tmp146, D.35929, tmp146
	movw	ip, #:lower16:11201192	@ tmp147,
	movt	ip, #:upper16:11201192	@ tmp147,
	stmia	r3, {r0, r1}	@ tmp146,,
	ldr	r3, [r2, r4, asl #2]	@ temp.2962, s_pstVfmwChan
	ldr	r0, [r3, ip]	@ <variable>.stSynExtraData.stDisParams.s32Mode, <variable>.stSynExtraData.stDisParams.s32Mode
	sub	r2, r0, #1	@ tmp152, <variable>.stSynExtraData.stDisParams.s32Mode,
	mov	r0, #0	@ D.35925,
	cmp	r2, #1	@ tmp152,
	strhi	r0, [r3, ip]	@ tmp155, <variable>.stSynExtraData.stDisParams.s32Mode
	ldmfd	sp, {r3, r4, fp, sp, pc}	@
.L469:
	mov	r0, #0	@,
	movw	r1, #:lower16:.LC3	@,
	movw	r2, #1333	@,
	movt	r1, #:upper16:.LC3	@,
	movw	r3, #:lower16:.LC2	@,
	movt	r3, #:upper16:.LC2	@,
	bl	dprint_vfmw	@
	mvn	r0, #0	@ D.35925,
	ldmfd	sp, {r3, r4, fp, sp, pc}	@
.L471:
	mov	r0, ip	@, D.35929
	movw	r1, #:lower16:.LC3	@,
	movw	r2, #1335	@,
	movt	r1, #:upper16:.LC3	@,
	movw	r3, #:lower16:.LC6	@,
	movt	r3, #:upper16:.LC6	@,
	bl	dprint_vfmw	@
	mvn	r0, #0	@ D.35925,
	ldmfd	sp, {r3, r4, fp, sp, pc}	@
.L470:
	mov	r0, r1	@, pArgs
	movw	r2, #1334	@,
	movw	r1, #:lower16:.LC3	@,
	movw	r3, #:lower16:.LC127	@,
	movt	r1, #:upper16:.LC3	@,
	movt	r3, #:upper16:.LC127	@,
	bl	dprint_vfmw	@
	mvn	r0, #0	@ D.35925,
	ldmfd	sp, {r3, r4, fp, sp, pc}	@
	.fnend
	.size	VCTRL_SetDiscardPicParam, .-VCTRL_SetDiscardPicParam
	.align	2
	.global	VCTRL_SetFrameInterface
	.type	VCTRL_SetFrameInterface, %function
VCTRL_SetFrameInterface:
	.fnstart
.LFB1378:
	@ args = 0, pretend = 0, frame = 0
	@ frame_needed = 1, uses_anonymous_args = 0
	.movsp ip
	mov	ip, sp	@,
	stmfd	sp!, {fp, ip, lr, pc}	@,
	.pad #4
	.save {fp, ip, lr}
	.setfp fp, ip, #-4
	sub	fp, ip, #4	@,,
	push	{lr}
	bl	__gnu_mcount_nc
	cmp	r1, #0	@ pstFrameIntf
	beq	.L477	@,
	movw	r3, #:lower16:.LANCHOR0	@ tmp140,
	movt	r3, #:upper16:.LANCHOR0	@ tmp140,
	ldr	r3, [r3, r0, asl #2]	@ D.35885, s_pstVfmwChan
	cmp	r3, #0	@ D.35885,
	beq	.L478	@,
	ldmia	r1, {r0, r1, r2}	@ pstFrameIntf,,,
	add	r3, r3, #136	@ tmp143, D.35885,
	mov	ip, #0	@ D.35883,
	stmia	r3, {r0, r1, r2}	@ tmp143,,,
.L474:
	mov	r0, ip	@, D.35883
	ldmfd	sp, {fp, sp, pc}	@
.L478:
	mov	r0, r3	@, D.35885
	movw	r1, #:lower16:.LC3	@,
	movw	r2, #1282	@,
	movt	r1, #:upper16:.LC3	@,
	movw	r3, #:lower16:.LC6	@,
	movt	r3, #:upper16:.LC6	@,
	bl	dprint_vfmw	@
	mvn	ip, #0	@ D.35883,
	b	.L474	@
.L477:
	mov	r0, r1	@, pstFrameIntf
	movw	r2, #1281	@,
	movw	r1, #:lower16:.LC3	@,
	movw	r3, #:lower16:.LC128	@,
	movt	r1, #:upper16:.LC3	@,
	movt	r3, #:upper16:.LC128	@,
	bl	dprint_vfmw	@
	mvn	ip, #0	@ D.35883,
	b	.L474	@
	.fnend
	.size	VCTRL_SetFrameInterface, .-VCTRL_SetFrameInterface
	.align	2
	.global	VCTRL_SetStreamInterface
	.type	VCTRL_SetStreamInterface, %function
VCTRL_SetStreamInterface:
	.fnstart
.LFB1376:
	@ args = 0, pretend = 0, frame = 0
	@ frame_needed = 1, uses_anonymous_args = 0
	.movsp ip
	mov	ip, sp	@,
	stmfd	sp!, {fp, ip, lr, pc}	@,
	.pad #4
	.save {fp, ip, lr}
	.setfp fp, ip, #-4
	sub	fp, ip, #4	@,,
	push	{lr}
	bl	__gnu_mcount_nc
	cmp	r1, #0	@ pstStreamIntf
	beq	.L484	@,
	movw	r3, #:lower16:.LANCHOR0	@ tmp140,
	movt	r3, #:upper16:.LANCHOR0	@ tmp140,
	ldr	r3, [r3, r0, asl #2]	@ D.35864, s_pstVfmwChan
	cmp	r3, #0	@ D.35864,
	beq	.L485	@,
	ldmia	r1, {r0, r1, r2}	@ pstStreamIntf,,,
	add	r3, r3, #112	@ tmp143, D.35864,
	mov	ip, #0	@ D.35862,
	stmia	r3, {r0, r1, r2}	@ tmp143,,,
.L481:
	mov	r0, ip	@, D.35862
	ldmfd	sp, {fp, sp, pc}	@
.L485:
	mov	r0, r3	@, D.35864
	movw	r1, #:lower16:.LC3	@,
	movw	r2, #1257	@,
	movt	r1, #:upper16:.LC3	@,
	movw	r3, #:lower16:.LC6	@,
	movt	r3, #:upper16:.LC6	@,
	bl	dprint_vfmw	@
	mvn	ip, #0	@ D.35862,
	b	.L481	@
.L484:
	mov	r0, r1	@, pstStreamIntf
	movw	r2, #1256	@,
	movw	r1, #:lower16:.LC3	@,
	movw	r3, #:lower16:.LC128	@,
	movt	r1, #:upper16:.LC3	@,
	movt	r3, #:upper16:.LC128	@,
	bl	dprint_vfmw	@
	mvn	ip, #0	@ D.35862,
	b	.L481	@
	.fnend
	.size	VCTRL_SetStreamInterface, .-VCTRL_SetStreamInterface
	.align	2
	.global	VCTRL_GetStreamSize
	.type	VCTRL_GetStreamSize, %function
VCTRL_GetStreamSize:
	.fnstart
.LFB1380:
	@ args = 0, pretend = 0, frame = 0
	@ frame_needed = 1, uses_anonymous_args = 0
	.movsp ip
	mov	ip, sp	@,
	stmfd	sp!, {fp, ip, lr, pc}	@,
	.pad #4
	.save {fp, ip, lr}
	.setfp fp, ip, #-4
	sub	fp, ip, #4	@,,
	push	{lr}
	bl	__gnu_mcount_nc
	cmp	r0, #15	@ ChanID,
	bhi	.L492	@,
	movw	r3, #:lower16:.LANCHOR0	@ tmp140,
	movt	r3, #:upper16:.LANCHOR0	@ tmp140,
	ldr	r3, [r3, r0, asl #2]	@ D.35909, s_pstVfmwChan
	cmp	r3, #0	@ D.35909,
	beq	.L493	@,
	ldr	r2, [r3, #12]	@ <variable>.s32IsOpen, <variable>.s32IsOpen
	cmp	r2, #1	@ <variable>.s32IsOpen,
	bne	.L494	@,
	movw	r0, #:lower16:11275128	@,
	movt	r0, #:upper16:11275128	@,
	add	r0, r3, r0	@, D.35909,
	bl	GetSegStreamSize	@
	ldmfd	sp, {fp, sp, pc}	@
.L494:
	mov	r0, #0	@,
	movw	r1, #:lower16:.LC3	@,
	movw	r2, #1321	@,
	movt	r1, #:upper16:.LC3	@,
	movw	r3, #:lower16:.LC130	@,
	movt	r3, #:upper16:.LC130	@,
	bl	dprint_vfmw	@
	mvn	r0, #0	@ ret,
	ldmfd	sp, {fp, sp, pc}	@
.L492:
	mov	r0, #0	@,
	movw	r1, #:lower16:.LC3	@,
	movw	r2, #1319	@,
	movt	r1, #:upper16:.LC3	@,
	movw	r3, #:lower16:.LC2	@,
	movt	r3, #:upper16:.LC2	@,
	bl	dprint_vfmw	@
	mvn	r0, #0	@ ret,
	ldmfd	sp, {fp, sp, pc}	@
.L493:
	mov	r0, r3	@, D.35909
	movw	r1, #:lower16:.LC3	@,
	movw	r2, #1320	@,
	movt	r1, #:upper16:.LC3	@,
	movw	r3, #:lower16:.LC129	@,
	movt	r3, #:upper16:.LC129	@,
	bl	dprint_vfmw	@
	mvn	r0, #0	@ ret,
	ldmfd	sp, {fp, sp, pc}	@
	.fnend
	.size	VCTRL_GetStreamSize, .-VCTRL_GetStreamSize
	.align	2
	.global	vfmw_read_proc_scd
	.type	vfmw_read_proc_scd, %function
vfmw_read_proc_scd:
	.fnstart
.LFB1462:
	@ args = 8, pretend = 0, frame = 16
	@ frame_needed = 1, uses_anonymous_args = 0
	.movsp ip
	mov	ip, sp	@,
	stmfd	sp!, {r4, r5, r6, r7, r8, r9, sl, fp, ip, lr, pc}	@,
	.pad #4
	.save {r4, r5, r6, r7, r8, r9, sl, fp, ip, lr}
	.setfp fp, ip, #-4
	sub	fp, ip, #4	@,,
	.pad #28
	sub	sp, sp, #28	@,,
	push	{lr}
	bl	__gnu_mcount_nc
	movw	r2, #:lower16:.LC131	@,
	mov	r9, r1	@ start, start
	movt	r2, #:upper16:.LC131	@,
	mov	r1, r3	@, count
	mov	r4, r3	@ count, count
	mov	r5, r0	@ page, page
	bl	snprintf	@
	movw	r6, #:lower16:g_pSmIIS	@ tmp198,
	movt	r6, #:upper16:g_pSmIIS	@ tmp198,
	movw	r2, #:lower16:.LC132	@,
	movt	r2, #:upper16:.LC132	@,
	ldr	r3, [r6, #0]	@ g_pSmIIS, g_pSmIIS
	ldr	ip, [r3, #780]	@ <variable>.IsScdDrvOpen, <variable>.IsScdDrvOpen
	movw	r3, #:lower16:.LC133	@,
	movt	r3, #:upper16:.LC133	@,
	str	ip, [sp, #0]	@ <variable>.IsScdDrvOpen,
	mov	r8, r0	@ D.39917,
	rsb	r1, r0, r4	@, D.39917, count
	add	r0, r5, r0	@, page, D.39917
	bl	snprintf	@
	ldr	r7, [r6, #0]	@ g_pSmIIS, g_pSmIIS
	movw	r2, #:lower16:.LC132	@,
	movw	r3, #:lower16:.LC134	@,
	movt	r2, #:upper16:.LC132	@,
	movt	r3, #:upper16:.LC134	@,
	ldr	sl, [r7, #788]	@ <variable>.SCDState, <variable>.SCDState
	str	sl, [sp, #0]	@ <variable>.SCDState,
	add	r7, r0, r8	@ len.3062,, D.39917
	rsb	r1, r7, r4	@, len.3062, count
	add	r0, r5, r7	@, page, len.3062
	bl	snprintf	@
	ldr	ip, [r6, #0]	@ g_pSmIIS, g_pSmIIS
	movw	r2, #:lower16:.LC132	@,
	movw	r3, #:lower16:.LC135	@,
	movt	r2, #:upper16:.LC132	@,
	movt	r3, #:upper16:.LC135	@,
	ldr	r1, [ip, #784]	@ <variable>.ThisInstID, <variable>.ThisInstID
	str	r1, [sp, #0]	@ <variable>.ThisInstID,
	add	r7, r7, r0	@ len.3068, len.3062,
	rsb	r1, r7, r4	@, len.3068, count
	add	r0, r5, r7	@, page, len.3068
	bl	snprintf	@
	ldr	sl, [r6, #0]	@ g_pSmIIS, g_pSmIIS
	movw	r2, #:lower16:.LC132	@,
	movw	r3, #:lower16:.LC136	@,
	movt	r2, #:upper16:.LC132	@,
	movt	r3, #:upper16:.LC136	@,
	ldr	r8, [sl, #792]	@ <variable>.LastProcessTime, <variable>.LastProcessTime
	str	r8, [sp, #0]	@ <variable>.LastProcessTime,
	add	sl, r7, r0	@ len.3074, len.3068,
	rsb	r1, sl, r4	@, len.3074, count
	add	r0, r5, sl	@, page, len.3074
	bl	snprintf	@
	ldr	ip, [r6, #0]	@ g_pSmIIS, g_pSmIIS
	movw	r2, #:lower16:.LC137	@,
	movw	r3, #:lower16:.LC138	@,
	movt	r2, #:upper16:.LC137	@,
	movt	r3, #:upper16:.LC138	@,
	ldr	r1, [ip, #0]	@ <variable>.ScdDrvMem.HwMemAddr, <variable>.ScdDrvMem.HwMemAddr
	str	r1, [sp, #0]	@ <variable>.ScdDrvMem.HwMemAddr,
	add	r7, sl, r0	@ len.3080, len.3074,
	rsb	r1, r7, r4	@, len.3080, count
	add	r0, r5, r7	@, page, len.3080
	bl	snprintf	@
	ldr	r8, [r6, #0]	@ g_pSmIIS, g_pSmIIS
	movw	r2, #:lower16:.LC132	@,
	movw	r3, #:lower16:.LC139	@,
	movt	r2, #:upper16:.LC132	@,
	movt	r3, #:upper16:.LC139	@,
	ldr	ip, [r8, #4]	@ <variable>.ScdDrvMem.HwMemSize, <variable>.ScdDrvMem.HwMemSize
	str	ip, [sp, #0]	@ <variable>.ScdDrvMem.HwMemSize,
	add	r8, r7, r0	@ len.3086, len.3080,
	rsb	r1, r8, r4	@, len.3086, count
	add	r0, r5, r8	@, page, len.3086
	bl	snprintf	@
	ldr	sl, [r6, #0]	@ g_pSmIIS, g_pSmIIS
	movw	r2, #:lower16:.LC137	@,
	movw	r3, #:lower16:.LC140	@,
	movt	r2, #:upper16:.LC137	@,
	movt	r3, #:upper16:.LC140	@,
	ldr	r1, [sl, #8]	@ <variable>.ScdDrvMem.DownMsgMemAddr, <variable>.ScdDrvMem.DownMsgMemAddr
	str	r1, [sp, #0]	@ <variable>.ScdDrvMem.DownMsgMemAddr,
	add	r7, r8, r0	@ len.3092, len.3086,
	rsb	r1, r7, r4	@, len.3092, count
	add	r0, r5, r7	@, page, len.3092
	bl	snprintf	@
	ldr	ip, [r6, #0]	@ g_pSmIIS, g_pSmIIS
	movw	r2, #:lower16:.LC137	@,
	movw	r3, #:lower16:.LC141	@,
	movt	r2, #:upper16:.LC137	@,
	movt	r3, #:upper16:.LC141	@,
	ldr	sl, [ip, #20]	@ <variable>.ScdDrvMem.UpMsgMemAddr, <variable>.ScdDrvMem.UpMsgMemAddr
	str	sl, [sp, #0]	@ <variable>.ScdDrvMem.UpMsgMemAddr,
	add	r8, r7, r0	@ len.3098, len.3092,
	rsb	r1, r8, r4	@, len.3098, count
	add	r0, r5, r8	@, page, len.3098
	bl	snprintf	@
	movw	r1, #:lower16:.LANCHOR0	@ tmp249,
	movt	r1, #:upper16:.LANCHOR0	@ tmp249,
	ldr	r2, [r6, #0]	@ g_pSmIIS, g_pSmIIS
	ldr	sl, [r1, #180]	@ i, g_CurProcChan
	add	r3, r2, sl, asl #2	@, tmp255, g_pSmIIS, i,
	ldr	r7, [r3, #652]	@ pInst, <variable>.pSmInstArray
	cmp	r7, #0	@ pInst,
	add	r8, r8, r0	@ len, len.3098,
	beq	.L496	@,
	movw	lr, #:lower16:166252	@ tmp257,
	movt	lr, #:upper16:166252	@ tmp257,
	ldr	r0, [r7, lr]	@ <variable>.Mode, <variable>.Mode
	cmp	r0, #0	@ <variable>.Mode,
	bne	.L502	@,
.L496:
	mov	r0, r8	@, len
	sub	sp, fp, #40
	ldmfd	sp, {r4, r5, r6, r7, r8, r9, sl, fp, sp, pc}
.L502:
	add	r6, r7, #168	@ D.39941, pInst,
	sub	r1, fp, #52	@,,
	mov	r0, r6	@, D.39941
	bl	GetRawStreamSize	@
	cmp	r0, #0	@,
	bne	.L503	@,
	mov	r0, r6	@, D.39941
	sub	r1, fp, #48	@,,
	bl	GetRawStreamNum	@
	cmp	r0, #0	@,
	bne	.L504	@,
.L498:
	add	r6, r7, #73728	@ D.39949, pInst,
	sub	r1, fp, #60	@,,
	add	r6, r6, #192	@ D.39949, D.39949,
	mov	r0, r6	@, D.39949
	bl	GetSegStreamSize	@
	cmp	r0, #0	@,
	bne	.L505	@,
.L499:
	mov	r0, r6	@, D.39949
	sub	r1, fp, #56	@,,
	bl	GetSegStreamNum	@
	cmp	r0, #0	@,
	bne	.L506	@,
.L500:
	rsb	r1, r8, r4	@, len, count
	mov	r3, sl	@, i
	add	r0, r5, r8	@, page, len
	movw	r2, #:lower16:.LC143	@,
	movt	r2, #:upper16:.LC143	@,
	bl	snprintf	@
	movw	ip, #:lower16:166252	@ tmp283,
	movt	ip, #:upper16:166252	@ tmp283,
	movw	r2, #:lower16:.LC132	@,
	movw	r3, #:lower16:.LC144	@,
	movt	r2, #:upper16:.LC132	@,
	ldr	r1, [r7, ip]	@ <variable>.Mode, <variable>.Mode
	movt	r3, #:upper16:.LC144	@,
	str	r1, [sp, #0]	@ <variable>.Mode,
	add	r8, r0, r8	@ len.3115,, len
	rsb	r1, r8, r4	@, len.3115, count
	add	r0, r5, r8	@, page, len.3115
	bl	snprintf	@
	ldr	ip, [r7, #56]	@ <variable>.Config.VidStd, <variable>.Config.VidStd
	movw	r2, #:lower16:.LC132	@,
	movw	r3, #:lower16:.LC145	@,
	movt	r2, #:upper16:.LC132	@,
	movt	r3, #:upper16:.LC145	@,
	str	ip, [sp, #0]	@ <variable>.Config.VidStd,
	add	r8, r8, r0	@ len.3121, len.3115,
	rsb	r1, r8, r4	@, len.3121, count
	add	r0, r5, r8	@, page, len.3121
	bl	snprintf	@
	ldrsb	r1, [r7, #1]	@ <variable>.IsCounting, <variable>.IsCounting
	movw	r2, #:lower16:.LC132	@,
	movw	r3, #:lower16:.LC146	@,
	movt	r2, #:upper16:.LC132	@,
	movt	r3, #:upper16:.LC146	@,
	str	r1, [sp, #0]	@ <variable>.IsCounting,
	add	r8, r8, r0	@ len.3126, len.3121,
	rsb	r1, r8, r4	@, len.3126, count
	add	r0, r5, r8	@, page, len.3126
	bl	snprintf	@
	ldr	ip, [r7, #60]	@ <variable>.Config.BufPhyAddr, <variable>.Config.BufPhyAddr
	movw	r2, #:lower16:.LC137	@,
	movw	r3, #:lower16:.LC147	@,
	movt	r2, #:upper16:.LC137	@,
	movt	r3, #:upper16:.LC147	@,
	str	ip, [sp, #0]	@ <variable>.Config.BufPhyAddr,
	add	r8, r8, r0	@ len.3131, len.3126,
	rsb	r1, r8, r4	@, len.3131, count
	add	r0, r5, r8	@, page, len.3131
	bl	snprintf	@
	ldr	r1, [r7, #64]	@ <variable>.Config.BufSize, <variable>.Config.BufSize
	movw	r2, #:lower16:.LC132	@,
	movw	r3, #:lower16:.LC148	@,
	movt	r2, #:upper16:.LC132	@,
	movt	r3, #:upper16:.LC148	@,
	str	r1, [sp, #0]	@ <variable>.Config.BufSize,
	add	r8, r8, r0	@ len.3136, len.3131,
	rsb	r1, r8, r4	@, len.3136, count
	add	r0, r5, r8	@, page, len.3136
	bl	snprintf	@
	ldr	ip, [fp, #-52]	@ RawSize, RawSize
	movw	r2, #:lower16:.LC132	@,
	movw	r3, #:lower16:.LC149	@,
	movt	r2, #:upper16:.LC132	@,
	movt	r3, #:upper16:.LC149	@,
	str	ip, [sp, #0]	@ RawSize,
	add	r8, r8, r0	@ len.3141, len.3136,
	rsb	r1, r8, r4	@, len.3141, count
	add	r0, r5, r8	@, page, len.3141
	bl	snprintf	@
	ldr	r1, [fp, #-48]	@ RawNum, RawNum
	movw	r2, #:lower16:.LC132	@,
	movw	r3, #:lower16:.LC150	@,
	movt	r2, #:upper16:.LC132	@,
	movt	r3, #:upper16:.LC150	@,
	str	r1, [sp, #0]	@ RawNum,
	add	r8, r8, r0	@ len.3146, len.3141,
	rsb	r1, r8, r4	@, len.3146, count
	add	r0, r5, r8	@, page, len.3146
	bl	snprintf	@
	ldr	ip, [fp, #-60]	@ SegSize, SegSize
	movw	r2, #:lower16:.LC132	@,
	movw	r3, #:lower16:.LC151	@,
	movt	r2, #:upper16:.LC132	@,
	movt	r3, #:upper16:.LC151	@,
	str	ip, [sp, #0]	@ SegSize,
	add	r8, r8, r0	@ len.3151, len.3146,
	rsb	r1, r8, r4	@, len.3151, count
	add	r0, r5, r8	@, page, len.3151
	bl	snprintf	@
	ldr	r1, [fp, #-56]	@ SegNum, SegNum
	movw	r2, #:lower16:.LC132	@,
	movw	r3, #:lower16:.LC152	@,
	movt	r2, #:upper16:.LC132	@,
	movt	r3, #:upper16:.LC152	@,
	str	r1, [sp, #0]	@ SegNum,
	add	r8, r8, r0	@ len.3156, len.3151,
	rsb	r1, r8, r4	@, len.3156, count
	add	r0, r5, r8	@, page, len.3156
	bl	snprintf	@
	movw	ip, #:lower16:166112	@ tmp329,
	movt	ip, #:upper16:166112	@ tmp329,
	movw	r2, #:lower16:.LC137	@,
	movw	r3, #:lower16:.LC153	@,
	movt	r2, #:upper16:.LC137	@,
	ldr	r1, [r7, ip]	@ <variable>.StreamSegArray.SegBufReadAddr, <variable>.StreamSegArray.SegBufReadAddr
	movt	r3, #:upper16:.LC153	@,
	str	r1, [sp, #0]	@ <variable>.StreamSegArray.SegBufReadAddr,
	add	r8, r8, r0	@ len.3161, len.3156,
	rsb	r1, r8, r4	@, len.3161, count
	add	r0, r5, r8	@, page, len.3161
	bl	snprintf	@
	movw	ip, #:lower16:166116	@ tmp335,
	movt	ip, #:upper16:166116	@ tmp335,
	movw	r2, #:lower16:.LC137	@,
	movw	r3, #:lower16:.LC154	@,
	movt	r2, #:upper16:.LC137	@,
	ldr	r1, [r7, ip]	@ <variable>.StreamSegArray.SegBufWriteAddr, <variable>.StreamSegArray.SegBufWriteAddr
	movt	r3, #:upper16:.LC154	@,
	str	r1, [sp, #0]	@ <variable>.StreamSegArray.SegBufWriteAddr,
	add	r8, r8, r0	@ len.3166, len.3161,
	rsb	r1, r8, r4	@, len.3166, count
	add	r0, r5, r8	@, page, len.3166
	bl	snprintf	@
	movw	ip, #:lower16:180112	@ tmp341,
	movt	ip, #:upper16:180112	@ tmp341,
	movw	r2, #:lower16:.LC155	@,
	movw	r3, #:lower16:.LC156	@,
	movt	r2, #:upper16:.LC155	@,
	ldr	r1, [r7, ip]	@ <variable>.BitRate, <variable>.BitRate
	movt	r3, #:upper16:.LC156	@,
	str	r1, [sp, #0]	@ <variable>.BitRate,
	add	r8, r8, r0	@ len.3171, len.3166,
	rsb	r1, r8, r4	@, len.3171, count
	add	r0, r5, r8	@, page, len.3171
	bl	snprintf	@
	movw	r2, #:lower16:.LC44	@,
	movt	r2, #:upper16:.LC44	@,
	add	r8, r8, r0	@ len.3176, len.3171,
	rsb	r1, r8, r4	@, len.3176, count
	add	r0, r5, r8	@, page, len.3176
	bl	snprintf	@
	mov	ip, #0	@ tmp346,
	str	ip, [r9, #0]	@ tmp346,* start
	mov	r2, #1	@ tmp347,
	ldr	r1, [fp, #4]	@ eof, eof
	str	r2, [r1, #0]	@ tmp347,* eof
	add	r8, r8, r0	@ len, len.3176,
	b	.L496	@
.L503:
	ldr	r2, .L507	@,
	movw	r3, #7858	@,
	movw	r1, #:lower16:.LC142	@,
	mov	r0, #22	@,
	movt	r1, #:upper16:.LC142	@,
	bl	dprint_vfmw	@
	mov	r0, r6	@, D.39941
	sub	r1, fp, #48	@,,
	bl	GetRawStreamNum	@
	cmp	r0, #0	@,
	beq	.L498	@,
.L504:
	add	r6, r7, #73728	@ D.39949, pInst,
	ldr	r2, .L507	@,
	add	r6, r6, #192	@ D.39949, D.39949,
	movw	r3, #7863	@,
	movw	r1, #:lower16:.LC142	@,
	mov	r0, #22	@,
	movt	r1, #:upper16:.LC142	@,
	bl	dprint_vfmw	@
	sub	r1, fp, #60	@,,
	mov	r0, r6	@, D.39949
	bl	GetSegStreamSize	@
	cmp	r0, #0	@,
	beq	.L499	@,
.L505:
	ldr	r2, .L507	@,
	movw	r3, #7868	@,
	movw	r1, #:lower16:.LC142	@,
	mov	r0, #22	@,
	movt	r1, #:upper16:.LC142	@,
	bl	dprint_vfmw	@
	mov	r0, r6	@, D.39949
	sub	r1, fp, #56	@,,
	bl	GetSegStreamNum	@
	cmp	r0, #0	@,
	beq	.L500	@,
.L506:
	movw	r1, #:lower16:.LC142	@,
	ldr	r2, .L507	@,
	movt	r1, #:upper16:.LC142	@,
	movw	r3, #7873	@,
	mov	r0, #22	@,
	bl	dprint_vfmw	@
	b	.L500	@
.L508:
	.align	2
.L507:
	.word	.LANCHOR1+32
	.fnend
	.size	vfmw_read_proc_scd, .-vfmw_read_proc_scd
	.global	__aeabi_idiv
	.align	2
	.global	vfmw_read_proc_info
	.type	vfmw_read_proc_info, %function
vfmw_read_proc_info:
	.fnstart
.LFB1458:
	@ args = 8, pretend = 0, frame = 24
	@ frame_needed = 1, uses_anonymous_args = 0
	.movsp ip
	mov	ip, sp	@,
	stmfd	sp!, {r4, r5, r6, r7, r8, r9, sl, fp, ip, lr, pc}	@,
	.pad #4
	.save {r4, r5, r6, r7, r8, r9, sl, fp, ip, lr}
	.setfp fp, ip, #-4
	sub	fp, ip, #4	@,,
	.pad #44
	sub	sp, sp, #44	@,,
	push	{lr}
	bl	__gnu_mcount_nc
	movw	r4, #:lower16:g_pSmIIS	@ tmp195,
	movt	r4, #:upper16:g_pSmIIS	@ tmp195,
	movw	r7, #:lower16:.LANCHOR0	@ tmp321,
	movt	r7, #:upper16:.LANCHOR0	@ tmp321,
	str	r1, [fp, #-64]	@ start, %sfp
	ldr	ip, [r4, #0]	@ g_pSmIIS, g_pSmIIS
	movw	r2, #:lower16:s_pFspInst	@ tmp193,
	ldr	r9, [r7, #180]	@ chanID, g_CurProcChan
	movt	r2, #:upper16:s_pFspInst	@ tmp193,
	mov	r4, r0	@ page, page
	mov	r5, r3	@ count, count
	ldr	sl, [ip, #652]	@ pInst, <variable>.pSmInstArray
	ldr	r8, [r2, r9, asl #2]	@ pFsp, s_pFspInst
	cmp	sl, #0	@ pInst,
	beq	.L510	@,
	movw	r0, #:lower16:166252	@ tmp196,
	movt	r0, #:upper16:166252	@ tmp196,
	ldr	r3, [sl, r0]	@ <variable>.Mode, <variable>.Mode
	cmp	r3, #0	@ <variable>.Mode,
	bne	.L538	@,
.L510:
	mov	r0, #0	@ len,
.L520:
	sub	sp, fp, #40
	ldmfd	sp, {r4, r5, r6, r7, r8, r9, sl, fp, sp, pc}
.L538:
	add	r6, sl, #168	@ D.39684, pInst,
	sub	r1, fp, #52	@,,
	mov	r0, r6	@, D.39684
	bl	GetRawStreamSize	@
	cmp	r0, #0	@,
	bne	.L539	@,
	mov	r0, r6	@, D.39684
	sub	r1, fp, #48	@,,
	bl	GetRawStreamNum	@
	cmp	r0, #0	@,
	bne	.L540	@,
.L512:
	add	r6, sl, #73728	@ D.39692, pInst,
	sub	r1, fp, #60	@,,
	add	r6, r6, #192	@ D.39692, D.39692,
	mov	r0, r6	@, D.39692
	bl	GetSegStreamSize	@
	cmp	r0, #0	@,
	bne	.L541	@,
.L513:
	mov	r0, r6	@, D.39692
	sub	r1, fp, #56	@,,
	bl	GetSegStreamNum	@
	cmp	r0, #0	@,
	bne	.L542	@,
.L514:
	movw	ip, #:lower16:166108	@ tmp215,
	movt	ip, #:upper16:166108	@ tmp215,
	mov	r1, r5	@, count
	mov	r3, r9	@, chanID
	ldr	lr, [sl, ip]	@, <variable>.StreamSegArray.SegBufSize
	mov	r0, r4	@, page
	movw	r2, #:lower16:.LC157	@,
	movt	r2, #:upper16:.LC157	@,
	movw	sl, #:lower16:2013092600	@ tmp221,
	movt	sl, #:upper16:2013092600	@ tmp221,
	str	lr, [fp, #-68]	@, %sfp
	bl	snprintf	@
	movw	r2, #:lower16:.LC158	@,
	movw	r3, #:lower16:.LC159	@,
	movt	r2, #:upper16:.LC158	@,
	movt	r3, #:upper16:.LC159	@,
	str	sl, [sp, #0]	@ tmp221,
	movw	sl, #:lower16:-858993459	@ tmp261,
	movt	sl, #:upper16:-858993459	@ tmp261,
	rsb	r1, r0, r5	@, D.39703, count
	mov	r6, r0	@ D.39703,
	add	r0, r4, r0	@, page, D.39703
	bl	snprintf	@
	movw	r2, #:lower16:.LC158	@,
	movw	r3, #:lower16:.LC160	@,
	movt	r2, #:upper16:.LC158	@,
	movt	r3, #:upper16:.LC160	@,
	str	r9, [sp, #0]	@ chanID,
	add	r6, r0, r6	@ len.3221,, D.39703
	rsb	r1, r6, r5	@, len.3221, count
	add	r0, r4, r6	@, page, len.3221
	bl	snprintf	@
	movw	r2, #:lower16:.LC161	@,
	movt	r2, #:upper16:.LC161	@,
	add	r6, r6, r0	@ len.3226, len.3221,
	rsb	r1, r6, r5	@, len.3226, count
	add	r0, r4, r6	@, page, len.3226
	bl	snprintf	@
	ldr	r1, [fp, #-48]	@ RawNum, RawNum
	ldr	ip, [fp, #-52]	@ RawSize, RawSize
	movw	r2, #:lower16:.LC162	@,
	movw	r3, #:lower16:.LC163	@,
	movt	r2, #:upper16:.LC162	@,
	movt	r3, #:upper16:.LC163	@,
	str	r1, [sp, #4]	@ RawNum,
	str	ip, [sp, #0]	@ RawSize,
	add	r6, r6, r0	@ len.3231, len.3226,
	rsb	r1, r6, r5	@, len.3231, count
	add	r0, r4, r6	@, page, len.3231
	bl	snprintf	@
	ldr	r1, [fp, #-56]	@ SegNum, SegNum
	ldr	ip, [fp, #-60]	@ SegSize, SegSize
	movw	r2, #:lower16:.LC162	@,
	movw	r3, #:lower16:.LC164	@,
	movt	r2, #:upper16:.LC162	@,
	movt	r3, #:upper16:.LC164	@,
	str	r1, [sp, #4]	@ SegNum,
	str	ip, [sp, #0]	@ SegSize,
	add	r6, r6, r0	@ len.3236, len.3231,
	rsb	r1, r6, r5	@, len.3236, count
	add	r0, r4, r6	@, page, len.3236
	bl	snprintf	@
	ldr	r3, [fp, #-60]	@ SegSize.3246, SegSize
	ldr	r1, [fp, #-68]	@, %sfp
	mov	r2, #100	@ tmp246,
	stmia	sp, {r1, r3}	@ phole stm
	add	r6, r6, r0	@ len.3241, len.3236,
	mul	r0, r2, r3	@, tmp246, SegSize.3246
	bl	__aeabi_idiv	@
	add	ip, r4, r6	@ tmp241, page, len.3241
	rsb	r1, r6, r5	@ tmp242, len.3241, count
	movw	r2, #:lower16:.LC165	@,
	movw	r3, #:lower16:.LC166	@,
	movt	r2, #:upper16:.LC165	@,
	movt	r3, #:upper16:.LC166	@,
	str	r0, [sp, #8]	@,
	mov	r0, ip	@, tmp241
	bl	snprintf	@
	movw	r2, #:lower16:.LC167	@,
	movt	r2, #:upper16:.LC167	@,
	add	r6, r6, r0	@ len.3247, len.3241,
	rsb	r1, r6, r5	@, len.3247, count
	add	r0, r4, r6	@, page, len.3247
	bl	snprintf	@
	ldr	ip, [r7, #120]	@ D.39719, <variable>.u32VaVdmLoad
	movw	r2, #:lower16:.LC168	@,
	movw	r3, #:lower16:.LC169	@,
	movt	r2, #:upper16:.LC168	@,
	movt	r3, #:upper16:.LC169	@,
	umull	lr, r1, sl, ip	@, tmp260, tmp261, D.39719
	mov	lr, r1, lsr #3	@ tmp259, tmp260,
	str	lr, [sp, #0]	@ tmp259,
	add	r1, lr, lr, asl #2	@, tmp267, tmp259, tmp259,
	sub	lr, ip, r1, asl #1	@ tmp269, D.39719, tmp267,
	str	lr, [sp, #4]	@ tmp269,
	add	r6, r6, r0	@ len.3252, len.3247,
	rsb	r1, r6, r5	@, len.3252, count
	add	r0, r4, r6	@, page, len.3252
	bl	snprintf	@
	ldr	ip, [r8, #56]	@ <variable>.stInstCfg.s32DecFsWidth, <variable>.stInstCfg.s32DecFsWidth
	movw	r2, #:lower16:.LC170	@,
	movw	r3, #:lower16:.LC171	@,
	movt	r2, #:upper16:.LC170	@,
	movt	r3, #:upper16:.LC171	@,
	str	ip, [sp, #0]	@ <variable>.stInstCfg.s32DecFsWidth,
	ldr	r1, [r8, #60]	@ <variable>.stInstCfg.s32DecFsHeight, <variable>.stInstCfg.s32DecFsHeight
	str	r1, [sp, #4]	@ <variable>.stInstCfg.s32DecFsHeight,
	add	r6, r6, r0	@ len.3258, len.3252,
	rsb	r1, r6, r5	@, len.3258, count
	add	r0, r4, r6	@, page, len.3258
	bl	snprintf	@
	ldr	ip, [r8, #72]	@ <variable>.stInstCfg.s32DispFsWidth, <variable>.stInstCfg.s32DispFsWidth
	movw	r2, #:lower16:.LC170	@,
	movw	r3, #:lower16:.LC172	@,
	movt	r2, #:upper16:.LC170	@,
	movt	r3, #:upper16:.LC172	@,
	str	ip, [sp, #0]	@ <variable>.stInstCfg.s32DispFsWidth,
	ldr	r1, [r8, #76]	@ <variable>.stInstCfg.s32DispFsHeight, <variable>.stInstCfg.s32DispFsHeight
	str	r1, [sp, #4]	@ <variable>.stInstCfg.s32DispFsHeight,
	add	r6, r6, r0	@ len.3263, len.3258,
	rsb	r1, r6, r5	@, len.3263, count
	add	r0, r4, r6	@, page, len.3263
	bl	snprintf	@
	ldr	r1, [r7, #192]	@ D.39735, <variable>.u32FrFrameRate
	movw	r2, #:lower16:.LC173	@,
	movw	r3, #:lower16:.LC174	@,
	movt	r2, #:upper16:.LC173	@,
	movt	r3, #:upper16:.LC174	@,
	umull	lr, r7, sl, r1	@, tmp288, tmp261, D.39735
	mov	ip, r7, lsr #3	@ tmp287, tmp288,
	str	ip, [sp, #0]	@ tmp287,
	add	lr, ip, ip, asl #2	@, tmp295, tmp287, tmp287,
	sub	r1, r1, lr, asl #1	@ tmp297, D.39735, tmp295,
	str	r1, [sp, #4]	@ tmp297,
	add	r7, r6, r0	@ len.3268, len.3263,
	add	r0, r4, r7	@, page, len.3268
	rsb	r1, r7, r5	@, len.3268, count
	bl	snprintf	@
	ldrsb	r2, [r8, #21]	@ D.39746, <variable>.s32DecFsNum
	cmp	r2, #0	@ D.39746,
	add	r6, r7, r0	@ len.3273, len.3268,
	movle	r0, #0	@ prephitmp.3196,
	movle	r3, r0	@ usedFrameNum, prephitmp.3196
	ble	.L516	@,
	add	r1, r8, #31744	@ ivtmp.3210, pFsp,
	add	r7, r2, r2, asl #1	@, tmp302, D.39746, D.39746,
	mov	r3, #0	@ usedFrameNum,
	ldrsb	lr, [r1, #130]!	@ <variable>.DispState, <variable>.DispState
	mov	r7, r7, asl #4	@ D.43177, tmp302,
	sub	r0, r7, #48	@ tmp325, D.43177,
	cmp	lr, #3	@ <variable>.DispState,
	ubfx	ip, r0, #4, #1	@ tmp329, tmp325,,
	beq	.L523	@,
	ldrsb	r0, [r1, #-2]	@ <variable>.IsDecRef, <variable>.IsDecRef
	cmp	r0, #1	@ <variable>.IsDecRef,
	beq	.L523	@,
.L524:
	mov	r0, #48	@ ivtmp.3211,
	cmp	r0, r7	@ ivtmp.3211, D.43177
	add	r1, r1, r0	@ ivtmp.3210, ivtmp.3210,
	beq	.L536	@,
	cmp	ip, #0	@ tmp329,
	beq	.L519	@,
	ldrsb	lr, [r1, #0]	@ <variable>.DispState, <variable>.DispState
	cmp	lr, #3	@ <variable>.DispState,
	beq	.L526	@,
	ldrsb	ip, [r1, #-2]	@ <variable>.IsDecRef, <variable>.IsDecRef
	cmp	ip, #1	@ <variable>.IsDecRef,
	beq	.L526	@,
	add	r0, r0, #48	@ ivtmp.3211, ivtmp.3211,
	add	r1, r1, #48	@ ivtmp.3210, ivtmp.3210,
	cmp	r0, r7	@ ivtmp.3211, D.43177
	bne	.L519	@,
.L536:
	mov	ip, #100	@ tmp306,
	mul	r0, ip, r3	@ prephitmp.3196, tmp306, usedFrameNum
.L516:
	mov	r1, r2	@, D.39746
	stmia	sp, {r2, r3}	@ phole stm
	bl	__aeabi_idiv	@
	add	r7, r4, r6	@ tmp307, page, len.3273
	rsb	r1, r6, r5	@ tmp308, len.3273, count
	movw	r2, #:lower16:.LC165	@,
	movw	r3, #:lower16:.LC175	@,
	movt	r2, #:upper16:.LC165	@,
	movt	r3, #:upper16:.LC175	@,
	str	r0, [sp, #8]	@,
	mov	r0, r7	@, tmp307
	bl	snprintf	@
	movw	r2, #:lower16:.LC176	@,
	movt	r2, #:upper16:.LC176	@,
	add	r6, r0, r6	@ len.3278,, len.3273
	rsb	r1, r6, r5	@, len.3278, count
	add	r0, r4, r6	@, page, len.3278
	bl	snprintf	@
	ldr	r1, [fp, #-64]	@, %sfp
	mov	ip, #0	@ tmp318,
	mov	r2, #1	@ tmp319,
	str	ip, [r1, #0]	@ tmp318,
	ldr	r3, [fp, #4]	@ eof, eof
	str	r2, [r3, #0]	@ tmp319,* eof
	add	r0, r6, r0	@ len, len.3278,
	b	.L520	@
.L543:
	ldrsb	lr, [r1, #-2]	@ <variable>.IsDecRef, <variable>.IsDecRef
	cmp	lr, #1	@ <variable>.IsDecRef,
	beq	.L517	@,
	ldrsb	r1, [r1, #48]	@ <variable>.DispState, <variable>.DispState
	cmp	r1, #3	@ <variable>.DispState,
	beq	.L530	@,
.L535:
	ldrsb	r1, [ip, #-2]	@ <variable>.IsDecRef, <variable>.IsDecRef
	cmp	r1, #1	@ <variable>.IsDecRef,
	beq	.L530	@,
.L531:
	add	r0, r0, #48	@ ivtmp.3211, tmp331,
	add	r1, ip, #48	@ ivtmp.3210, tmp330,
	cmp	r0, r7	@ ivtmp.3211, D.43177
	beq	.L536	@,
.L519:
	ldrsb	lr, [r1, #0]	@ <variable>.DispState, <variable>.DispState
	add	r0, r0, #48	@ tmp331, ivtmp.3211,
	add	ip, r1, #48	@ tmp330, ivtmp.3210,
	cmp	lr, #3	@ <variable>.DispState,
	bne	.L543	@,
.L517:
	ldrsb	r1, [r1, #48]	@ <variable>.DispState, <variable>.DispState
	add	r3, r3, #1	@ usedFrameNum, usedFrameNum,
	cmp	r1, #3	@ <variable>.DispState,
	bne	.L535	@,
.L530:
	add	r3, r3, #1	@ usedFrameNum, usedFrameNum,
	b	.L531	@
.L523:
	mov	r3, #1	@ usedFrameNum,
	b	.L524	@
.L526:
	add	r0, r0, #48	@ ivtmp.3211, ivtmp.3211,
	add	r3, r3, #1	@ usedFrameNum, usedFrameNum,
	cmp	r0, r7	@ ivtmp.3211, D.43177
	add	r1, r1, #48	@ ivtmp.3210, ivtmp.3210,
	bne	.L519	@,
	b	.L536	@
.L542:
	movw	r1, #:lower16:.LC142	@,
	ldr	r2, .L544	@,
	movt	r1, #:upper16:.LC142	@,
	movw	r3, #7605	@,
	mov	r0, #0	@,
	bl	dprint_vfmw	@
	b	.L514	@
.L539:
	ldr	r2, .L544	@,
	movw	r3, #7590	@,
	movw	r1, #:lower16:.LC142	@,
	mov	r0, #0	@,
	movt	r1, #:upper16:.LC142	@,
	bl	dprint_vfmw	@
	mov	r0, r6	@, D.39684
	sub	r1, fp, #48	@,,
	bl	GetRawStreamNum	@
	cmp	r0, #0	@,
	beq	.L512	@,
.L540:
	add	r6, sl, #73728	@ D.39692, pInst,
	ldr	r2, .L544	@,
	add	r6, r6, #192	@ D.39692, D.39692,
	movw	r3, #7595	@,
	movw	r1, #:lower16:.LC142	@,
	mov	r0, #0	@,
	movt	r1, #:upper16:.LC142	@,
	bl	dprint_vfmw	@
	sub	r1, fp, #60	@,,
	mov	r0, r6	@, D.39692
	bl	GetSegStreamSize	@
	cmp	r0, #0	@,
	beq	.L513	@,
.L541:
	movw	r1, #:lower16:.LC142	@,
	ldr	r2, .L544	@,
	movt	r1, #:upper16:.LC142	@,
	movw	r3, #7600	@,
	mov	r0, #0	@,
	bl	dprint_vfmw	@
	b	.L513	@
.L545:
	.align	2
.L544:
	.word	.LANCHOR1+52
	.fnend
	.size	vfmw_read_proc_info, .-vfmw_read_proc_info
	.align	2
	.global	VCTRL_OutputLastFrame
	.type	VCTRL_OutputLastFrame, %function
VCTRL_OutputLastFrame:
	.fnstart
.LFB1453:
	@ args = 0, pretend = 0, frame = 8
	@ frame_needed = 1, uses_anonymous_args = 0
	.movsp ip
	mov	ip, sp	@,
	stmfd	sp!, {r4, r5, r6, fp, ip, lr, pc}	@,
	.pad #4
	.save {r4, r5, r6, fp, ip, lr}
	.setfp fp, ip, #-4
	sub	fp, ip, #4	@,,
	.pad #12
	sub	sp, sp, #12	@,,
	push	{lr}
	bl	__gnu_mcount_nc
	movw	r5, #:lower16:.LANCHOR0	@ tmp178,
	movt	r5, #:upper16:.LANCHOR0	@ tmp178,
	mov	r6, r0	@ ChanId, ChanId
	ldr	r0, [r5, r0, asl #2]	@ D.39565, s_pstVfmwChan
	ldr	r3, [r0, #944]	@ <variable>.stSynCtx.eVidStd, <variable>.stSynCtx.eVidStd
	cmp	r3, #15	@ <variable>.stSynCtx.eVidStd,
	ldrls	pc, [pc, r3, asl #2]	@ <variable>.stSynCtx.eVidStd
	b	.L547	@
.L559:
	.word	.L548
	.word	.L549
	.word	.L550
	.word	.L551
	.word	.L547
	.word	.L552
	.word	.L553
	.word	.L547
	.word	.L554
	.word	.L555
	.word	.L556
	.word	.L556
	.word	.L556
	.word	.L557
	.word	.L547
	.word	.L558
.L558:
	add	r0, r0, #952	@, D.39565,
	bl	MVC_DEC_GetRemainImg	@
	mov	r4, r0	@ ret,
.L560:
	cmn	r4, #1	@ ret,
	beq	.L562	@,
	cmp	r4, #0	@ ret,
	bne	.L573	@,
	ldr	r3, [r5, #68]	@ g_event_report.3306, g_event_report
	cmp	r3, #0	@ g_event_report.3306,
	beq	.L566	@,
	sub	r2, fp, #28	@ tmp160,,
	mov	r0, r6	@, ChanId
	mov	r1, #115	@,
	str	r4, [r2, #-4]!	@ ret, para
	blx	r3	@ g_event_report.3306
.L566:
	movw	r1, #:lower16:.LC178	@,
	mov	r0, #2	@,
	movt	r1, #:upper16:.LC178	@,
	bl	dprint_vfmw	@
.L565:
	mov	r0, r4	@, ret
	sub	sp, fp, #24
	ldmfd	sp, {r4, r5, r6, fp, sp, pc}
.L547:
	mvn	r4, #0	@ ret,
.L562:
	ldr	r3, [r5, #68]	@ g_event_report.756, g_event_report
	cmp	r3, #0	@ g_event_report.756,
	beq	.L564	@,
	sub	r2, fp, #28	@ tmp156,,
	mov	r1, #1	@ tmp155,
	mov	r0, r6	@, ChanId
	str	r1, [r2, #-4]!	@ tmp155, para
	mov	r1, #115	@,
	blx	r3	@ g_event_report.756
.L564:
	movw	r1, #:lower16:.LC177	@,
	mov	r0, #2	@,
	movt	r1, #:upper16:.LC177	@,
	bl	dprint_vfmw	@
	b	.L565	@
.L548:
	add	r0, r0, #952	@, D.39565,
	bl	H264DEC_GetRemainImg	@
	mov	r4, r0	@ ret,
	b	.L560	@
.L549:
	add	r0, r0, #952	@, D.39565,
	bl	VC1DEC_GetRemainImg	@
	mov	r4, r0	@ ret,
	b	.L560	@
.L550:
	add	r0, r0, #952	@, D.39565,
	bl	MPEG4DEC_GetRemainImg	@
	mov	r4, r0	@ ret,
	b	.L560	@
.L551:
	add	r0, r0, #952	@, D.39565,
	bl	MPEG2DEC_GetRemainImg	@
	mov	r4, r0	@ ret,
	b	.L560	@
.L552:
	add	r0, r0, #952	@, D.39565,
	bl	DIVX3DEC_GetRemainImg	@
	mov	r4, r0	@ ret,
	b	.L560	@
.L553:
	add	r0, r0, #952	@, D.39565,
	bl	AVSDEC_GetRemainImg	@
	mov	r4, r0	@ ret,
	b	.L560	@
.L554:
	add	r0, r0, #952	@, D.39565,
	bl	REAL8DEC_GetRemainImg	@
	mov	r4, r0	@ ret,
	b	.L560	@
.L555:
	add	r0, r0, #952	@, D.39565,
	bl	REAL9DEC_GetRemainImg	@
	mov	r4, r0	@ ret,
	b	.L560	@
.L556:
	add	r0, r0, #952	@, D.39565,
	bl	VP6DEC_GetRemainImg	@
	mov	r4, r0	@ ret,
	b	.L560	@
.L557:
	add	r0, r0, #952	@, D.39565,
	bl	VP8DEC_GetRemainImg	@
	mov	r4, r0	@ ret,
	b	.L560	@
.L573:
	movw	r0, #:lower16:g_chipID	@ tmp162,
	movt	r0, #:upper16:g_chipID	@ tmp162,
	ldr	r3, [r0, #0]	@ g_chipID, g_chipID
	cmp	r3, #10	@ g_chipID,
	bhi	.L565	@,
	mov	r2, #1	@ tmp165,
	mov	r3, r2, asl r3	@ tmp164, tmp165,
	tst	r3, #1856	@ tmp164,
	bne	.L568	@,
	tst	r3, #63	@ tmp164,
	beq	.L565	@,
	ldr	r3, [r5, #68]	@ g_event_report.3307, g_event_report
	cmp	r3, #0	@ g_event_report.3307,
	beq	.L569	@,
	sub	r2, fp, #28	@ tmp170,,
	mov	r0, r6	@, ChanId
	mov	r1, #115	@,
	str	r4, [r2, #-4]!	@ ret, para
	blx	r3	@ g_event_report.3307
.L569:
	movw	r1, #:lower16:.LC179	@,
	sub	r2, r4, #2	@, ret,
	movt	r1, #:upper16:.LC179	@,
	mov	r0, #2	@,
	bl	dprint_vfmw	@
	b	.L565	@
.L568:
	ldr	r3, [r5, #68]	@ g_event_report.3308, g_event_report
	cmp	r3, #0	@ g_event_report.3308,
	beq	.L570	@,
	sub	r2, fp, #28	@ tmp174,,
	mov	r0, r6	@, ChanId
	mov	r1, #115	@,
	str	r4, [r2, #-4]!	@ ret, para
	blx	r3	@ g_event_report.3308
.L570:
	movw	r1, #:lower16:.LC179	@,
	sub	r2, r4, #2	@, ret,
	movt	r1, #:upper16:.LC179	@,
	mov	r0, #2	@,
	bl	dprint_vfmw	@
	b	.L565	@
	.fnend
	.size	VCTRL_OutputLastFrame, .-VCTRL_OutputLastFrame
	.align	2
	.global	Save2DYuv
	.type	Save2DYuv, %function
Save2DYuv:
	.fnstart
.LFB1446:
	@ args = 8, pretend = 0, frame = 16
	@ frame_needed = 1, uses_anonymous_args = 0
	.movsp ip
	mov	ip, sp	@,
	stmfd	sp!, {r4, r5, r6, r7, r8, r9, sl, fp, ip, lr, pc}	@,
	.pad #4
	.save {r4, r5, r6, r7, r8, r9, sl, fp, ip, lr}
	.setfp fp, ip, #-4
	sub	fp, ip, #4	@,,
	.pad #20
	sub	sp, sp, #20	@,,
	push	{lr}
	bl	__gnu_mcount_nc
	mov	r6, r3	@ Height, Height
	mov	r3, r2, asl #1	@ tmp158, Width,
	str	r1, [fp, #-52]	@ ChromOfst, %sfp
	mov	sl, r2	@ Width, Width
	mov	r2, #0	@,
	mul	r1, r6, r3	@, Height, tmp158
	ldr	r8, [fp, #8]	@ fp, fp
	bl	__arm_ioremap	@
	subs	r7, r0, #0	@ pFrameStore,
	beq	.L585	@,
	mul	r4, sl, r6	@ D.39155, Width, Height
	add	r0, r4, r4, lsr #31	@, tmp161, D.39155, D.39155,
	mov	r1, r0, asr #1	@, tmp161,
	str	r1, [fp, #-56]	@, %sfp
	add	r0, r1, #1024	@,,
	bl	OSAL_AllocVirMem	@
	cmp	r0, #0	@
	str	r0, [fp, #-48]	@, %sfp
	beq	.L576	@,
	cmp	r6, #0	@ Height,
	ble	.L577	@,
	mov	r0, r7	@, pFrameStore
	mov	r1, r4	@, D.39155
	mov	r2, r8	@, fp
	sub	r5, r6, #1	@ tmp185, Height,
	bl	klib_fwrite	@
	cmp	r6, #1	@ Height,
	and	r9, r5, #1	@ tmp187, tmp185,
	mov	r5, #1	@ y,
	ble	.L577	@,
	cmp	r9, #0	@ tmp187,
	beq	.L578	@,
	mov	r0, r7	@, pFrameStore
	mov	r1, r4	@, D.39155
	mov	r2, r8	@, fp
	mov	r5, #2	@ y,
	bl	klib_fwrite	@
	cmp	r6, r5	@ Height, y
	ble	.L577	@,
.L578:
	mov	r1, r4	@, D.39155
	mov	r2, r8	@, fp
	add	r9, r5, #1	@ tmp188, y,
	mov	r0, r7	@, pFrameStore
	bl	klib_fwrite	@
	add	r5, r9, #1	@ y, tmp188,
	mov	r0, r7	@, pFrameStore
	mov	r1, r4	@, D.39155
	mov	r2, r8	@, fp
	bl	klib_fwrite	@
	cmp	r6, r5	@ Height, y
	bgt	.L578	@,
.L577:
	add	r6, r6, r6, lsr #31	@, tmp165, Height, Height,
	mov	r9, r6, asr #1	@ D.39170, tmp165,
	cmp	r9, #0	@ D.39170,
	ble	.L579	@,
	ldr	r6, [fp, #-52]	@, %sfp
	add	r2, r4, #3	@ tmp169, D.39155,
	cmp	r4, #0	@ D.39155,
	ldr	r5, [fp, #-48]	@ pU, %sfp
	add	sl, sl, sl, lsr #31	@, tmp172, Width, Width,
	str	r7, [fp, #-52]	@ pFrameStore, %sfp
	movlt	r4, r2	@ D.39155, tmp169
	add	r2, r7, r6	@ pChrom, pFrameStore,
	ldr	r7, [fp, #4]	@ Stride, Stride
	add	lr, r5, r4, asr #2	@, pV, pU, D.39155,
	mov	r6, sl, asr #1	@ pretmp.3329, tmp172,
	mov	sl, #0	@ y.3362,
.L580:
	cmp	r6, #0	@ pretmp.3329,
	ble	.L583	@,
	ldrb	r1, [r2, #0]	@ zero_extendqisi2	@ tmp174,* pChrom
	mov	r3, #1	@ x,
	cmp	r3, r6	@ x, pretmp.3329
	sub	ip, r6, #1	@ tmp180, pretmp.3329,
	and	ip, ip, r3	@ tmp182, tmp180,
	mov	r0, #2	@ ivtmp.3345,
	strb	r1, [r5, #0]	@ tmp174,* pU
	ldrb	r1, [r2, #1]	@ zero_extendqisi2	@ tmp176,
	strb	r1, [lr, #0]	@ tmp176,* pV
	beq	.L598	@,
	cmp	ip, #0	@ tmp182,
	beq	.L581	@,
	ldrb	ip, [r2, r3]	@ zero_extendqisi2	@ tmp199,* x
	cmp	r0, r6	@ x, pretmp.3329
	strb	ip, [r5, r3]	@ tmp199,* x
	ldrb	r1, [r2, r0]	@ zero_extendqisi2	@ tmp200,* ivtmp.3345
	strb	r1, [lr, r3]	@ tmp200,* x
	mov	r3, r0	@ x, ivtmp.3345
	mov	r0, #3	@ ivtmp.3345,
	beq	.L598	@,
.L581:
	ldrb	r4, [r2, r3]	@ zero_extendqisi2	@ tmp193,* x
	add	r1, r3, #1	@ tmp183, x,
	add	ip, r0, #1	@ tmp184, ivtmp.3345,
	strb	r4, [r5, r3]	@ tmp193,* x
	ldrb	r4, [r2, r0]	@ zero_extendqisi2	@ tmp194,* ivtmp.3345
	add	r0, ip, #1	@ ivtmp.3345, tmp184,
	strb	r4, [lr, r3]	@ tmp194,* x
	add	r3, r1, #1	@ x, tmp183,
	ldrb	r4, [r2, r1]	@ zero_extendqisi2	@ tmp197,
	cmp	r3, r6	@ x, pretmp.3329
	strb	r4, [r5, r1]	@ tmp197,
	ldrb	ip, [r2, ip]	@ zero_extendqisi2	@ tmp198,
	strb	ip, [lr, r1]	@ tmp198,
	bne	.L581	@,
.L598:
	add	r5, r5, r6	@ pU, pU, pretmp.3329
	add	lr, lr, r6	@ pV, pV, pretmp.3329
.L583:
	add	sl, sl, #1	@ y.3362, y.3362,
	cmp	sl, r9	@ y.3362, D.39170
	addne	r2, r2, r7	@ pChrom, pChrom, Stride
	bne	.L580	@
.L599:
	ldr	r7, [fp, #-52]	@ pFrameStore, %sfp
.L579:
	ldr	r1, [fp, #-56]	@, %sfp
	mov	r2, r8	@, fp
	ldr	r0, [fp, #-48]	@, %sfp
	bl	klib_fwrite	@
.L576:
	mov	r0, r7	@, pFrameStore
	bl	__arm_iounmap	@
	ldr	r3, [fp, #-48]	@, %sfp
	cmp	r3, #0	@,
	beq	.L585	@,
	ldr	r0, [fp, #-48]	@, %sfp
	bl	OSAL_FreeVirMem	@
.L585:
	sub	sp, fp, #40
	ldmfd	sp, {r4, r5, r6, r7, r8, r9, sl, fp, sp, pc}
	.fnend
	.size	Save2DYuv, .-Save2DYuv
	.align	2
	.global	VCTRL_EnableAllInt
	.type	VCTRL_EnableAllInt, %function
VCTRL_EnableAllInt:
	.fnstart
.LFB1445:
	@ args = 0, pretend = 0, frame = 0
	@ frame_needed = 1, uses_anonymous_args = 0
	.movsp ip
	mov	ip, sp	@,
	stmfd	sp!, {fp, ip, lr, pc}	@,
	.pad #4
	.save {fp, ip, lr}
	.setfp fp, ip, #-4
	sub	fp, ip, #4	@,,
	push	{lr}
	bl	__gnu_mcount_nc
	movw	r3, #:lower16:g_vdm_hal_fun_ptr	@ tmp134,
	movt	r3, #:upper16:g_vdm_hal_fun_ptr	@ tmp134,
	ldr	r3, [r3, #60]	@ D.39117, g_vdm_hal_fun_ptr.pfun_VDMHAL_EnableInt
	cmp	r3, #0	@ D.39117,
	beq	.L608	@,
	mov	r0, #0	@,
	blx	r3	@ D.39117
	bl	SCDDRV_EnableInt	@
	ldmfd	sp, {fp, sp, pc}	@
.L608:
	mov	r0, r3	@, D.39117
	movw	r2, #6745	@,
	movw	r1, #:lower16:.LC180	@,
	movt	r1, #:upper16:.LC180	@,
	bl	dprint_vfmw	@
	bl	SCDDRV_EnableInt	@
	ldmfd	sp, {fp, sp, pc}	@
	.fnend
	.size	VCTRL_EnableAllInt, .-VCTRL_EnableAllInt
	.align	2
	.global	VCTRL_MaskAllInt
	.type	VCTRL_MaskAllInt, %function
VCTRL_MaskAllInt:
	.fnstart
.LFB1444:
	@ args = 0, pretend = 0, frame = 0
	@ frame_needed = 1, uses_anonymous_args = 0
	.movsp ip
	mov	ip, sp	@,
	stmfd	sp!, {fp, ip, lr, pc}	@,
	.pad #4
	.save {fp, ip, lr}
	.setfp fp, ip, #-4
	sub	fp, ip, #4	@,,
	push	{lr}
	bl	__gnu_mcount_nc
	movw	r3, #:lower16:g_vdm_hal_fun_ptr	@ tmp134,
	movt	r3, #:upper16:g_vdm_hal_fun_ptr	@ tmp134,
	ldr	r3, [r3, #56]	@ D.39105, g_vdm_hal_fun_ptr.pfun_VDMHAL_MaskInt
	cmp	r3, #0	@ D.39105,
	beq	.L613	@,
	mov	r0, #0	@,
	blx	r3	@ D.39105
	bl	SCDDRV_MaskInt	@
	ldmfd	sp, {fp, sp, pc}	@
.L613:
	mov	r0, r3	@, D.39105
	movw	r2, #6719	@,
	movw	r1, #:lower16:.LC180	@,
	movt	r1, #:upper16:.LC180	@,
	bl	dprint_vfmw	@
	bl	SCDDRV_MaskInt	@
	ldmfd	sp, {fp, sp, pc}	@
	.fnend
	.size	VCTRL_MaskAllInt, .-VCTRL_MaskAllInt
	.align	2
	.global	VCTRL_GetChanImgNum
	.type	VCTRL_GetChanImgNum, %function
VCTRL_GetChanImgNum:
	.fnstart
.LFB1437:
	@ args = 0, pretend = 0, frame = 0
	@ frame_needed = 1, uses_anonymous_args = 0
	.movsp ip
	mov	ip, sp	@,
	stmfd	sp!, {r3, r4, r5, r6, r7, r8, fp, ip, lr, pc}	@,
	.pad #4
	.save {r3, r4, r5, r6, r7, r8, fp, ip, lr}
	.setfp fp, ip, #-4
	sub	fp, ip, #4	@,,
	push	{lr}
	bl	__gnu_mcount_nc
	movw	r4, #:lower16:.LANCHOR0	@ tmp140,
	movt	r4, #:upper16:.LANCHOR0	@ tmp140,
	mov	r5, r0	@ ChanID, ChanID
	mov	r6, r1	@ pRefImgNum, pRefImgNum
	mov	r7, r2	@ pReadImgNum, pReadImgNum
	ldr	ip, [r4, r0, asl #2]	@ tmp141, s_pstVfmwChan
	mov	r8, r3	@ pNewImgNum, pNewImgNum
	cmp	ip, #0	@ tmp141,
	beq	.L621	@,
	bl	VCTRL_GetChanVoQue	@
	subs	r3, r0, #0	@ pstVoQue,
	streq	r3, [r8, #0]	@ pstVoQue,* pNewImgNum
	streq	r3, [r7, #0]	@ pstVoQue,* pReadImgNum
	streq	r3, [r6, #0]	@ pstVoQue,* pRefImgNum
	ldmeqfd	sp, {r3, r4, r5, r6, r7, r8, fp, sp, pc}	@
	mov	r2, r8	@, pNewImgNum
	mov	r1, r7	@, pReadImgNum
	bl	GetQueueImgNum	@
	ldr	r2, [r4, r5, asl #2]	@ temp.3432, s_pstVfmwChan
	ldr	r3, [r2, #936]	@ D.38946, <variable>.eVidStd
	cmp	r3, #0	@ D.38946,
	beq	.L622	@,
	cmp	r3, #15	@ D.38946,
	movweq	r3, #:lower16:11169564	@ tmp147,
	movteq	r3, #:upper16:11169564	@ tmp147,
	movne	r3, #2	@ tmp149,
	ldreq	r3, [r2, r3]	@ <variable>.stSynCtx.unSyntax.stMvcCtx.DPB.size,
	str	r3, [r6, #0]	@ tmp149,* pRefImgNum
	ldmfd	sp, {r3, r4, r5, r6, r7, r8, fp, sp, pc}	@
.L622:
	movw	r1, #27568	@ tmp145,
	ldr	r0, [r2, r1]	@ <variable>.stSynCtx.unSyntax.stH264Ctx.DPB.size,
	str	r0, [r6, #0]	@ <variable>.stSynCtx.unSyntax.stH264Ctx.DPB.size,* pRefImgNum
	ldmfd	sp, {r3, r4, r5, r6, r7, r8, fp, sp, pc}	@
.L621:
	mov	r0, ip	@, tmp141
	movw	r1, #:lower16:.LC1	@,
	movw	r2, #6460	@,
	movt	r1, #:upper16:.LC1	@,
	movw	r3, #:lower16:.LC6	@,
	movt	r3, #:upper16:.LC6	@,
	bl	dprint_vfmw	@
	ldmfd	sp, {r3, r4, r5, r6, r7, r8, fp, sp, pc}	@
	.fnend
	.size	VCTRL_GetChanImgNum, .-VCTRL_GetChanImgNum
	.align	2
	.global	vfmw_read_proc_dec
	.type	vfmw_read_proc_dec, %function
vfmw_read_proc_dec:
	.fnstart
.LFB1464:
	@ args = 8, pretend = 0, frame = 64
	@ frame_needed = 1, uses_anonymous_args = 0
	.movsp ip
	mov	ip, sp	@,
	stmfd	sp!, {r4, r5, r6, r7, r8, r9, sl, fp, ip, lr, pc}	@,
	.pad #4
	.save {r4, r5, r6, r7, r8, r9, sl, fp, ip, lr}
	.setfp fp, ip, #-4
	sub	fp, ip, #4	@,,
	.pad #92
	sub	sp, sp, #92	@,,
	push	{lr}
	bl	__gnu_mcount_nc
	movw	r2, #:lower16:.LC181	@,
	str	r1, [fp, #-84]	@ start, %sfp
	movt	r2, #:upper16:.LC181	@,
	mov	r1, r3	@, count
	str	r3, [fp, #-108]	@ count, %sfp
	mov	r8, r0	@ page, page
	bl	snprintf	@
	movw	r3, #:lower16:USE_FF_APT_EN	@ tmp310,
	movt	r3, #:upper16:USE_FF_APT_EN	@ tmp310,
	ldr	r2, [fp, #-108]	@, %sfp
	movw	r4, #:lower16:.LANCHOR0	@,
	ldr	r7, [r3, #0]	@ USE_FF_APT_EN, USE_FF_APT_EN
	movw	r3, #:lower16:.LC115	@,
	movt	r3, #:upper16:.LC115	@,
	movt	r4, #:upper16:.LANCHOR0	@,
	str	r4, [fp, #-64]	@, %sfp
	str	r7, [sp, #0]	@ USE_FF_APT_EN,
	mov	r5, r0	@ D.40083,
	add	r0, r8, r0	@, page, D.40083
	rsb	r1, r5, r2	@, D.40083,
	movw	r2, #:lower16:.LC132	@,
	movt	r2, #:upper16:.LC132	@,
	bl	snprintf	@
	ldr	r7, [r4, #180]	@ i, g_CurProcChan
	movw	r2, #56800	@ tmp314,
	movw	ip, #:lower16:g_pstTreeFsp	@,
	movt	ip, #:upper16:g_pstTreeFsp	@,
	str	ip, [fp, #-72]	@, %sfp
	mul	r1, r2, r7	@, tmp314, i
	ldr	r3, [ip, #0]	@ g_pstTreeFsp.804, g_pstTreeFsp
	str	r1, [fp, #-80]	@, %sfp
	add	r1, r3, r1	@ D.40089, g_pstTreeFsp.804,
	ldr	ip, [r1, #112]	@ <variable>.eFspInstState, <variable>.eFspInstState
	cmp	ip, #1	@ <variable>.eFspInstState,
	add	r5, r0, r5	@ len.3543,, D.40083
	beq	.L660	@,
	movw	r3, #:lower16:s_pFspInst	@ tmp329,
	movt	r3, #:upper16:s_pFspInst	@ tmp329,
	ldr	r9, [r3, r7, asl #2]	@ pFsp, s_pFspInst
	cmp	r9, #0	@ pFsp,
	movne	sl, #0	@ pTreeFs,
	strne	sl, [fp, #-76]	@ pTreeFs, %sfp
	beq	.L661	@,
.L628:
	ldr	r2, [fp, #-64]	@, %sfp
	ldr	r6, [r2, r7, asl #2]	@ pChan, s_pstVfmwChan
	cmp	r6, #0	@ pChan,
	beq	.L629	@,
	add	ip, r7, #32	@ tmp333, i,
	movw	lr, #:lower16:g_ChanCtx	@ tmp332,
	movt	lr, #:upper16:g_ChanCtx	@ tmp332,
	sub	r1, fp, #48	@,,
	sub	r2, fp, #52	@,,
	sub	r3, fp, #56	@,,
	mov	r0, r7	@, i
	ldr	r4, [lr, ip, asl #2]	@ D.40106, g_ChanCtx.ChanDecByVdhPlusOne
	bl	VCTRL_GetChanImgNum	@
	mov	r0, r7	@, i
	bl	VCTRL_GetChanVoQue	@
	mov	r3, r7	@, i
	movw	r2, #:lower16:.LC184	@,
	movt	r2, #:upper16:.LC184	@,
	cmp	r0, #0	@ pstDecQue
	streq	r0, [fp, #-88]	@ pstDecQue, %sfp
	streq	r0, [fp, #-92]	@ pstDecQue, %sfp
	ldrneh	lr, [r0, #8]	@, <variable>.tail
	streq	r0, [fp, #-96]	@ pstDecQue, %sfp
	strne	lr, [fp, #-88]	@, %sfp
	ldrneh	r1, [r0, #4]	@, <variable>.history
	strne	r1, [fp, #-96]	@, %sfp
	ldrneh	r0, [r0, #6]	@, <variable>.head
	strne	r0, [fp, #-92]	@, %sfp
	ldr	r0, [fp, #-108]	@, %sfp
	rsb	r1, r5, r0	@, len.3543,
	add	r0, r8, r5	@, page, len.3543
	bl	snprintf	@
	sub	r1, r4, #1	@ tmp344, D.40106,
	ldr	r4, [fp, #-108]	@, %sfp
	movw	r2, #:lower16:.LC132	@,
	str	r1, [sp, #0]	@ tmp344,
	movt	r2, #:upper16:.LC132	@,
	movw	r3, #:lower16:.LC185	@,
	movt	r3, #:upper16:.LC185	@,
	add	r5, r0, r5	@ len.3554,, len.3543
	rsb	r1, r5, r4	@, len.3554,
	add	r0, r8, r5	@, page, len.3554
	bl	snprintf	@
	ldr	ip, [r6, #12]	@ <variable>.s32IsOpen, <variable>.s32IsOpen
	movw	r2, #:lower16:.LC132	@,
	movw	r3, #:lower16:.LC186	@,
	movt	r2, #:upper16:.LC132	@,
	movt	r3, #:upper16:.LC186	@,
	str	ip, [sp, #0]	@ <variable>.s32IsOpen,
	add	r5, r5, r0	@ len.3559, len.3554,
	rsb	r1, r5, r4	@, len.3559,
	add	r0, r8, r5	@, page, len.3559
	bl	snprintf	@
	ldr	r1, [r6, #16]	@ <variable>.s32IsRun, <variable>.s32IsRun
	movw	r2, #:lower16:.LC132	@,
	movw	r3, #:lower16:.LC187	@,
	movt	r2, #:upper16:.LC132	@,
	movt	r3, #:upper16:.LC187	@,
	str	r1, [sp, #0]	@ <variable>.s32IsRun,
	add	r5, r5, r0	@ len.3564, len.3559,
	rsb	r1, r5, r4	@, len.3564,
	add	r0, r8, r5	@, page, len.3564
	bl	snprintf	@
	ldr	ip, [r6, #20]	@ <variable>.s32Priority, <variable>.s32Priority
	movw	r2, #:lower16:.LC132	@,
	movw	r3, #:lower16:.LC188	@,
	movt	r2, #:upper16:.LC132	@,
	movt	r3, #:upper16:.LC188	@,
	str	ip, [sp, #0]	@ <variable>.s32Priority,
	add	r5, r5, r0	@ len.3569, len.3564,
	rsb	r1, r5, r4	@, len.3569,
	add	r0, r8, r5	@, page, len.3569
	bl	snprintf	@
	ldr	r1, [r6, #936]	@ <variable>.eVidStd, <variable>.eVidStd
	movw	r2, #:lower16:.LC132	@,
	movw	r3, #:lower16:.LC189	@,
	movt	r2, #:upper16:.LC132	@,
	movt	r3, #:upper16:.LC189	@,
	str	r1, [sp, #0]	@ <variable>.eVidStd,
	add	r5, r5, r0	@ len.3574, len.3569,
	rsb	r1, r5, r4	@, len.3574,
	add	r0, r8, r5	@, page, len.3574
	bl	snprintf	@
	ldr	ip, [r6, #52]	@ <variable>.stChanCfg.s32ChanErrThr, <variable>.stChanCfg.s32ChanErrThr
	movw	r2, #:lower16:.LC132	@,
	movw	r3, #:lower16:.LC190	@,
	movt	r2, #:upper16:.LC132	@,
	movt	r3, #:upper16:.LC190	@,
	str	ip, [sp, #0]	@ <variable>.stChanCfg.s32ChanErrThr,
	add	r5, r5, r0	@ len.3579, len.3574,
	rsb	r1, r5, r4	@, len.3579,
	add	r0, r8, r5	@, page, len.3579
	bl	snprintf	@
	ldr	r1, [r6, #56]	@ <variable>.stChanCfg.s32ChanStrmOFThr, <variable>.stChanCfg.s32ChanStrmOFThr
	movw	r2, #:lower16:.LC132	@,
	movw	r3, #:lower16:.LC191	@,
	movt	r2, #:upper16:.LC132	@,
	movt	r3, #:upper16:.LC191	@,
	str	r1, [sp, #0]	@ <variable>.stChanCfg.s32ChanStrmOFThr,
	add	r5, r5, r0	@ len.3584, len.3579,
	rsb	r1, r5, r4	@, len.3584,
	add	r0, r8, r5	@, page, len.3584
	bl	snprintf	@
	ldr	ip, [r6, #60]	@ <variable>.stChanCfg.s32DecMode, <variable>.stChanCfg.s32DecMode
	movw	r2, #:lower16:.LC132	@,
	movw	r3, #:lower16:.LC192	@,
	movt	r2, #:upper16:.LC132	@,
	movt	r3, #:upper16:.LC192	@,
	str	ip, [sp, #0]	@ <variable>.stChanCfg.s32DecMode,
	add	r5, r5, r0	@ len.3589, len.3584,
	rsb	r1, r5, r4	@, len.3589,
	add	r0, r8, r5	@, page, len.3589
	bl	snprintf	@
	ldr	r1, [r6, #64]	@ <variable>.stChanCfg.s32DecOrderOutput, <variable>.stChanCfg.s32DecOrderOutput
	movw	r2, #:lower16:.LC132	@,
	movw	r3, #:lower16:.LC193	@,
	movt	r2, #:upper16:.LC132	@,
	movt	r3, #:upper16:.LC193	@,
	str	r1, [sp, #0]	@ <variable>.stChanCfg.s32DecOrderOutput,
	add	r5, r5, r0	@ len.3594, len.3589,
	rsb	r1, r5, r4	@, len.3594,
	add	r0, r8, r5	@, page, len.3594
	bl	snprintf	@
	ldr	ip, [r6, #40]	@ <variable>.stChanCfg.StdExt.Vc1Ext.IsAdvProfile, <variable>.stChanCfg.StdExt.Vc1Ext.IsAdvProfile
	movw	r2, #:lower16:.LC132	@,
	movw	r3, #:lower16:.LC194	@,
	movt	r2, #:upper16:.LC132	@,
	movt	r3, #:upper16:.LC194	@,
	str	ip, [sp, #0]	@ <variable>.stChanCfg.StdExt.Vc1Ext.IsAdvProfile,
	add	r5, r5, r0	@ len.3599, len.3594,
	rsb	r1, r5, r4	@, len.3599,
	add	r0, r8, r5	@, page, len.3599
	bl	snprintf	@
	ldr	r1, [r6, #44]	@ <variable>.stChanCfg.StdExt.Vc1Ext.CodecVersion, <variable>.stChanCfg.StdExt.Vc1Ext.CodecVersion
	movw	r2, #:lower16:.LC132	@,
	movw	r3, #:lower16:.LC195	@,
	movt	r2, #:upper16:.LC132	@,
	movt	r3, #:upper16:.LC195	@,
	str	r1, [sp, #0]	@ <variable>.stChanCfg.StdExt.Vc1Ext.CodecVersion,
	add	r5, r5, r0	@ len.3604, len.3599,
	rsb	r1, r5, r4	@, len.3604,
	add	r0, r8, r5	@, page, len.3604
	bl	snprintf	@
	ldr	ip, [r6, #40]	@ <variable>.stChanCfg.StdExt.Vp6Ext.bReversed, <variable>.stChanCfg.StdExt.Vp6Ext.bReversed
	movw	r2, #:lower16:.LC132	@,
	movw	r3, #:lower16:.LC196	@,
	movt	r2, #:upper16:.LC132	@,
	movt	r3, #:upper16:.LC196	@,
	str	ip, [sp, #0]	@ <variable>.stChanCfg.StdExt.Vp6Ext.bReversed,
	add	r5, r5, r0	@ len.3609, len.3604,
	rsb	r1, r5, r4	@, len.3609,
	add	r0, r8, r5	@, page, len.3609
	bl	snprintf	@
	ldr	r1, [r6, #176]	@ <variable>.stChanMem_vdh.PhyAddr, <variable>.stChanMem_vdh.PhyAddr
	movw	r2, #:lower16:.LC137	@,
	movw	r3, #:lower16:.LC197	@,
	movt	r2, #:upper16:.LC137	@,
	movt	r3, #:upper16:.LC197	@,
	str	r1, [sp, #0]	@ <variable>.stChanMem_vdh.PhyAddr,
	add	r5, r5, r0	@ len.3614, len.3609,
	rsb	r1, r5, r4	@, len.3614,
	add	r0, r8, r5	@, page, len.3614
	bl	snprintf	@
	ldr	ip, [r6, #184]	@ <variable>.stChanMem_vdh.Length, <variable>.stChanMem_vdh.Length
	movw	r2, #:lower16:.LC132	@,
	movw	r3, #:lower16:.LC198	@,
	movt	r2, #:upper16:.LC132	@,
	movt	r3, #:upper16:.LC198	@,
	str	ip, [sp, #0]	@ <variable>.stChanMem_vdh.Length,
	add	r5, r5, r0	@ len.3619, len.3614,
	rsb	r1, r5, r4	@, len.3619,
	add	r0, r8, r5	@, page, len.3619
	bl	snprintf	@
	ldr	r1, [r6, #188]	@ <variable>.stChanMem_scd.PhyAddr, <variable>.stChanMem_scd.PhyAddr
	movw	r2, #:lower16:.LC137	@,
	movw	r3, #:lower16:.LC199	@,
	movt	r2, #:upper16:.LC137	@,
	movt	r3, #:upper16:.LC199	@,
	str	r1, [sp, #0]	@ <variable>.stChanMem_scd.PhyAddr,
	add	r5, r5, r0	@ len.3624, len.3619,
	rsb	r1, r5, r4	@, len.3624,
	add	r0, r8, r5	@, page, len.3624
	bl	snprintf	@
	ldr	ip, [r6, #196]	@ <variable>.stChanMem_scd.Length, <variable>.stChanMem_scd.Length
	movw	r2, #:lower16:.LC132	@,
	movw	r3, #:lower16:.LC200	@,
	movt	r2, #:upper16:.LC132	@,
	movt	r3, #:upper16:.LC200	@,
	str	ip, [sp, #0]	@ <variable>.stChanMem_scd.Length,
	add	r5, r5, r0	@ len.3629, len.3624,
	rsb	r1, r5, r4	@, len.3629,
	add	r0, r8, r5	@, page, len.3629
	bl	snprintf	@
	ldr	r1, [r6, #244]	@ <variable>.s32SdecMemAddr, <variable>.s32SdecMemAddr
	movw	r2, #:lower16:.LC137	@,
	movw	r3, #:lower16:.LC201	@,
	movt	r2, #:upper16:.LC137	@,
	movt	r3, #:upper16:.LC201	@,
	str	r1, [sp, #0]	@ <variable>.s32SdecMemAddr,
	add	r5, r5, r0	@ len.3634, len.3629,
	rsb	r1, r5, r4	@, len.3634,
	add	r0, r8, r5	@, page, len.3634
	bl	snprintf	@
	ldr	ip, [r6, #248]	@ <variable>.s32SdecMemSize, <variable>.s32SdecMemSize
	movw	r2, #:lower16:.LC132	@,
	movw	r3, #:lower16:.LC202	@,
	movt	r2, #:upper16:.LC132	@,
	movt	r3, #:upper16:.LC202	@,
	str	ip, [sp, #0]	@ <variable>.s32SdecMemSize,
	add	r5, r5, r0	@ len.3639, len.3634,
	rsb	r1, r5, r4	@, len.3639,
	add	r0, r8, r5	@, page, len.3639
	bl	snprintf	@
	ldr	r1, [r6, #232]	@ <variable>.s32OffLineDnrMemAddr, <variable>.s32OffLineDnrMemAddr
	movw	r2, #:lower16:.LC137	@,
	movw	r3, #:lower16:.LC203	@,
	movt	r2, #:upper16:.LC137	@,
	movt	r3, #:upper16:.LC203	@,
	str	r1, [sp, #0]	@ <variable>.s32OffLineDnrMemAddr,
	add	r5, r5, r0	@ len.3644, len.3639,
	rsb	r1, r5, r4	@, len.3644,
	add	r0, r8, r5	@, page, len.3644
	bl	snprintf	@
	ldr	ip, [r6, #236]	@ <variable>.s32OffLineDNRMemSize, <variable>.s32OffLineDNRMemSize
	movw	r2, #:lower16:.LC132	@,
	movw	r3, #:lower16:.LC204	@,
	movt	r2, #:upper16:.LC132	@,
	movt	r3, #:upper16:.LC204	@,
	str	ip, [sp, #0]	@ <variable>.s32OffLineDNRMemSize,
	add	r5, r5, r0	@ len.3649, len.3644,
	rsb	r1, r5, r4	@, len.3649,
	add	r0, r8, r5	@, page, len.3649
	bl	snprintf	@
	ldr	r1, [r6, #224]	@ <variable>.s32VdmChanMemAddr, <variable>.s32VdmChanMemAddr
	movw	r2, #:lower16:.LC137	@,
	movw	r3, #:lower16:.LC205	@,
	movt	r2, #:upper16:.LC137	@,
	movt	r3, #:upper16:.LC205	@,
	str	r1, [sp, #0]	@ <variable>.s32VdmChanMemAddr,
	add	r5, r5, r0	@ len.3654, len.3649,
	rsb	r1, r5, r4	@, len.3654,
	add	r0, r8, r5	@, page, len.3654
	bl	snprintf	@
	ldr	ip, [r6, #228]	@ <variable>.s32VdmChanMemSize, <variable>.s32VdmChanMemSize
	movw	r2, #:lower16:.LC132	@,
	movw	r3, #:lower16:.LC206	@,
	movt	r2, #:upper16:.LC132	@,
	movt	r3, #:upper16:.LC206	@,
	str	ip, [sp, #0]	@ <variable>.s32VdmChanMemSize,
	add	r5, r5, r0	@ len.3659, len.3654,
	rsb	r1, r5, r4	@, len.3659,
	add	r0, r8, r5	@, page, len.3659
	bl	snprintf	@
	ldr	r1, [r6, #936]	@ <variable>.eVidStd, <variable>.eVidStd
	cmp	r1, #18	@ <variable>.eVidStd,
	add	r5, r5, r0	@, len.3659,
	str	r5, [fp, #-104]	@, %sfp
	beq	.L662	@,
.L633:
	ldr	r5, [r6, #240]	@ <variable>.s32ScdChanMemAddr, <variable>.s32ScdChanMemAddr
	ldr	r2, [fp, #-104]	@, %sfp
	ldr	r3, [fp, #-108]	@, %sfp
	add	r0, r8, r2	@, page,
	str	r5, [sp, #0]	@ <variable>.s32ScdChanMemAddr,
	rsb	r1, r2, r3	@,,
	movw	r2, #:lower16:.LC137	@,
	movw	r3, #:lower16:.LC208	@,
	movt	r2, #:upper16:.LC137	@,
	movt	r3, #:upper16:.LC208	@,
	bl	snprintf	@
	ldr	ip, [fp, #-104]	@, %sfp
	ldr	r4, [r6, #252]	@ <variable>.s32ScdChanMemSize, <variable>.s32ScdChanMemSize
	movw	r2, #:lower16:.LC132	@,
	movw	r3, #:lower16:.LC209	@,
	movt	r2, #:upper16:.LC132	@,
	movt	r3, #:upper16:.LC209	@,
	str	r4, [sp, #0]	@ <variable>.s32ScdChanMemSize,
	movw	r4, #:lower16:-858993459	@ tmp527,
	movt	r4, #:upper16:-858993459	@ tmp527,
	add	r5, r0, ip	@ len.3673,,
	ldr	r0, [fp, #-108]	@, %sfp
	rsb	r1, r5, r0	@, len.3673,
	add	r0, r8, r5	@, page, len.3673
	bl	snprintf	@
	ldr	r1, [fp, #-48]	@ RefNum, RefNum
	ldr	ip, [fp, #-52]	@ ReadNum, ReadNum
	movw	r2, #:lower16:.LC210	@,
	movw	r3, #:lower16:.LC211	@,
	movt	r2, #:upper16:.LC210	@,
	str	r1, [sp, #0]	@ RefNum,
	movt	r3, #:upper16:.LC211	@,
	ldr	r1, [fp, #-56]	@ NewNum, NewNum
	str	ip, [sp, #4]	@ ReadNum,
	str	r1, [sp, #8]	@ NewNum,
	add	r5, r5, r0	@ len.3678, len.3673,
	ldr	r0, [fp, #-108]	@, %sfp
	rsb	r1, r5, r0	@, len.3678,
	add	r0, r8, r5	@, page, len.3678
	bl	snprintf	@
	ldr	ip, [fp, #-96]	@, %sfp
	ldr	r1, [fp, #-92]	@, %sfp
	movw	r2, #:lower16:.LC212	@,
	ldr	lr, [fp, #-108]	@, %sfp
	movt	r2, #:upper16:.LC212	@,
	str	ip, [sp, #0]	@,
	movw	r3, #:lower16:.LC213	@,
	ldr	ip, [fp, #-88]	@, %sfp
	movt	r3, #:upper16:.LC213	@,
	stmib	sp, {r1, ip}	@ phole stm
	add	r5, r5, r0	@ len.3683, len.3678,
	rsb	r1, r5, lr	@, len.3683,
	add	r0, r8, r5	@, page, len.3683
	bl	snprintf	@
	movw	r1, #:lower16:11200520	@ tmp486,
	movt	r1, #:upper16:11200520	@ tmp486,
	movw	r2, #:lower16:.LC132	@,
	movw	r3, #:lower16:.LC214	@,
	movt	r2, #:upper16:.LC132	@,
	ldr	ip, [r6, r1]	@ <variable>.stSynExtraData.s32DecMode, <variable>.stSynExtraData.s32DecMode
	movt	r3, #:upper16:.LC214	@,
	str	ip, [sp, #0]	@ <variable>.stSynExtraData.s32DecMode,
	add	r5, r5, r0	@ len.3688, len.3683,
	ldr	r0, [fp, #-108]	@, %sfp
	rsb	r1, r5, r0	@, len.3688,
	add	r0, r8, r5	@, page, len.3688
	bl	snprintf	@
	movw	r1, #:lower16:11200524	@ tmp492,
	movt	r1, #:upper16:11200524	@ tmp492,
	ldr	lr, [fp, #-108]	@, %sfp
	movw	r2, #:lower16:.LC132	@,
	movw	r3, #:lower16:.LC215	@,
	ldr	ip, [r6, r1]	@ <variable>.stSynExtraData.s32DecOrderOutput, <variable>.stSynExtraData.s32DecOrderOutput
	movt	r2, #:upper16:.LC132	@,
	movt	r3, #:upper16:.LC215	@,
	str	ip, [sp, #0]	@ <variable>.stSynExtraData.s32DecOrderOutput,
	add	r5, r5, r0	@ len.3693, len.3688,
	rsb	r1, r5, lr	@, len.3693,
	add	r0, r8, r5	@, page, len.3693
	bl	snprintf	@
	ldr	r1, [r6, #412]	@ <variable>.stRecentImg.format, <variable>.stRecentImg.format
	ldr	ip, [fp, #-108]	@, %sfp
	movw	r2, #:lower16:.LC137	@,
	movw	r3, #:lower16:.LC216	@,
	movt	r2, #:upper16:.LC137	@,
	movt	r3, #:upper16:.LC216	@,
	str	r1, [sp, #0]	@ <variable>.stRecentImg.format,
	add	r5, r5, r0	@ len.3698, len.3693,
	rsb	r1, r5, ip	@, len.3698,
	add	r0, r8, r5	@, page, len.3698
	bl	snprintf	@
	ldr	r1, [r6, #588]	@ <variable>.stRecentImg.eFramePackingType, <variable>.stRecentImg.eFramePackingType
	movw	r2, #:lower16:.LC137	@,
	movw	r3, #:lower16:.LC217	@,
	movt	r2, #:upper16:.LC137	@,
	movt	r3, #:upper16:.LC217	@,
	str	r1, [sp, #0]	@ <variable>.stRecentImg.eFramePackingType,
	add	r5, r5, r0	@ len.3703, len.3698,
	ldr	r0, [fp, #-108]	@, %sfp
	rsb	r1, r5, r0	@, len.3703,
	add	r0, r8, r5	@, page, len.3703
	bl	snprintf	@
	ldr	ip, [r6, #440]	@ D.40183, <variable>.stRecentImg.frame_rate
	movw	r2, #:lower16:.LC218	@,
	movw	r3, #:lower16:.LC219	@,
	movt	r2, #:upper16:.LC218	@,
	movt	r3, #:upper16:.LC219	@,
	mov	r1, ip, asl #22	@ tmp509, D.40183,
	mov	r6, ip, lsr #10	@ tmp508, D.40183,
	str	r6, [sp, #0]	@ tmp508,
	mov	ip, #100	@ tmp512,
	mov	r6, r1, lsr #22	@ tmp509, tmp509,
	mul	r1, ip, r6	@ tmp511, tmp512, tmp509
	add	ip, r1, #512	@ tmp513, tmp511,
	mov	r6, ip, lsr #10	@ tmp514, tmp513,
	str	r6, [sp, #4]	@ tmp514,
	add	r6, r5, r0	@ len.3708, len.3703,
	ldr	r5, [fp, #-108]	@, %sfp
	add	r0, r8, r6	@, page, len.3708
	rsb	r1, r6, r5	@, len.3708,
	bl	snprintf	@
	ldr	r3, [fp, #-64]	@, %sfp
	mov	r2, #300	@ tmp518,
	mla	r5, r2, r7, r3	@ tmp519, tmp518, i,
	movw	r2, #:lower16:.LC220	@,
	movw	r3, #:lower16:.LC221	@,
	movt	r2, #:upper16:.LC220	@,
	movt	r3, #:upper16:.LC221	@,
	ldr	ip, [r5, #192]	@ D.40190, <variable>.u32FrFrameRate
	umull	lr, r1, r4, ip	@, tmp526, tmp527, D.40190
	mov	lr, r1, lsr #3	@ tmp525, tmp526,
	str	lr, [sp, #0]	@ tmp525,
	add	r1, lr, lr, asl #2	@, tmp533, tmp525, tmp525,
	sub	lr, ip, r1, asl #1	@ tmp535, D.40190, tmp533,
	str	lr, [sp, #4]	@ tmp535,
	add	r6, r6, r0	@ len.3714, len.3708,
	ldr	r0, [fp, #-108]	@, %sfp
	rsb	r1, r6, r0	@, len.3714,
	add	r0, r8, r6	@, page, len.3714
	bl	snprintf	@
	ldr	r3, [fp, #-64]	@, %sfp
	movw	r2, #:lower16:.LC222	@,
	movt	r2, #:upper16:.LC222	@,
	ldr	ip, [r3, #120]	@ D.40196, <variable>.u32VaVdmLoad
	movw	r3, #:lower16:.LC169	@,
	movt	r3, #:upper16:.LC169	@,
	umull	lr, r1, r4, ip	@, tmp542, tmp527, D.40196
	mov	r4, r1, lsr #3	@ tmp541, tmp542,
	str	r4, [sp, #0]	@ tmp541,
	add	r1, r4, r4, asl #2	@, tmp549, tmp541, tmp541,
	sub	lr, ip, r1, asl #1	@ tmp551, D.40196, tmp549,
	str	lr, [sp, #4]	@ tmp551,
	add	r6, r6, r0	@ len.3719, len.3714,
	ldr	r0, [fp, #-108]	@, %sfp
	rsb	r1, r6, r0	@, len.3719,
	add	r0, r8, r6	@, page, len.3719
	bl	snprintf	@
	ldr	r4, [r5, #196]	@ <variable>.u32SkipFind, <variable>.u32SkipFind
	movw	r2, #:lower16:.LC132	@,
	movw	r3, #:lower16:.LC223	@,
	movt	r2, #:upper16:.LC132	@,
	movt	r3, #:upper16:.LC223	@,
	str	r4, [sp, #0]	@ <variable>.u32SkipFind,
	ldr	r4, [fp, #-108]	@, %sfp
	add	r6, r6, r0	@ len.3725, len.3719,
	rsb	r1, r6, r4	@, len.3725,
	add	r0, r8, r6	@, page, len.3725
	bl	snprintf	@
	ldr	r1, [r5, #200]	@ <variable>.u32SkipDiscard, <variable>.u32SkipDiscard
	movw	r2, #:lower16:.LC132	@,
	movw	r3, #:lower16:.LC224	@,
	movt	r2, #:upper16:.LC132	@,
	movt	r3, #:upper16:.LC224	@,
	str	r1, [sp, #0]	@ <variable>.u32SkipDiscard,
	add	r5, r6, r0	@ len.3730, len.3725,
	rsb	r1, r5, r4	@, len.3730,
	add	r0, r8, r5	@, page, len.3730
	bl	snprintf	@
	ldr	ip, [fp, #-72]	@, %sfp
	ldr	lr, [fp, #-80]	@, %sfp
	ldr	r2, [ip, #0]	@ g_pstTreeFsp, g_pstTreeFsp
	add	r3, r2, lr	@ tmp577, g_pstTreeFsp,
	ldr	r1, [r3, #112]	@ <variable>.eFspInstState, <variable>.eFspInstState
	cmp	r1, #1	@ <variable>.eFspInstState,
	add	r5, r5, r0	@ len.3543, len.3730,
	beq	.L663	@,
	cmp	r9, #0	@ pFsp,
	beq	.L664	@,
	ldrsb	r6, [r9, #44]	@ <variable>.stInstCfg.s32DispLoopEnable, <variable>.stInstCfg.s32DispLoopEnable
	add	r0, r8, r5	@, page, len.3543
	ldr	r7, [fp, #-108]	@, %sfp
	movw	r2, #:lower16:.LC226	@,
	movw	r3, #:lower16:.LC240	@,
	movt	r2, #:upper16:.LC226	@,
	rsb	r1, r5, r7	@, len.3543,
	movt	r3, #:upper16:.LC240	@,
	str	r6, [sp, #0]	@ <variable>.stInstCfg.s32DispLoopEnable,
	bl	snprintf	@
	ldr	r4, [fp, #-108]	@, %sfp
	movw	r2, #:lower16:.LC132	@,
	ldr	sl, [r9, #56]	@ <variable>.stInstCfg.s32DecFsWidth, <variable>.stInstCfg.s32DecFsWidth
	movt	r2, #:upper16:.LC132	@,
	movw	r3, #:lower16:.LC241	@,
	movt	r3, #:upper16:.LC241	@,
	mov	r6, r9	@ ivtmp.3539, pFsp
	mov	r7, #0	@ ivtmp.3535,
	str	sl, [sp, #0]	@ <variable>.stInstCfg.s32DecFsWidth,
	mov	sl, #1	@ ivtmp.3536,
	add	r5, r0, r5	@ len.3814,, len.3543
	rsb	r1, r5, r4	@, len.3814,
	add	r0, r8, r5	@, page, len.3814
	bl	snprintf	@
	ldr	ip, [r9, #60]	@ <variable>.stInstCfg.s32DecFsHeight, <variable>.stInstCfg.s32DecFsHeight
	movw	r2, #:lower16:.LC132	@,
	movw	r3, #:lower16:.LC242	@,
	movt	r2, #:upper16:.LC132	@,
	movt	r3, #:upper16:.LC242	@,
	str	ip, [sp, #0]	@ <variable>.stInstCfg.s32DecFsHeight,
	add	r5, r5, r0	@ len.3819, len.3814,
	rsb	r1, r5, r4	@, len.3819,
	add	r0, r8, r5	@, page, len.3819
	bl	snprintf	@
	ldr	r1, [r9, #72]	@ <variable>.stInstCfg.s32DispFsWidth, <variable>.stInstCfg.s32DispFsWidth
	movw	r2, #:lower16:.LC132	@,
	movw	r3, #:lower16:.LC243	@,
	movt	r2, #:upper16:.LC132	@,
	movt	r3, #:upper16:.LC243	@,
	str	r1, [sp, #0]	@ <variable>.stInstCfg.s32DispFsWidth,
	add	r5, r5, r0	@ len.3824, len.3819,
	rsb	r1, r5, r4	@, len.3824,
	add	r0, r8, r5	@, page, len.3824
	bl	snprintf	@
	ldr	ip, [r9, #76]	@ <variable>.stInstCfg.s32DispFsHeight, <variable>.stInstCfg.s32DispFsHeight
	movw	r2, #:lower16:.LC132	@,
	movw	r3, #:lower16:.LC244	@,
	movt	r2, #:upper16:.LC132	@,
	movt	r3, #:upper16:.LC244	@,
	str	ip, [sp, #0]	@ <variable>.stInstCfg.s32DispFsHeight,
	add	r5, r5, r0	@ len.3829, len.3824,
	rsb	r1, r5, r4	@, len.3829,
	add	r0, r8, r5	@, page, len.3829
	bl	snprintf	@
	ldrsb	r1, [r9, #49]	@ <variable>.stInstCfg.s32ExpectedDecFsNum, <variable>.stInstCfg.s32ExpectedDecFsNum
	movw	r2, #:lower16:.LC132	@,
	movw	r3, #:lower16:.LC245	@,
	movt	r2, #:upper16:.LC132	@,
	movt	r3, #:upper16:.LC245	@,
	str	r1, [sp, #0]	@ <variable>.stInstCfg.s32ExpectedDecFsNum,
	add	r5, r5, r0	@ len.3834, len.3829,
	rsb	r1, r5, r4	@, len.3834,
	add	r0, r8, r5	@, page, len.3834
	bl	snprintf	@
	ldrsb	ip, [r9, #51]	@ <variable>.stInstCfg.s32ExpectedDispFsNum, <variable>.stInstCfg.s32ExpectedDispFsNum
	movw	r2, #:lower16:.LC132	@,
	movw	r3, #:lower16:.LC246	@,
	movt	r2, #:upper16:.LC132	@,
	movt	r3, #:upper16:.LC246	@,
	str	ip, [sp, #0]	@ <variable>.stInstCfg.s32ExpectedDispFsNum,
	add	r5, r5, r0	@ len.3839, len.3834,
	rsb	r1, r5, r4	@, len.3839,
	add	r0, r8, r5	@, page, len.3839
	bl	snprintf	@
	mov	r1, #64	@ tmp715,
	movw	r2, #:lower16:.LC132	@,
	str	r1, [sp, #0]	@ tmp715,
	movt	r2, #:upper16:.LC132	@,
	movw	r3, #:lower16:.LC247	@,
	movt	r3, #:upper16:.LC247	@,
	add	r5, r5, r0	@ len.3844, len.3839,
	rsb	r1, r5, r4	@, len.3844,
	add	r0, r8, r5	@, page, len.3844
	bl	snprintf	@
	ldr	r4, [fp, #-108]	@ count, %sfp
	add	r5, r5, r0	@ len.3541, len.3844,
	b	.L643	@
.L667:
	tst	r7, #15	@ ivtmp.3535,
	beq	.L665	@,
.L645:
	ldrsb	lr, [r6, #81]	@ <variable>.s32DispState, <variable>.s32DispState
	add	r0, r8, r5	@, page, len.3541
	ldrsb	r3, [r6, #80]	@ <variable>.s32IsRef, <variable>.s32IsRef
	rsb	r1, r5, r4	@, len.3541, count
	movw	r2, #:lower16:.LC237	@,
	movt	r2, #:upper16:.LC237	@,
	str	lr, [sp, #0]	@ <variable>.s32DispState,
	bl	snprintf	@
	cmp	sl, #63	@ ivtmp.3536,
	add	r5, r5, r0	@ len.3541, len.3541,
	bgt	.L666	@,
.L646:
	add	r7, r7, #1	@ ivtmp.3535, ivtmp.3535,
	add	sl, sl, #1	@ ivtmp.3536, ivtmp.3536,
	add	r6, r6, #496	@ ivtmp.3539, ivtmp.3539,
.L643:
	cmp	r7, #0	@ ivtmp.3535,
	movw	r2, #:lower16:.LC237	@,
	add	r0, r8, r5	@, page, len.3541
	rsb	r1, r5, r4	@, len.3541, count
	movt	r2, #:upper16:.LC237	@,
	bne	.L667	@,
	ldrsb	ip, [r6, #81]	@ <variable>.s32DispState, <variable>.s32DispState
	ldrsb	r3, [r6, #80]	@ <variable>.s32IsRef, <variable>.s32IsRef
	str	ip, [sp, #0]	@ <variable>.s32DispState,
	bl	snprintf	@
	add	r5, r5, r0	@ len.3541, len.3541,
	b	.L646	@
.L660:
	add	sl, r3, #905216	@, g_pstTreeFsp.804,
	add	r0, sl, #3584	@,,
	bl	memcpy	@
	ldr	r4, [fp, #-72]	@, %sfp
	ldr	ip, [r4, #0]	@ g_pstTreeFsp.3546, g_pstTreeFsp
	ldr	r4, [fp, #-80]	@, %sfp
	add	r1, ip, #905216	@, g_pstTreeFsp.3546,
	add	sl, ip, r4	@ temp.3547, g_pstTreeFsp.3546,
	add	r0, r1, #3584	@,,
	str	r0, [fp, #-76]	@, %sfp
	ldrsb	r3, [sl, #1]	@ D.40095, <variable>.s8LevelID
	cmp	r3, #1	@ D.40095,
	beq	.L626	@,
	cmp	r3, #2	@ D.40095,
	beq	.L668	@,
	movw	r1, #:lower16:.LC182	@,
	movw	r2, #7990	@,
	movt	r1, #:upper16:.LC182	@,
	mov	r0, #0	@,
	bl	dprint_vfmw	@
.L629:
	mov	r0, r5	@, len.3543
	sub	sp, fp, #40
	ldmfd	sp, {r4, r5, r6, r7, r8, r9, sl, fp, sp, pc}
.L665:
	movw	r2, #:lower16:.LC44	@,
	movt	r2, #:upper16:.LC44	@,
	bl	snprintf	@
	add	r5, r5, r0	@ len.3541, len.3541,
	b	.L645	@
.L666:
	str	r4, [fp, #-108]	@ count, %sfp
	add	r0, r8, r5	@, page, len.3541
	ldrsb	ip, [r9, #21]	@ <variable>.s32DecFsNum, <variable>.s32DecFsNum
	rsb	r1, r5, r4	@, len.3541, count
	movw	r2, #:lower16:.LC248	@,
	movw	r3, #:lower16:.LC249	@,
	movt	r2, #:upper16:.LC248	@,
	movt	r3, #:upper16:.LC249	@,
	str	ip, [sp, #0]	@ <variable>.s32DecFsNum,
	bl	snprintf	@
	ldrsb	r3, [r9, #21]	@ <variable>.s32DecFsNum, <variable>.s32DecFsNum
	cmp	r3, #0	@ <variable>.s32DecFsNum,
	add	r5, r0, r5	@ len.3724,, len.3541
	ble	.L647	@,
	add	r0, r9, #31744	@ ivtmp.3531, pFsp,
	ldr	r4, [fp, #-108]	@ count, %sfp
	add	r6, r0, #128	@ ivtmp.3531, ivtmp.3531,
	mov	r7, #0	@ j.3548,
.L648:
	ldrsb	lr, [r6, #2]	@ <variable>.DispState, <variable>.DispState
	rsb	r1, r5, r4	@, len.3724, count
	ldrsb	r3, [r6, #0]	@ <variable>.IsDecRef, <variable>.IsDecRef
	add	r0, r8, r5	@, page, len.3724
	movw	r2, #:lower16:.LC237	@,
	movt	r2, #:upper16:.LC237	@,
	str	lr, [sp, #0]	@ <variable>.DispState,
	bl	snprintf	@
	ldrsb	r2, [r9, #21]	@ <variable>.s32DecFsNum, <variable>.s32DecFsNum
	add	r7, r7, #1	@ j.3548, j.3548,
	add	r6, r6, #48	@ ivtmp.3531, ivtmp.3531,
	cmp	r2, r7	@ <variable>.s32DecFsNum, j.3548
	add	r5, r5, r0	@ len.3724, len.3724,
	ble	.L669	@,
	tst	r7, #15	@ j.3548,
	bne	.L648	@,
	add	r0, r8, r5	@, page, len.3724
	rsb	r1, r5, r4	@, len.3724, count
	movw	r2, #:lower16:.LC44	@,
	movt	r2, #:upper16:.LC44	@,
	bl	snprintf	@
	add	r5, r5, r0	@ len.3724, len.3724,
	b	.L648	@
.L669:
	str	r4, [fp, #-108]	@ count, %sfp
.L647:
	ldr	r3, [fp, #-108]	@, %sfp
	add	r0, r8, r5	@, page, len.3724
	ldrsb	r6, [r9, #22]	@ <variable>.s32DispFsNum, <variable>.s32DispFsNum
	movw	r2, #:lower16:.LC226	@,
	rsb	r1, r5, r3	@, len.3724,
	movt	r2, #:upper16:.LC226	@,
	movw	r3, #:lower16:.LC250	@,
	movt	r3, #:upper16:.LC250	@,
	str	r6, [sp, #0]	@ <variable>.s32DispFsNum,
	bl	snprintf	@
	ldrsb	r4, [r9, #22]	@ <variable>.s32DispFsNum, <variable>.s32DispFsNum
	cmp	r4, #0	@ <variable>.s32DispFsNum,
	add	r5, r0, r5	@ len.3736,, len.3724
	ble	.L651	@,
	add	r1, r9, #34816	@ ivtmp.3525, pFsp,
	ldr	r4, [fp, #-108]	@ count, %sfp
	add	r6, r1, #128	@ ivtmp.3525, ivtmp.3525,
	mov	r7, #0	@ j.3549,
.L652:
	ldrsb	lr, [r6, #2]	@ <variable>.DispState, <variable>.DispState
	rsb	r1, r5, r4	@, len.3736, count
	ldrsb	r3, [r6, #0]	@ <variable>.IsDecRef, <variable>.IsDecRef
	add	r0, r8, r5	@, page, len.3736
	movw	r2, #:lower16:.LC237	@,
	movt	r2, #:upper16:.LC237	@,
	str	lr, [sp, #0]	@ <variable>.DispState,
	bl	snprintf	@
	ldrsb	ip, [r9, #22]	@ <variable>.s32DispFsNum, <variable>.s32DispFsNum
	add	r7, r7, #1	@ j.3549, j.3549,
	add	r6, r6, #48	@ ivtmp.3525, ivtmp.3525,
	cmp	ip, r7	@ <variable>.s32DispFsNum, j.3549
	add	r5, r5, r0	@ len.3736, len.3736,
	ble	.L670	@,
	tst	r7, #15	@ j.3549,
	bne	.L652	@,
	add	r0, r8, r5	@, page, len.3736
	rsb	r1, r5, r4	@, len.3736, count
	movw	r2, #:lower16:.LC44	@,
	movt	r2, #:upper16:.LC44	@,
	bl	snprintf	@
	add	r5, r5, r0	@ len.3736, len.3736,
	b	.L652	@
.L670:
	str	r4, [fp, #-108]	@ count, %sfp
.L651:
	ldrsb	r6, [r9, #0]	@ <variable>.s32PmvNum, <variable>.s32PmvNum
	movw	r2, #:lower16:.LC226	@,
	ldr	r0, [fp, #-108]	@, %sfp
	movt	r2, #:upper16:.LC226	@,
	movw	r3, #:lower16:.LC251	@,
	movt	r3, #:upper16:.LC251	@,
	rsb	r1, r5, r0	@, len.3736,
	add	r0, r8, r5	@, page, len.3736
	str	r6, [sp, #0]	@ <variable>.s32PmvNum,
	bl	snprintf	@
	ldrsb	r4, [r9, #21]	@ <variable>.s32DecFsNum, <variable>.s32DecFsNum
	movw	r2, #:lower16:.LC226	@,
	movw	r3, #:lower16:.LC249	@,
	movt	r2, #:upper16:.LC226	@,
	movt	r3, #:upper16:.LC249	@,
	str	r4, [sp, #0]	@ <variable>.s32DecFsNum,
	ldr	r4, [fp, #-108]	@, %sfp
	add	r5, r0, r5	@ len.3893,, len.3736
	add	r0, r8, r5	@, page, len.3893
	rsb	r1, r5, r4	@, len.3893,
	bl	snprintf	@
	add	r6, r5, r0	@ len.3542, len.3893,
.L639:
	ldr	lr, [fp, #-108]	@, %sfp
	add	r0, r8, r6	@, page, len.3542
	movw	r2, #:lower16:.LC44	@,
	movt	r2, #:upper16:.LC44	@,
	rsb	r1, r6, lr	@, len.3542,
	bl	snprintf	@
	ldr	ip, [fp, #-84]	@, %sfp
	mov	r1, #0	@ tmp772,
	mov	r2, #1	@ tmp773,
	str	r1, [ip, #0]	@ tmp772,
	ldr	r3, [fp, #4]	@ eof, eof
	str	r2, [r3, #0]	@ tmp773,* eof
	add	r5, r0, r6	@ len.3543,, len.3542
	b	.L629	@
.L663:
	ldr	r0, [fp, #-76]	@, %sfp
	cmp	r0, #0	@,
	beq	.L671	@,
	ldr	r3, [fp, #-76]	@, %sfp
	movw	r2, #:lower16:.LC226	@,
	ldr	r0, [fp, #-108]	@, %sfp
	movt	r2, #:upper16:.LC226	@,
	ldrsb	lr, [r3, #116]	@ <variable>.stInstCfg.s32DispLoopEnable, <variable>.stInstCfg.s32DispLoopEnable
	rsb	r1, r5, r0	@, len.3543,
	movw	r3, #:lower16:.LC227	@,
	add	r0, r8, r5	@, page, len.3543
	movt	r3, #:upper16:.LC227	@,
	str	lr, [sp, #0]	@ <variable>.stInstCfg.s32DispLoopEnable,
	bl	snprintf	@
	ldr	ip, [fp, #-76]	@, %sfp
	movw	r2, #:lower16:.LC132	@,
	movw	r3, #:lower16:.LC228	@,
	movt	r2, #:upper16:.LC132	@,
	movt	r3, #:upper16:.LC228	@,
	ldr	r6, [ip, #128]	@ <variable>.stInstCfg.s32DecFsWidth, <variable>.stInstCfg.s32DecFsWidth
	str	r6, [sp, #0]	@ <variable>.stInstCfg.s32DecFsWidth,
	ldr	r6, [fp, #-108]	@, %sfp
	add	r4, r0, r5	@ len.3743,, len.3543
	rsb	r1, r4, r6	@, len.3743,
	add	r0, r8, r4	@, page, len.3743
	bl	snprintf	@
	ldr	r2, [fp, #-76]	@, %sfp
	movw	r3, #:lower16:.LC229	@,
	movt	r3, #:upper16:.LC229	@,
	ldr	r1, [r2, #132]	@ <variable>.stInstCfg.s32DecFsHeight, <variable>.stInstCfg.s32DecFsHeight
	movw	r2, #:lower16:.LC132	@,
	movt	r2, #:upper16:.LC132	@,
	str	r1, [sp, #0]	@ <variable>.stInstCfg.s32DecFsHeight,
	add	r5, r4, r0	@ len.3748, len.3743,
	rsb	r1, r5, r6	@, len.3748,
	add	r0, r8, r5	@, page, len.3748
	bl	snprintf	@
	ldr	lr, [fp, #-76]	@, %sfp
	movw	r2, #:lower16:.LC132	@,
	movw	r3, #:lower16:.LC230	@,
	movt	r2, #:upper16:.LC132	@,
	movt	r3, #:upper16:.LC230	@,
	ldr	r1, [lr, #144]	@ <variable>.stInstCfg.s32DispFsWidth, <variable>.stInstCfg.s32DispFsWidth
	str	r1, [sp, #0]	@ <variable>.stInstCfg.s32DispFsWidth,
	add	r4, r5, r0	@ len.3753, len.3748,
	rsb	r1, r4, r6	@, len.3753,
	add	r0, r8, r4	@, page, len.3753
	bl	snprintf	@
	ldr	r3, [fp, #-76]	@, %sfp
	movw	r2, #:lower16:.LC132	@,
	movt	r2, #:upper16:.LC132	@,
	ldr	ip, [r3, #148]	@ <variable>.stInstCfg.s32DispFsHeight, <variable>.stInstCfg.s32DispFsHeight
	movw	r3, #:lower16:.LC231	@,
	movt	r3, #:upper16:.LC231	@,
	str	ip, [sp, #0]	@ <variable>.stInstCfg.s32DispFsHeight,
	add	r5, r4, r0	@ len.3758, len.3753,
	rsb	r1, r5, r6	@, len.3758,
	add	r0, r8, r5	@, page, len.3758
	bl	snprintf	@
	ldr	r2, [fp, #-76]	@, %sfp
	movw	r3, #:lower16:.LC232	@,
	movt	r3, #:upper16:.LC232	@,
	ldrsb	r1, [r2, #121]	@ <variable>.stInstCfg.s32ExpectedDecFsNum, <variable>.stInstCfg.s32ExpectedDecFsNum
	movw	r2, #:lower16:.LC132	@,
	movt	r2, #:upper16:.LC132	@,
	str	r1, [sp, #0]	@ <variable>.stInstCfg.s32ExpectedDecFsNum,
	add	r5, r5, r0	@ len.3763, len.3758,
	rsb	r1, r5, r6	@, len.3763,
	add	r0, r8, r5	@, page, len.3763
	bl	snprintf	@
	ldr	r6, [fp, #-76]	@, %sfp
	movw	r2, #:lower16:.LC132	@,
	movw	r3, #:lower16:.LC233	@,
	movt	r2, #:upper16:.LC132	@,
	movt	r3, #:upper16:.LC233	@,
	ldrsb	r4, [r6, #123]	@ <variable>.stInstCfg.s32ExpectedDispFsNum, <variable>.stInstCfg.s32ExpectedDispFsNum
	str	r4, [sp, #0]	@ <variable>.stInstCfg.s32ExpectedDispFsNum,
	add	r5, r5, r0	@ len.3768, len.3763,
	ldr	r0, [fp, #-108]	@, %sfp
	rsb	r1, r5, r0	@, len.3768,
	add	r0, r8, r5	@, page, len.3768
	bl	snprintf	@
	ldrsb	ip, [r6, #1]	@ <variable>.s8LevelID, <variable>.s8LevelID
	ldr	lr, [fp, #-108]	@, %sfp
	movw	r2, #:lower16:.LC132	@,
	movw	r3, #:lower16:.LC234	@,
	movt	r2, #:upper16:.LC132	@,
	movt	r3, #:upper16:.LC234	@,
	str	ip, [sp, #0]	@ <variable>.s8LevelID,
	add	r4, r5, r0	@ len.3773, len.3768,
	rsb	r1, r4, lr	@, len.3773,
	add	r0, r8, r4	@, page, len.3773
	bl	snprintf	@
	ldr	r1, [sl, #4]	@ <variable>.s32DispFsNum, <variable>.s32DispFsNum
	movw	r2, #:lower16:.LC235	@,
	movw	r3, #:lower16:.LC236	@,
	movt	r2, #:upper16:.LC235	@,
	movt	r3, #:upper16:.LC236	@,
	str	r1, [sp, #0]	@ <variable>.s32DispFsNum,
	add	r5, r4, r0	@ len.3778, len.3773,
	ldr	r4, [fp, #-108]	@, %sfp
	add	r0, r8, r5	@, page, len.3778
	rsb	r1, r5, r4	@, len.3778,
	bl	snprintf	@
	ldr	r6, [sl, #4]	@ <variable>.s32DispFsNum, <variable>.s32DispFsNum
	cmp	r6, #0	@ <variable>.s32DispFsNum,
	add	r6, r5, r0	@ len.3713, len.3778,
	ble	.L636	@,
	add	r7, sl, #6144	@ ivtmp.3519, pTreeFs,
	movw	r9, #:lower16:1717986919	@ tmp792,
	add	r7, r7, #56	@ ivtmp.3519, ivtmp.3519,
	movt	r9, #:upper16:1717986919	@ tmp792,
	mov	r5, #0	@ j.3793,
	ldr	r4, [fp, #-108]	@ count, %sfp
	b	.L638	@
.L637:
	ldrsb	ip, [r7, #2]	@ <variable>.DispState, <variable>.DispState
	add	r0, r8, r6	@, page, len.3713
	ldrsb	r3, [r7, #0]	@ <variable>.IsDecRef, <variable>.IsDecRef
	rsb	r1, r6, r4	@, len.3713, count
	movw	r2, #:lower16:.LC237	@,
	movt	r2, #:upper16:.LC237	@,
	str	ip, [sp, #0]	@ <variable>.DispState,
	bl	snprintf	@
	ldr	r3, [sl, #4]	@ <variable>.s32DispFsNum, <variable>.s32DispFsNum
	add	r7, r7, #48	@ ivtmp.3519, ivtmp.3519,
	cmp	r3, r5	@ <variable>.s32DispFsNum, j.3793
	add	r6, r6, r0	@ len.3713, len.3713,
	ble	.L672	@,
.L638:
	smull	ip, r2, r9, r5	@, tmp632, tmp792, j.3793
	mov	lr, r5, asr #31	@ tmp635, j.3793,
	rsb	ip, lr, r2, asr #2	@, tmp631, tmp635, tmp632,
	add	r1, ip, ip, asl #2	@, tmp638, tmp631, tmp631,
	cmp	r5, r1, asl #1	@ j.3793, tmp638,
	add	r5, r5, #1	@ j.3793, j.3793,
	bne	.L637	@,
	rsb	r1, r6, r4	@, len.3713, count
	add	r0, r8, r6	@, page, len.3713
	movw	r2, #:lower16:.LC44	@,
	movt	r2, #:upper16:.LC44	@,
	bl	snprintf	@
	add	r6, r6, r0	@ len.3713, len.3713,
	b	.L637	@
.L664:
	mov	r0, r9	@, pFsp
	mov	r3, r7	@, i
	movw	r1, #:lower16:.LC183	@,
	movw	r2, #8138	@,
	movt	r1, #:upper16:.LC183	@,
	bl	dprint_vfmw	@
	b	.L629	@
.L672:
	str	r4, [fp, #-108]	@ count, %sfp
.L636:
	ldr	ip, [sl, #0]	@ <variable>.s32DecFsNum, <variable>.s32DecFsNum
	add	r0, r8, r6	@, page, len.3713
	ldr	lr, [fp, #-108]	@, %sfp
	movw	r2, #:lower16:.LC238	@,
	movw	r3, #:lower16:.LC239	@,
	movt	r2, #:upper16:.LC238	@,
	rsb	r1, r6, lr	@, len.3713,
	movt	r3, #:upper16:.LC239	@,
	str	ip, [sp, #0]	@ <variable>.s32DecFsNum,
	bl	snprintf	@
	ldr	r5, [sl, #0]	@ <variable>.s32DecFsNum, <variable>.s32DecFsNum
	cmp	r5, #0	@ <variable>.s32DecFsNum,
	add	r6, r0, r6	@ len.3542,, len.3713
	ble	.L639	@,
	movw	r9, #:lower16:1717986919	@ tmp789,
	mov	r7, sl	@ ivtmp.3515, pTreeFs
	movt	r9, #:upper16:1717986919	@ tmp789,
	mov	r5, #0	@ j,
	ldr	r4, [fp, #-108]	@ count, %sfp
	b	.L641	@
.L640:
	ldrsb	lr, [r7, #58]	@ <variable>.DispState, <variable>.DispState
	add	r0, r8, r6	@, page, len.3542
	ldrsb	r3, [r7, #56]	@ <variable>.IsDecRef, <variable>.IsDecRef
	rsb	r1, r6, r4	@, len.3542, count
	movw	r2, #:lower16:.LC237	@,
	movt	r2, #:upper16:.LC237	@,
	str	lr, [sp, #0]	@ <variable>.DispState,
	bl	snprintf	@
	ldr	ip, [sl, #0]	@ <variable>.s32DecFsNum, <variable>.s32DecFsNum
	add	r7, r7, #48	@ ivtmp.3515, ivtmp.3515,
	cmp	ip, r5	@ <variable>.s32DecFsNum, j
	add	r6, r6, r0	@ len.3542, len.3542,
	ble	.L673	@,
.L641:
	smull	r0, r2, r9, r5	@, tmp657, tmp789, j
	mov	r3, r5, asr #31	@ tmp660, j,
	rsb	r1, r3, r2, asr #2	@, tmp656, tmp660, tmp657,
	add	r0, r1, r1, asl #2	@, tmp663, tmp656, tmp656,
	cmp	r5, r0, asl #1	@ j, tmp663,
	add	r5, r5, #1	@ j, j,
	bne	.L640	@,
	rsb	r1, r6, r4	@, len.3542, count
	add	r0, r8, r6	@, page, len.3542
	movw	r2, #:lower16:.LC44	@,
	movt	r2, #:upper16:.LC44	@,
	bl	snprintf	@
	add	r6, r6, r0	@ len.3542, len.3542,
	b	.L640	@
.L673:
	str	r4, [fp, #-108]	@ count, %sfp
	b	.L639	@
.L662:
	ldr	ip, [r6, #900]	@ <variable>.stRecentUsrdecFrame.s32YWidth, <variable>.stRecentUsrdecFrame.s32YWidth
	rsb	r1, r5, r4	@,,
	ldr	r3, [r6, #880]	@ <variable>.stRecentUsrdecFrame.enFmt, <variable>.stRecentUsrdecFrame.enFmt
	add	r0, r8, r5	@, page,
	movw	r2, #:lower16:.LC207	@,
	movt	r2, #:upper16:.LC207	@,
	str	ip, [sp, #0]	@ <variable>.stRecentUsrdecFrame.s32YWidth,
	mov	ip, #888	@ tmp459,
	ldr	lr, [r6, #904]	@ <variable>.stRecentUsrdecFrame.s32YHeight, <variable>.stRecentUsrdecFrame.s32YHeight
	str	lr, [sp, #4]	@ <variable>.stRecentUsrdecFrame.s32YHeight,
	ldr	r4, [r6, #912]	@ <variable>.stRecentUsrdecFrame.s32LumaStride, <variable>.stRecentUsrdecFrame.s32LumaStride
	str	r4, [sp, #8]	@ <variable>.stRecentUsrdecFrame.s32LumaStride,
	ldr	r5, [r6, #924]	@ <variable>.stRecentUsrdecFrame.s32ChromStride, <variable>.stRecentUsrdecFrame.s32ChromStride
	str	r5, [sp, #12]	@ <variable>.stRecentUsrdecFrame.s32ChromStride,
	ldrd	r4, [r6, ip]	@, pChan, tmp459
	strd	r4, [sp, #16]	@,,
	bl	snprintf	@
	ldr	r2, [fp, #-104]	@, %sfp
	add	r3, r2, r0	@,,
	str	r3, [fp, #-104]	@, %sfp
	b	.L633	@
.L671:
	movw	r1, #:lower16:.LC225	@,
	ldr	r2, .L674	@,
	movt	r1, #:upper16:.LC225	@,
	movw	r3, #8085	@,
	add	r0, r0, #22	@,,
	bl	dprint_vfmw	@
	b	.L629	@
.L668:
	add	lr, sl, #44288	@ pTreeFs, temp.3547,
	mov	r9, #0	@ pFsp,
	add	sl, lr, #84	@ pTreeFs, pTreeFs,
	b	.L628	@
.L626:
	add	r6, sl, #31744	@ pTreeFs, temp.3547,
	mov	r9, #0	@ pFsp,
	add	sl, r6, #236	@ pTreeFs, pTreeFs,
	b	.L628	@
.L661:
	mov	r0, r9	@, pFsp
	mov	r3, r7	@, i
	movw	r1, #:lower16:.LC183	@,
	movw	r2, #8003	@,
	movt	r1, #:upper16:.LC183	@,
	bl	dprint_vfmw	@
	b	.L629	@
.L675:
	.align	2
.L674:
	.word	.LANCHOR1+72
	.fnend
	.size	vfmw_read_proc_dec, .-vfmw_read_proc_dec
	.align	2
	.global	VCTRL_GetDecParam
	.type	VCTRL_GetDecParam, %function
VCTRL_GetDecParam:
	.fnstart
.LFB1407:
	@ args = 0, pretend = 0, frame = 0
	@ frame_needed = 1, uses_anonymous_args = 0
	.movsp ip
	mov	ip, sp	@,
	stmfd	sp!, {r4, r5, fp, ip, lr, pc}	@,
	.pad #4
	.save {r4, r5, fp, ip, lr}
	.setfp fp, ip, #-4
	sub	fp, ip, #4	@,,
	push	{lr}
	bl	__gnu_mcount_nc
	cmp	r0, #15	@ ChanId,
	bhi	.L677	@,
	movw	r2, #:lower16:.LANCHOR0	@ tmp147,
	movt	r2, #:upper16:.LANCHOR0	@ tmp147,
	ldr	r5, [r2, r0, asl #2]	@ D.37379, s_pstVfmwChan
	cmp	r5, #0	@ D.37379,
	beq	.L677	@,
	ldr	r3, [r5, #12]	@ <variable>.s32IsOpen, <variable>.s32IsOpen
	cmp	r3, #1	@ <variable>.s32IsOpen,
	beq	.L697	@,
.L680:
	mov	r4, #0	@ pDecParam,
.L679:
	mov	r0, r4	@, pDecParam
	ldmfd	sp, {r4, r5, fp, sp, pc}	@
.L677:
	mov	r3, r0	@, ChanId
	movw	r2, #3910	@,
	mov	r4, #0	@ pDecParam,
	mov	r0, #22	@,
	movw	r1, #:lower16:.LC252	@,
	movt	r1, #:upper16:.LC252	@,
	bl	dprint_vfmw	@
	mov	r0, r4	@, pDecParam
	ldmfd	sp, {r4, r5, fp, sp, pc}	@
.L697:
	ldr	r0, [r5, #16]	@ <variable>.s32IsRun, <variable>.s32IsRun
	cmp	r0, #1	@ <variable>.s32IsRun,
	bne	.L680	@,
	ldr	r1, [r5, #936]	@ <variable>.eVidStd, <variable>.eVidStd
	cmp	r1, #15	@ <variable>.eVidStd,
	ldrls	pc, [pc, r1, asl #2]	@ <variable>.eVidStd
	b	.L680	@
.L693:
	.word	.L692
	.word	.L696
	.word	.L684
	.word	.L696
	.word	.L680
	.word	.L696
	.word	.L696
	.word	.L680
	.word	.L696
	.word	.L696
	.word	.L690
	.word	.L690
	.word	.L690
	.word	.L696
	.word	.L680
	.word	.L692
.L690:
	ldr	r4, [r2, #64]	@ g_VdmCharacter, g_VdmCharacter
	tst	r4, #1	@ g_VdmCharacter,
	beq	.L680	@,
.L696:
	ldr	r4, [r5, #956]	@ pDecParam,
.L694:
	cmp	r4, #0	@ pDecParam,
	beq	.L679	@,
	bl	OSAL_GetTimeInMs	@
	str	r0, [r5, #32]	@, <variable>.u32timeLastDecParamReady
	b	.L679	@
.L692:
	ldr	r4, [r5, #1312]	@ pDecParam,
	b	.L694	@
.L684:
	ldr	r4, [r5, #1988]	@ pDecParam, <variable>.stSynCtx.unSyntax.stMpeg4Ctx.pMp4DecParam
	b	.L694	@
	.fnend
	.size	VCTRL_GetDecParam, .-VCTRL_GetDecParam
	.align	2
	.global	VCTRL_ChanDecparamInValidFlag
	.type	VCTRL_ChanDecparamInValidFlag, %function
VCTRL_ChanDecparamInValidFlag:
	.fnstart
.LFB1408:
	@ args = 0, pretend = 0, frame = 8
	@ frame_needed = 1, uses_anonymous_args = 0
	.movsp ip
	mov	ip, sp	@,
	stmfd	sp!, {r4, r5, r6, r7, fp, ip, lr, pc}	@,
	.pad #4
	.save {r4, r5, r6, r7, fp, ip, lr}
	.setfp fp, ip, #-4
	sub	fp, ip, #4	@,,
	.pad #8
	sub	sp, sp, #8	@,,
	push	{lr}
	bl	__gnu_mcount_nc
	cmp	r0, #15	@ ChanId,
	mov	r2, r0	@ ChanId, ChanId
	bhi	.L699	@,
	movw	r4, #:lower16:.LANCHOR0	@ tmp144,
	movt	r4, #:upper16:.LANCHOR0	@ tmp144,
	ldr	r3, [r4, r0, asl #2]	@ D.37406, s_pstVfmwChan
	cmp	r3, #0	@ D.37406,
	beq	.L699	@,
	ldr	r1, [r3, #12]	@ <variable>.s32IsOpen, <variable>.s32IsOpen
	cmp	r1, #1	@ <variable>.s32IsOpen,
	bne	.L702	@,
	ldr	r5, [r3, #16]	@ <variable>.s32IsRun, <variable>.s32IsRun
	cmp	r5, #1	@ <variable>.s32IsRun,
	beq	.L703	@,
.L702:
	mov	r0, #22	@,
	movw	r1, #:lower16:.LC253	@,
	movt	r1, #:upper16:.LC253	@,
	bl	dprint_vfmw	@
	mov	r3, #0	@ D.37408,
.L701:
	mov	r0, r3	@, D.37408
	sub	sp, fp, #28
	ldmfd	sp, {r4, r5, r6, r7, fp, sp, pc}
.L699:
	mov	r3, r2	@, ChanId
	mov	r0, #22	@,
	movw	r1, #:lower16:.LC252	@,
	movw	r2, #4014	@,
	movt	r1, #:upper16:.LC252	@,
	bl	dprint_vfmw	@
	mov	r3, #0	@ D.37408,
	b	.L701	@
.L703:
	str	r0, [fp, #-32]	@ tmp2,
	bl	VCTRL_GetDecParam	@
	ldr	r2, [fp, #-32]	@,
	subs	r6, r0, #0	@ pDecParam,
	beq	.L709	@,
	ldr	r0, [r4, r2, asl #2]	@ tmp154, s_pstVfmwChan
	mov	ip, #0	@ tmp155,
	mov	r3, ip	@ D.37408, tmp155
	str	ip, [r0, #736]	@ tmp155, <variable>.s32CountNoDecparamFlag
	ldr	r2, [r4, r2, asl #2]	@ tmp157, s_pstVfmwChan
	str	ip, [r2, #740]	@ tmp155, <variable>.u32NoDecparamStartTime
	b	.L701	@
.L709:
	ldr	r3, [r4, r2, asl #2]	@ temp.3960, s_pstVfmwChan
	ldr	r7, [r3, #736]	@ <variable>.s32CountNoDecparamFlag, <variable>.s32CountNoDecparamFlag
	cmp	r7, #0	@ <variable>.s32CountNoDecparamFlag,
	beq	.L710	@,
	str	r2, [fp, #-32]	@,
	bl	OSAL_GetTimeInMs	@
	ldr	r2, [fp, #-32]	@,
	ldr	r3, [r4, r2, asl #2]	@ temp.3964, s_pstVfmwChan
	ldr	r1, [r3, #740]	@ D.37429, <variable>.u32NoDecparamStartTime
	cmp	r0, r1	@ tmp, D.37429
	bls	.L706	@,
	rsb	lr, r1, r0	@ tmp160, D.37429, tmp
	cmp	lr, #40	@ tmp160,
	movls	r3, r6	@ D.37408, pDecParam
	bls	.L701	@,
.L706:
	str	r6, [r3, #736]	@ pDecParam, <variable>.s32CountNoDecparamFlag
	mov	r3, r5	@ D.37408, <variable>.s32IsRun
	ldr	r1, [r4, r2, asl #2]	@ tmp167, s_pstVfmwChan
	str	r6, [r1, #740]	@ pDecParam, <variable>.u32NoDecparamStartTime
	b	.L701	@
.L710:
	str	r5, [r3, #736]	@ <variable>.s32IsRun, <variable>.s32CountNoDecparamFlag
	ldr	r4, [r4, r2, asl #2]	@ temp.3961, s_pstVfmwChan
	bl	OSAL_GetTimeInMs	@
	mov	r3, r7	@ D.37408, <variable>.s32CountNoDecparamFlag
	str	r0, [r4, #740]	@, <variable>.u32NoDecparamStartTime
	b	.L701	@
	.fnend
	.size	VCTRL_ChanDecparamInValidFlag, .-VCTRL_ChanDecparamInValidFlag
	.align	2
	.global	VCTRL_GetChanState
	.type	VCTRL_GetChanState, %function
VCTRL_GetChanState:
	.fnstart
.LFB1383:
	@ args = 0, pretend = 0, frame = 64
	@ frame_needed = 1, uses_anonymous_args = 0
	.movsp ip
	mov	ip, sp	@,
	stmfd	sp!, {r4, r5, r6, r7, r8, fp, ip, lr, pc}	@,
	.pad #4
	.save {r4, r5, r6, r7, r8, fp, ip, lr}
	.setfp fp, ip, #-4
	sub	fp, ip, #4	@,,
	.pad #68
	sub	sp, sp, #68	@,,
	push	{lr}
	bl	__gnu_mcount_nc
	subs	r4, r1, #0	@ pstChanState, pstChanState
	mov	r5, r0	@ ChanID, ChanID
	beq	.L717	@,
	movw	r6, #:lower16:.LANCHOR0	@ tmp202,
	movt	r6, #:upper16:.LANCHOR0	@ tmp202,
	mov	r0, r4	@, pstChanState
	mov	r1, #104	@,
	mov	r7, #0	@ tmp142,
	str	r7, [fp, #-40]	@ tmp142, RefNum
	str	r7, [fp, #-44]	@ tmp142, ReadNum
	str	r7, [fp, #-48]	@ tmp142, NewNum
	bl	__memzero	@
	ldr	r3, [r6, r5, asl #2]	@ D.35973, s_pstVfmwChan
	cmp	r3, r7	@ D.35973,
	beq	.L717	@,
	movw	r1, #:lower16:11200908	@,
	movt	r1, #:upper16:11200908	@,
	add	r1, r3, r1	@, D.35973,
	mov	r0, r4	@, pstChanState
	mov	r2, #104	@,
	bl	memcpy	@
	ldr	r0, [r6, r5, asl #2]	@ temp.4001, s_pstVfmwChan
	movw	r3, #:lower16:11381357	@ tmp153,
	movt	r3, #:upper16:11381357	@ tmp153,
	ldrsb	lr, [r0, r3]	@ D.35981, <variable>.FspInst.s32DecFsNum
	cmp	lr, r7	@ D.35981,
	ble	.L714	@,
	movw	r1, #:lower16:11413210	@ tmp161,
	movt	r1, #:upper16:11413210	@ tmp161,
	add	r3, r0, r1	@ tmp161, temp.4001, tmp161
	add	lr, lr, lr, asl #1	@, tmp158, D.35981, D.35981,
	ldrsb	r2, [r3, #0]	@ <variable>.DispState, <variable>.DispState
	mov	lr, lr, asl #4	@ D.43981, tmp158,
	sub	ip, lr, #48	@ tmp208, D.43981,
	cmp	r2, #3	@ <variable>.DispState,
	ubfx	r2, ip, #4, #1	@ tmp212, tmp208,,
	beq	.L730	@,
.L719:
	mov	r3, #48	@ ivtmp.3996,
	cmp	r3, lr	@ ivtmp.3996, D.43981
	beq	.L714	@,
	cmp	r2, #0	@ tmp212,
	beq	.L716	@,
	movw	ip, #:lower16:11413258	@ tmp227,
	movt	ip, #:upper16:11413258	@ tmp227,
	add	r2, r0, ip	@ tmp227, temp.4001, tmp227
	add	r3, r3, #48	@ ivtmp.3996, ivtmp.3996,
	ldrsb	r1, [r2, #0]	@ <variable>.DispState, <variable>.DispState
	cmp	r1, #3	@ <variable>.DispState,
	addeq	r7, r7, #1	@ s32DecodedFrameNum, s32DecodedFrameNum,
	cmp	r3, lr	@ ivtmp.3996, D.43981
	bne	.L716	@,
	b	.L714	@
.L724:
	add	r3, r1, #48	@ ivtmp.3996, tmp213,
	cmp	r3, lr	@ ivtmp.3996, D.43981
	beq	.L714	@,
.L716:
	movw	r2, #:lower16:11413210	@ tmp218,
	movt	r2, #:upper16:11413210	@ tmp218,
	add	r1, r3, #48	@ tmp213, ivtmp.3996,
	add	r8, r0, r3	@ tmp216, temp.4001, ivtmp.3996
	add	ip, r0, r1	@ tmp221, temp.4001, tmp213
	mov	r3, r2	@ tmp223, tmp218
	add	r2, r8, r2	@ tmp218, tmp216, tmp218
	add	r3, ip, r3	@ tmp223, tmp221, tmp223
	ldrsb	r2, [r2, #0]	@ <variable>.DispState, <variable>.DispState
	ldrsb	ip, [r3, #0]	@ <variable>.DispState, <variable>.DispState
	cmp	r2, #3	@ <variable>.DispState,
	addeq	r7, r7, #1	@ s32DecodedFrameNum, s32DecodedFrameNum,
	cmp	ip, #3	@ <variable>.DispState,
	bne	.L724	@,
	add	r3, r1, #48	@ ivtmp.3996, tmp213,
	add	r7, r7, #1	@ s32DecodedFrameNum, s32DecodedFrameNum,
	cmp	r3, lr	@ ivtmp.3996, D.43981
	bne	.L716	@,
.L714:
	str	r7, [r4, #88]	@ prephitmp.3981, <variable>.wait_disp_frame_num
	movw	ip, #:lower16:11381357	@ tmp166,
	ldr	lr, [r6, r5, asl #2]	@ tmp165, s_pstVfmwChan
	movt	ip, #:upper16:11381357	@ tmp166,
	sub	r2, fp, #44	@,,
	sub	r3, fp, #48	@,,
	mov	r0, r5	@, ChanID
	sub	r1, fp, #40	@,,
	ldrsb	ip, [lr, ip]	@ <variable>.FspInst.s32DecFsNum, <variable>.FspInst.s32DecFsNum
	str	ip, [r4, #96]	@ <variable>.FspInst.s32DecFsNum, <variable>.total_disp_frame_num
	bl	VCTRL_GetChanImgNum	@
	mov	r0, #300	@ tmp177,
	mla	r3, r0, r5, r6	@ tmp178, tmp177, ChanID, tmp202
	ldr	ip, [fp, #-48]	@ NewNum, NewNum
	ldr	r2, [fp, #-44]	@ ReadNum, ReadNum
	sub	r1, fp, #96	@,,
	mov	r0, r5	@, ChanID
	add	r2, ip, r2	@ tmp173, NewNum, ReadNum
	str	r2, [r4, #52]	@ tmp173, <variable>.decoded_1d_frame_num
	ldr	ip, [r3, #204]	@ <variable>.u32IsFieldFlag, <variable>.u32IsFieldFlag
	str	ip, [r4, #100]	@ <variable>.u32IsFieldFlag, <variable>.is_field_flg
	ldr	r2, [r3, #192]	@ <variable>.u32FrFrameRate, <variable>.u32FrFrameRate
	str	r2, [r4, #24]	@ <variable>.u32FrFrameRate, <variable>.frame_rate
	bl	SM_GetInfo	@
	ldr	ip, [fp, #-80]	@ SmInstInfo.TotalSegSize, SmInstInfo.TotalSegSize
	sub	r1, fp, #72	@,,
	mov	r0, r5	@, ChanID
	str	ip, [r4, #56]	@ SmInstInfo.TotalSegSize, <variable>.buffered_stream_size
	ldr	r3, [fp, #-88]	@ SmInstInfo.SegNum, SmInstInfo.SegNum
	str	r3, [r4, #60]	@ SmInstInfo.SegNum, <variable>.buffered_stream_num
	bl	SM_GetInfo	@
	ldr	r1, [fp, #-52]	@ ScdInstInfo.numReadSegFail, ScdInstInfo.numReadSegFail
	movw	ip, #16816	@ tmp196,
	cmp	r1, #10	@ ScdInstInfo.numReadSegFail,
	movle	r0, #0	@, tmp193
	movgt	r0, #1	@, tmp193
	str	r0, [r4, #84]	@ tmp193, <variable>.stream_not_enough
	ldr	r2, [r6, r5, asl #2]	@ tmp195, s_pstVfmwChan
	ldrb	r3, [r2, ip]	@ zero_extendqisi2	@ tmp198,
	and	r1, r3, #1	@ tmp200, tmp198,
	add	r0, r1, #1	@ tmp201, tmp200,
	str	r0, [r4, #92]	@ tmp201, <variable>.mpeg4_shorthead
.L717:
	sub	sp, fp, #32
	ldmfd	sp, {r4, r5, r6, r7, r8, fp, sp, pc}
.L730:
	mov	r7, #1	@ s32DecodedFrameNum,
	b	.L719	@
	.fnend
	.size	VCTRL_GetChanState, .-VCTRL_GetChanState
	.align	2
	.global	CloseDrivers
	.type	CloseDrivers, %function
CloseDrivers:
	.fnstart
.LFB1430:
	@ args = 0, pretend = 0, frame = 0
	@ frame_needed = 1, uses_anonymous_args = 0
	.movsp ip
	mov	ip, sp	@,
	stmfd	sp!, {r4, r5, r6, r7, fp, ip, lr, pc}	@,
	.pad #4
	.save {r4, r5, r6, r7, fp, ip, lr}
	.setfp fp, ip, #-4
	sub	fp, ip, #4	@,,
	push	{lr}
	bl	__gnu_mcount_nc
	ldr	r5, [r0, #8]	@ Length, <variable>.Length
	mov	r4, r0	@ pstDrvMem, pstDrvMem
	ldr	r7, [r0, #0]	@ PhyAddr, <variable>.PhyAddr
	cmp	r5, #0	@ Length,
	ldr	r6, [r0, #4]	@ VirAddr, <variable>.VirAddr
	beq	.L732	@,
	movw	r3, #:lower16:g_vdm_hal_fun_ptr	@ tmp157,
	movt	r3, #:upper16:g_vdm_hal_fun_ptr	@ tmp157,
	ldr	r3, [r3, #32]	@ D.38560, g_vdm_hal_fun_ptr.pfun_VDMHAL_CloseHAL
	cmp	r3, #0	@ D.38560,
	beq	.L733	@,
	mov	r0, #0	@,
	blx	r3	@ D.38560
.L734:
	ldmia	r4, {r0, r1}	@ phole ldm
	bl	MEM_ReleaseMemBlock	@
	mov	r0, r4	@, pstDrvMem
	mov	r1, #12	@,
	bl	__memzero	@
.L732:
	mov	r0, r7	@, PhyAddr
	mov	r1, r6	@, VirAddr
	mov	r2, r5	@, Length
	bl	MEM_DelMemRecord	@
	ldr	r5, [r4, #20]	@ Length.4029, <variable>.stScdCmnMem.Length
	ldr	r7, [r4, #12]	@ PhyAddr.4027, <variable>.stScdCmnMem.PhyAddr
	cmp	r5, #0	@ Length.4029,
	ldr	r6, [r4, #16]	@ VirAddr.4028, <variable>.stScdCmnMem.VirAddr
	bne	.L742	@,
.L735:
	mov	r0, r7	@, PhyAddr.4027
	mov	r1, r6	@, VirAddr.4028
	mov	r2, r5	@, Length.4029
	bl	MEM_DelMemRecord	@
	ldr	r5, [r4, #44]	@ Length.4036, <variable>.Length
	ldr	r7, [r4, #36]	@ PhyAddr.4034, <variable>.PhyAddr
	cmp	r5, #0	@ Length.4036,
	ldr	r6, [r4, #40]	@ VirAddr.4035, <variable>.VirAddr
	bne	.L743	@,
.L736:
	mov	r0, r7	@, PhyAddr.4034
	mov	r1, r6	@, VirAddr.4035
	mov	r2, r5	@, Length.4036
	bl	MEM_DelMemRecord	@
	ldr	r5, [r4, #80]	@ Length.4041, <variable>.stBpdReg.Length
	ldr	r7, [r4, #72]	@ PhyAddr.4039, <variable>.stBpdReg.PhyAddr
	cmp	r5, #0	@ Length.4041,
	ldr	r6, [r4, #76]	@ VirAddr.4040, <variable>.stBpdReg.VirAddr
	bne	.L744	@,
.L737:
	mov	r0, r7	@, PhyAddr.4039
	mov	r1, r6	@, VirAddr.4040
	mov	r2, r5	@, Length.4041
	bl	MEM_DelMemRecord	@
	ldr	r5, [r4, #68]	@ Length.4046, <variable>.Length
	ldr	r7, [r4, #60]	@ PhyAddr.4044, <variable>.PhyAddr
	cmp	r5, #0	@ Length.4046,
	ldr	r6, [r4, #64]	@ VirAddr.4045, <variable>.VirAddr
	bne	.L745	@,
.L738:
	mov	r0, r7	@, PhyAddr.4044
	mov	r1, r6	@, VirAddr.4045
	mov	r2, r5	@, Length.4046
	bl	MEM_DelMemRecord	@
	ldr	r5, [r4, #56]	@ Length.4051, <variable>.stFodReg.Length
	ldr	r7, [r4, #48]	@ PhyAddr.4049, <variable>.stFodReg.PhyAddr
	cmp	r5, #0	@ Length.4051,
	ldr	r6, [r4, #52]	@ VirAddr.4050, <variable>.stFodReg.VirAddr
	bne	.L746	@,
.L739:
	mov	r0, r7	@, PhyAddr.4049
	mov	r1, r6	@, VirAddr.4050
	mov	r2, r5	@, Length.4051
	bl	MEM_DelMemRecord	@
	ldr	r7, [r4, #92]	@ Length.4056, <variable>.stSystemReg.Length
	ldr	r5, [r4, #84]	@ PhyAddr.4054, <variable>.stSystemReg.PhyAddr
	cmp	r7, #0	@ Length.4056,
	ldr	r6, [r4, #88]	@ VirAddr.4055, <variable>.stSystemReg.VirAddr
	beq	.L740	@,
	mov	r0, r5	@, PhyAddr.4054
	mov	r1, r6	@, VirAddr.4055
	bl	MEM_UnmapRegisterAddr	@
	add	r0, r4, #84	@, pstDrvMem,
	mov	r1, #12	@,
	bl	__memzero	@
.L740:
	mov	r2, r7	@, Length.4056
	mov	r1, r6	@, VirAddr.4055
	mov	r0, r5	@, PhyAddr.4054
	bl	MEM_DelMemRecord	@
	mov	r0, #127	@,
	mov	r1, #0	@,
	bl	free_irq	@
	mov	r0, #136	@,
	mov	r1, #0	@,
	bl	free_irq	@
	mov	r0, #0	@,
	ldmfd	sp, {r4, r5, r6, r7, fp, sp, pc}	@
.L746:
	mov	r0, r7	@, PhyAddr.4049
	mov	r1, r6	@, VirAddr.4050
	bl	MEM_UnmapRegisterAddr	@
	add	r0, r4, #48	@, pstDrvMem,
	mov	r1, #12	@,
	bl	__memzero	@
	b	.L739	@
.L745:
	mov	r0, r7	@, PhyAddr.4044
	mov	r1, r6	@, VirAddr.4045
	bl	MEM_UnmapRegisterAddr	@
	add	r0, r4, #60	@, pstDrvMem,
	mov	r1, #12	@,
	bl	__memzero	@
	b	.L738	@
.L744:
	mov	r0, r7	@, PhyAddr.4039
	mov	r1, r6	@, VirAddr.4040
	bl	MEM_UnmapRegisterAddr	@
	add	r0, r4, #72	@, pstDrvMem,
	mov	r1, #12	@,
	bl	__memzero	@
	b	.L737	@
.L743:
	mov	r0, r7	@, PhyAddr.4034
	mov	r1, r6	@, VirAddr.4035
	bl	MEM_UnmapRegisterAddr	@
	add	r0, r4, #36	@, pstDrvMem,
	mov	r1, #12	@,
	bl	__memzero	@
	b	.L736	@
.L742:
	bl	SM_CloseSCDDrv	@
	ldr	r0, [r4, #12]	@, <variable>.stScdCmnMem.PhyAddr
	ldr	r1, [r4, #16]	@, <variable>.stScdCmnMem.VirAddr
	bl	MEM_ReleaseMemBlock	@
	add	r0, r4, #12	@, pstDrvMem,
	mov	r1, #12	@,
	bl	__memzero	@
	b	.L735	@
.L733:
	mov	r0, r3	@, D.38560
	movw	r1, #:lower16:.LC180	@,
	movw	r2, #5802	@,
	movt	r1, #:upper16:.LC180	@,
	bl	dprint_vfmw	@
	b	.L734	@
	.fnend
	.size	CloseDrivers, .-CloseDrivers
	.align	2
	.global	OpenDrivers
	.type	OpenDrivers, %function
OpenDrivers:
	.fnstart
.LFB1429:
	@ args = 0, pretend = 0, frame = 24
	@ frame_needed = 1, uses_anonymous_args = 0
	.movsp ip
	mov	ip, sp	@,
	stmfd	sp!, {r4, r5, r6, r7, r8, fp, ip, lr, pc}	@,
	.pad #4
	.save {r4, r5, r6, r7, r8, fp, ip, lr}
	.setfp fp, ip, #-4
	sub	fp, ip, #4	@,,
	.pad #36
	sub	sp, sp, #36	@,,
	push	{lr}
	bl	__gnu_mcount_nc
	add	r5, r0, #36	@ pstMem, pstDrvMem,
	mov	r4, r0	@ pstDrvMem, pstDrvMem
	mov	r1, #4096	@,
	movw	r0, #:lower16:-121438208	@,
	mov	r2, r5	@, pstMem
	movt	r0, #:upper16:-121438208	@,
	bl	MEM_MapRegisterAddr	@
	cmp	r0, #0	@,
	bne	.L771	@,
	add	r6, r4, #72	@ pstMem.4082, pstDrvMem,
	add	r0, r4, #36
	ldmia	r0, {r0, r1, r2}	@ phole ldm
	bl	MEM_AddMemRecord	@
	movw	r0, #:lower16:-121241600	@,
	mov	r1, #4096	@,
	movt	r0, #:upper16:-121241600	@,
	mov	r2, r6	@, pstMem.4082
	bl	MEM_MapRegisterAddr	@
	cmp	r0, #0	@,
	bne	.L768	@,
	movw	r5, #:lower16:g_vdm_hal_fun_ptr	@ tmp160,
	movt	r5, #:upper16:g_vdm_hal_fun_ptr	@ tmp160,
	ldr	r3, [r5, #16]	@ D.38426, g_vdm_hal_fun_ptr.pfun_BPDDRV_OpenHardware
	cmp	r3, #0	@ D.38426,
	beq	.L768	@,
	blx	r3	@ D.38426
	cmp	r0, #0	@,
	bne	.L768	@,
	add	r8, r4, #60	@ pstMem.4086, pstDrvMem,
	add	r0, r4, #72
	ldmia	r0, {r0, r1, r2}	@ phole ldm
	bl	MEM_AddMemRecord	@
	movw	r0, #:lower16:-121389056	@,
	mov	r1, #4096	@,
	movt	r0, #:upper16:-121389056	@,
	mov	r2, r8	@, pstMem.4086
	bl	MEM_MapRegisterAddr	@
	subs	r6, r0, #0	@ D.38440,
	bne	.L757	@,
	sub	r7, fp, #56	@ tmp168,,
	add	r0, r4, #60
	ldmia	r0, {r0, r1, r2}	@ phole ldm
	bl	MEM_AddMemRecord	@
	mov	r3, r6	@, D.38440
	mov	r0, r7	@, tmp168
	mov	r1, #20	@,
	movw	r2, #:lower16:.LC254	@,
	movt	r2, #:upper16:.LC254	@,
	bl	snprintf	@
	ldr	r3, [r5, #24]	@ D.38451, g_vdm_hal_fun_ptr.pfun_VDMHAL_GetHalMemSize
	cmp	r3, #0	@ D.38451,
	beq	.L757	@,
	blx	r3	@ D.38451
	subs	r2, r0, #0	@ Size,
	ble	.L757	@,
	mov	r1, r6	@, D.38440
	mov	r0, r7	@, tmp168
	mov	r3, r4	@, pstDrvMem
	str	r6, [sp, #0]	@ D.38440,
	bl	MEM_AllocMemBlock	@
	subs	r6, r0, #0	@ D.38464,
	bne	.L759	@,
	ldmia	r4, {r0, r1, r2}	@ phole ldm
	bl	MEM_AddMemRecord	@
	ldr	r3, [r5, #28]	@ D.38469, g_vdm_hal_fun_ptr.pfun_VDMHAL_OpenHAL
	cmp	r3, #0	@ D.38469,
	beq	.L759	@,
	mov	r2, r6	@, D.38464
	ldr	r0, [r4, #0]	@, <variable>.PhyAddr
	ldr	r1, [r4, #8]	@, <variable>.Length
	blx	r3	@ D.38469
	cmp	r0, #0	@,
	bne	.L759	@,
	mov	r0, #0	@,
	add	r5, r4, #12	@ pstMem.4096, pstDrvMem,
	bl	VDMDRV_Init	@
	mov	ip, #0	@ tmp180,
	mov	r1, ip	@, tmp180
	movw	r0, #:lower16:.LC255	@,
	mov	r2, #716800	@,
	movt	r0, #:upper16:.LC255	@,
	mov	r3, r5	@, pstMem.4096
	str	ip, [sp, #0]	@ tmp180,
	bl	MEM_AllocMemBlock	@
	subs	r6, r0, #0	@ D.38484,
	bne	.L771	@,
	add	r0, r4, #12
	ldmia	r0, {r0, r1, r2}	@ phole ldm
	bl	MEM_AddMemRecord	@
	mov	r3, r6	@, D.38484
	ldr	r0, [r4, #12]	@, <variable>.stScdCmnMem.PhyAddr
	movw	r2, #:lower16:-121389056	@,
	ldr	r1, [r4, #20]	@, <variable>.stScdCmnMem.Length
	movt	r2, #:upper16:-121389056	@,
	bl	SM_OpenSCDDrv	@
	subs	ip, r0, #0	@ D.38487,
	bne	.L771	@,
	mov	r2, ip	@, D.38487
	mov	r0, #127	@,
	movw	r1, #:lower16:VCTRL_Isr_0	@,
	mov	r3, #32	@,
	movt	r1, #:upper16:VCTRL_Isr_0	@,
	str	ip, [sp, #4]	@ D.38487,
	movw	lr, #:lower16:.LC256	@ tmp188,
	movt	lr, #:upper16:.LC256	@ tmp188,
	str	lr, [sp, #0]	@ tmp188,
	bl	request_threaded_irq	@
	subs	ip, r0, #0	@ D.40722,
	bne	.L771	@,
	mov	r2, ip	@, D.40722
	mov	r0, #136	@,
	movw	r1, #:lower16:VCTRL_Scd_Isr	@,
	mov	r3, #32	@,
	movt	r1, #:upper16:VCTRL_Scd_Isr	@,
	str	ip, [sp, #4]	@ D.40722,
	movw	ip, #:lower16:.LC257	@ tmp191,
	movt	ip, #:upper16:.LC257	@ tmp191,
	str	ip, [sp, #0]	@ tmp191,
	bl	request_threaded_irq	@
	cmp	r0, #0	@ D.40729
	bne	.L771	@,
.L751:
	sub	sp, fp, #32
	ldmfd	sp, {r4, r5, r6, r7, r8, fp, sp, pc}
.L768:
	mov	r0, r6	@, pstMem.4082
.L772:
	mov	r1, #12	@,
	bl	__memzero	@
	mov	r0, r4	@, pstDrvMem
	bl	CloseDrivers	@
	mvn	r0, #0	@ D.38399,
	b	.L751	@
.L771:
	mov	r0, r5	@, pstMem.4096
	b	.L772	@
.L757:
	mov	r0, r8	@, pstMem.4086
	b	.L772	@
.L759:
	mov	r1, #12	@,
	mov	r0, r4	@, pstDrvMem
	bl	__memzero	@
	mov	r0, r4	@, pstDrvMem
	bl	CloseDrivers	@
	mvn	r0, #0	@ D.38399,
	b	.L751	@
	.fnend
	.size	OpenDrivers, .-OpenDrivers
	.align	2
	.global	VCTRL_GetUsrdecFrame
	.type	VCTRL_GetUsrdecFrame, %function
VCTRL_GetUsrdecFrame:
	.fnstart
.LFB1422:
	@ args = 0, pretend = 0, frame = 0
	@ frame_needed = 1, uses_anonymous_args = 0
	.movsp ip
	mov	ip, sp	@,
	stmfd	sp!, {r4, r5, r6, r7, r8, sl, fp, ip, lr, pc}	@,
	.pad #4
	.save {r4, r5, r6, r7, r8, sl, fp, ip, lr}
	.setfp fp, ip, #-4
	sub	fp, ip, #4	@,,
	.pad #8
	sub	sp, sp, #8	@,,
	push	{lr}
	bl	__gnu_mcount_nc
	movw	r5, #:lower16:.LANCHOR0	@ tmp144,
	movt	r5, #:upper16:.LANCHOR0	@ tmp144,
	mov	r6, r0	@ ChanID, ChanID
	mov	r7, r1	@ pMem, pMem
	ldr	r3, [r5, r0, asl #2]	@ D.37857, s_pstVfmwChan
	cmp	r3, #0	@ D.37857,
	beq	.L783	@,
	ldr	r8, [r3, #936]	@ <variable>.eVidStd, <variable>.eVidStd
	cmp	r8, #18	@ <variable>.eVidStd,
	bne	.L784	@,
	ldr	r3, [r3, #876]	@ <variable>.s32UsrdecFrameNum, <variable>.s32UsrdecFrameNum
	cmp	r3, #2	@ <variable>.s32UsrdecFrameNum,
	ble	.L785	@,
	bl	FSP_IsNewFsAvalible	@
	cmp	r0, #1	@ D.37870,
	bne	.L786	@,
	mov	r1, r0	@, D.37870
	mov	r0, r6	@, ChanID
	bl	FSP_NewLogicFs	@
	subs	sl, r0, #0	@ id,
	blt	.L787	@,
	mov	r1, sl	@, id
	mov	r0, r6	@, ChanID
	bl	FSP_GetLogicFs	@
	mov	r2, sl	@, id
	movw	r1, #:lower16:.LC262	@,
	movt	r1, #:upper16:.LC262	@,
	mov	r4, r0	@ pLf,
	mov	r0, r8	@, <variable>.eVidStd
	bl	dprint_vfmw	@
	cmp	r4, #0	@ pLf,
	beq	.L788	@,
	ldr	r2, [r4, #472]	@ D.37885, <variable>.pstDecodeFs
	cmp	r2, #0	@ D.37885,
	beq	.L781	@,
	ldr	r3, [r4, #476]	@ D.37887, <variable>.pstDispOutFs
	cmp	r3, #0	@ D.37887,
	beq	.L781	@,
	ldr	ip, [r4, #480]	@ D.37889, <variable>.pstTfOutFs
	cmp	ip, #0	@ D.37889,
	beq	.L781	@,
	ldr	lr, [ip, #12]	@ <variable>.PhyAddr, <variable>.PhyAddr
	mov	r0, r8	@, <variable>.eVidStd
	ldr	r2, [r2, #12]	@ <variable>.PhyAddr, <variable>.PhyAddr
	movw	r1, #:lower16:.LC264	@,
	ldr	r3, [r3, #12]	@ <variable>.PhyAddr, <variable>.PhyAddr
	movt	r1, #:upper16:.LC264	@,
	str	lr, [sp, #0]	@ <variable>.PhyAddr,
	bl	dprint_vfmw	@
	ldr	r3, [r4, #472]	@ <variable>.pstDecodeFs, <variable>.pstDecodeFs
	mov	r0, #0	@ D.37861,
	ldr	ip, [r3, #12]	@ <variable>.PhyAddr, <variable>.PhyAddr
	str	ip, [r7, #0]	@ <variable>.PhyAddr, <variable>.PhyAddr
	ldr	r2, [r5, r6, asl #2]	@ tmp162, s_pstVfmwChan
	ldr	r1, [r2, #872]	@ <variable>.s32UsrdecFrameSize, <variable>.s32UsrdecFrameSize
	str	r1, [r7, #8]	@ <variable>.s32UsrdecFrameSize, <variable>.Length
.L775:
	sub	sp, fp, #36
	ldmfd	sp, {r4, r5, r6, r7, r8, sl, fp, sp, pc}
.L786:
	mov	r0, #0	@,
	movw	r1, #:lower16:.LC260	@,
	movt	r1, #:upper16:.LC260	@,
	bl	dprint_vfmw	@
	mvn	r0, #0	@ D.37861,
	b	.L775	@
.L784:
	mov	r0, #0	@,
	movw	r1, #:lower16:.LC258	@,
	movt	r1, #:upper16:.LC258	@,
	bl	dprint_vfmw	@
	mvn	r0, #0	@ D.37861,
	b	.L775	@
.L785:
	mov	r0, #0	@,
	movw	r1, #:lower16:.LC259	@,
	movt	r1, #:upper16:.LC259	@,
	bl	dprint_vfmw	@
	mvn	r0, #0	@ D.37861,
	b	.L775	@
.L781:
	mov	r0, #0	@,
	movw	r1, #:lower16:.LC265	@,
	movt	r1, #:upper16:.LC265	@,
	bl	dprint_vfmw	@
	mvn	r0, #0	@ D.37861,
	b	.L775	@
.L787:
	mov	r0, #0	@,
	movw	r1, #:lower16:.LC261	@,
	movt	r1, #:upper16:.LC261	@,
	bl	dprint_vfmw	@
	mvn	r0, #0	@ D.37861,
	b	.L775	@
.L783:
	mov	r0, r3	@, D.37857
	movw	r1, #:lower16:.LC3	@,
	movw	r2, #4753	@,
	movt	r1, #:upper16:.LC3	@,
	movw	r3, #:lower16:.LC6	@,
	movt	r3, #:upper16:.LC6	@,
	bl	dprint_vfmw	@
	mvn	r0, #0	@ D.37861,
	b	.L775	@
.L788:
	mov	r0, #22	@,
	movw	r1, #:lower16:.LC263	@,
	movw	r2, #4784	@,
	movt	r1, #:upper16:.LC263	@,
	bl	dprint_vfmw	@
	mvn	r0, #0	@ D.37861,
	b	.L775	@
	.fnend
	.size	VCTRL_GetUsrdecFrame, .-VCTRL_GetUsrdecFrame
	.align	2
	.global	VDH_PutUsrdecFrame
	.type	VDH_PutUsrdecFrame, %function
VDH_PutUsrdecFrame:
	.fnstart
.LFB1421:
	@ args = 0, pretend = 0, frame = 0
	@ frame_needed = 1, uses_anonymous_args = 0
	.movsp ip
	mov	ip, sp	@,
	stmfd	sp!, {r4, r5, r6, r7, r8, sl, fp, ip, lr, pc}	@,
	.pad #4
	.save {r4, r5, r6, r7, r8, sl, fp, ip, lr}
	.setfp fp, ip, #-4
	sub	fp, ip, #4	@,,
	.pad #8
	sub	sp, sp, #8	@,,
	push	{lr}
	bl	__gnu_mcount_nc
	mov	r8, r1	@ pstUsrdecFrame, pstUsrdecFrame
	ldr	r1, [r1, #28]	@, <variable>.s32LumaPhyAddr
	mov	r6, r0	@ ChanID, ChanID
	bl	FSP_GetLogicIdByPhyAddr	@
	cmn	r0, #1	@ PicBufID,
