	.arch armv7-a
	.fpu softvfp
	.eabi_attribute 20, 1
	.eabi_attribute 21, 1
	.eabi_attribute 23, 3
	.eabi_attribute 24, 1
	.eabi_attribute 25, 1
	.eabi_attribute 26, 2
	.eabi_attribute 30, 2
	.eabi_attribute 18, 4
	.file	"vc1.c"
@ GNU C (Hisilicon_v200(gcc4.4-290+glibc-2.11+eabi+nptl)) version 4.4.1 (arm-hisiv200-linux-gnueabi)
@	compiled by GNU C version 4.1.1 20061011 (Red Hat 4.1.1-30), GMP version 4.3.1, MPFR version 2.4.2.
@ GGC heuristics: --param ggc-min-expand=100 --param ggc-min-heapsize=131072
@ options passed:  -nostdinc
@ -I/home/x57522/X5HD/04.Locals/STBLinuxV1R2/Build/HiSTBLinuxV100R002C00SPC020/source/kernel/linux-3.4.y/arch/arm/include
@ -Iarch/arm/include/generated -Iinclude
@ -I/home/x57522/X5HD/04.Locals/STBLinuxV1R2/Build/HiSTBLinuxV100R002C00SPC020/source/kernel/linux-3.4.y/include
@ -I/home/x57522/X5HD/04.Locals/STBLinuxV1R2/Build/HiSTBLinuxV100R002C00SPC020/source/kernel/linux-3.4.y/drivers/msp/vfmw/vfmw_v4.0
@ -Idrivers/msp/vfmw/vfmw_v4.0
@ -I/home/x57522/X5HD/04.Locals/STBLinuxV1R2/Build/HiSTBLinuxV100R002C00SPC020/source/kernel/linux-3.4.y/arch/arm/mach-s40/include
@ -I/home/x57522/X5HD/04.Locals/STBLinuxV1R2/Build/HiSTBLinuxV100R002C00SPC020/source/kernel/linux-3.4.y/../../../source/common/include
@ -I/home/x57522/X5HD/04.Locals/STBLinuxV1R2/Build/HiSTBLinuxV100R002C00SPC020/source/kernel/linux-3.4.y/../../../source/common/drv/include
@ -I/home/x57522/X5HD/04.Locals/STBLinuxV1R2/Build/HiSTBLinuxV100R002C00SPC020/source/kernel/linux-3.4.y/../../../source/msp/drv/vfmw/vfmw_v4.0/drv/memmap
@ -I/home/x57522/X5HD/04.Locals/STBLinuxV1R2/Build/HiSTBLinuxV100R002C00SPC020/source/kernel/linux-3.4.y/../../../source/msp/drv/vfmw/vfmw_v4.0/model/scd
@ -I/home/x57522/X5HD/04.Locals/STBLinuxV1R2/Build/HiSTBLinuxV100R002C00SPC020/source/kernel/linux-3.4.y/../../../source/msp/drv/vfmw/vfmw_v4.0/firmware/common/softlib
@ -I/home/x57522/X5HD/04.Locals/STBLinuxV1R2/Build/HiSTBLinuxV100R002C00SPC020/source/kernel/linux-3.4.y/../../../source/msp/drv/vfmw/vfmw_v4.0/firmware/common
@ -I/home/x57522/X5HD/04.Locals/STBLinuxV1R2/Build/HiSTBLinuxV100R002C00SPC020/source/kernel/linux-3.4.y/../../../source/msp/drv/vfmw/vfmw_v4.0/firmware/common/syntax
@ -I/home/x57522/X5HD/04.Locals/STBLinuxV1R2/Build/HiSTBLinuxV100R002C00SPC020/source/kernel/linux-3.4.y/../../../source/msp/drv/vfmw/vfmw_v4.0/firmware/driver/HiSCDV200
@ -I/home/x57522/X5HD/04.Locals/STBLinuxV1R2/Build/HiSTBLinuxV100R002C00SPC020/source/kernel/linux-3.4.y/../../../source/msp/drv/vfmw/vfmw_v4.0/firmware/driver/HiVDHV100
@ -I/home/x57522/X5HD/04.Locals/STBLinuxV1R2/Build/HiSTBLinuxV100R002C00SPC020/source/kernel/linux-3.4.y/../../../source/msp/drv/vfmw/vfmw_v4.0/firmware/driver/HiVDHV200R001
@ -I/home/x57522/X5HD/04.Locals/STBLinuxV1R2/Build/HiSTBLinuxV100R002C00SPC020/source/kernel/linux-3.4.y/../../../source/msp/drv/vfmw/vfmw_v4.0/firmware/driver/HiVDHV200R002
@ -I/home/x57522/X5HD/04.Locals/STBLinuxV1R2/Build/HiSTBLinuxV100R002C00SPC020/source/kernel/linux-3.4.y/../../../source/msp/drv/vfmw/vfmw_v4.0/firmware/driver/HiVDHV200R003
@ -I/home/x57522/X5HD/04.Locals/STBLinuxV1R2/Build/HiSTBLinuxV100R002C00SPC020/source/kernel/linux-3.4.y/../../../source/msp/drv/vfmw/vfmw_v4.0/firmware/driver/HiVDHV200R004
@ -I/home/x57522/X5HD/04.Locals/STBLinuxV1R2/Build/HiSTBLinuxV100R002C00SPC020/source/kernel/linux-3.4.y/../../../source/msp/drv/vfmw/vfmw_v4.0/model/rawpacket
@ -I/home/x57522/X5HD/04.Locals/STBLinuxV1R2/Build/HiSTBLinuxV100R002C00SPC020/source/kernel/linux-3.4.y/../../../source/msp/drv/vfmw/vfmw_v4.0/firmware/product/Hi3716CV200/osal/linux_kernel
@ -I/home/x57522/X5HD/04.Locals/STBLinuxV1R2/Build/HiSTBLinuxV100R002C00SPC020/source/kernel/linux-3.4.y/../../../source/msp/drv/vfmw/vfmw_v4.0/firmware/product/Hi3716CV200
@ -I/home/x57522/X5HD/04.Locals/STBLinuxV1R2/Build/HiSTBLinuxV100R002C00SPC020/source/kernel/linux-3.4.y/../../../source/msp/drv/vfmw/vfmw_v4.0/firmware/driver/HiDNR
@ -I/home/x57522/X5HD/04.Locals/STBLinuxV1R2/Build/HiSTBLinuxV100R002C00SPC020/source/kernel/linux-3.4.y/../../../source/msp/drv/vfmw/vfmw_v4.0/firmware/driver/HiBTLV100
@ -I/home/x57522/X5HD/04.Locals/STBLinuxV1R2/Build/HiSTBLinuxV100R002C00SPC020/source/kernel/linux-3.4.y/../../../source/msp/drv/vfmw/vfmw_v4.0/firmware/common_test/vdecko
@ -imultilib armv7a_soft -iprefix
@ /opt/hisi-linux/x86-arm/arm-hisiv200-linux/bin/../lib/gcc/arm-hisiv200-linux-gnueabi/4.4.1/
@ -isysroot /opt/hisi-linux/x86-arm/arm-hisiv200-linux/bin/../target
@ -D__KERNEL__ -D__LINUX_ARM_ARCH__=7 -Uarm -DENV_ARMLINUX_KERNEL
@ -DDNR_DISABLE -DSCD_MP4_SLICE_ENABLE -DSUPPORT_JPEG_444
@ -DVFMW_EXTRA_TYPE_DEFINE -DPRODUCT_STB -D__VFMW_REGISTER_ISR__
@ -DVFMW_VDH_V200R004_SUPPORT -DVFMW_H264_SUPPORT -DVFMW_MVC_SUPPORT
@ -DVFMW_MPEG2_SUPPORT -DVFMW_MPEG4_SUPPORT -DVFMW_AVS_SUPPORT
@ -DVFMW_VC1_SUPPORT -DVFMW_BPD_H_SUPPORT -DVFMW_REAL8_SUPPORT
@ -DVFMW_REAL9_SUPPORT -DVFMW_VP6_SUPPORT -DVFMW_VP8_SUPPORT
@ -DVFMW_DIVX3_SUPPORT -DVFMW_H263_SUPPORT -DVFMW_JPEG_SUPPORT
@ -DVFMW_RAW_SUPPORT -DVFMW_USER_SUPPORT -DCFG_MAX_CHAN_NUM=16
@ -DCFG_MAX_CHAN_NUM=16 -DVFMW_DPRINT_SUPPORT -DVFMW_AVSPLUS_SUPPORT
@ -DVFMW_SYSTEM_REG_DISABLE -DCHIP_TYPE_hi3716cv200
@ -DSDK_VERSION=HiSTBLinuxV100R002C00SPC020 -DHI_GPIOI2C_SUPPORT
@ -DHI_LOG_SUPPORT=1 -DHI_LOG_LEVEL=4 -DHI_PROC_SUPPORT=1
@ -DHI_KEYLED_SUPPORT -DHI_HDCP_SUPPORT -DHI_SCI_SUPPORT -DHI_VI_SUPPORT
@ -DHI_VENC_SUPPORT -DHI_AENC_SUPPORT -DHI_VDEC_SVDEC_BUILTIN
@ -DKBUILD_STR(s)=#s -DKBUILD_BASENAME=KBUILD_STR(vc1)
@ -DKBUILD_MODNAME=KBUILD_STR(hi_vfmw) -isystem
@ /opt/hisi-linux/x86-arm/arm-hisiv200-linux/bin/../lib/gcc/arm-hisiv200-linux-gnueabi/4.4.1/include
@ -include
@ /home/x57522/X5HD/04.Locals/STBLinuxV1R2/Build/HiSTBLinuxV100R002C00SPC020/source/kernel/linux-3.4.y/include/linux/kconfig.h
@ -MD drivers/msp/vfmw/vfmw_v4.0/firmware/common/syntax/.vc1.o.d
@ /home/x57522/X5HD/04.Locals/STBLinuxV1R2/Build/HiSTBLinuxV100R002C00SPC020/source/kernel/linux-3.4.y/drivers/msp/vfmw/vfmw_v4.0/firmware/common/syntax/vc1.c
@ -mlittle-endian -marm -mapcs -mno-sched-prolog -mabi=aapcs-linux
@ -mno-thumb-interwork -march=armv7-a -msoft-float -auxbase-strip
@ drivers/msp/vfmw/vfmw_v4.0/firmware/common/syntax/vc1.o -O2 -Wall -Wundef
@ -Wstrict-prototypes -Wno-trigraphs -Werror-implicit-function-declaration
@ -Wno-format-security -Wframe-larger-than=1024
@ -Wdeclaration-after-statement -Wno-pointer-sign -p -fno-strict-aliasing
@ -fno-common -fno-delete-null-pointer-checks -fno-dwarf2-cfi-asm
@ -funwind-tables -fno-stack-protector -fno-omit-frame-pointer
@ -fno-optimize-sibling-calls -fno-strict-overflow -fconserve-stack
@ -fno-pic -fverbose-asm
@ options enabled:  -falign-loops -fargument-alias -fauto-inc-dec
@ -fbranch-count-reg -fcaller-saves -fcprop-registers -fcrossjumping
@ -fcse-follow-jumps -fdefer-pop -fearly-inlining
@ -feliminate-unused-debug-types -fexpensive-optimizations
@ -fforward-propagate -ffunction-cse -fgcse -fgcse-lm
@ -fguess-branch-probability -fident -fif-conversion -fif-conversion2
@ -findirect-inlining -finline -finline-functions-called-once
@ -finline-small-functions -fipa-cp -fipa-pure-const -fipa-reference
@ -fira-share-save-slots -fira-share-spill-slots -fivopts
@ -fkeep-static-consts -fleading-underscore -fmath-errno -fmerge-constants
@ -fmerge-debug-strings -fmove-loop-invariants -foptimize-register-move
@ -fpeephole -fpeephole2 -fprofile -fpromote-loop-indices
@ -freg-struct-return -fregmove -frename-registers -freorder-blocks
@ -freorder-functions -frerun-cse-after-loop -fsched-interblock
@ -fsched-spec -fsched-stalled-insns-dep -fschedule-insns -fschedule-insns2
@ -fsection-anchors -fsigned-zeros -fsplit-ivs-in-unroller
@ -fsplit-wide-types -fthread-jumps -ftoplevel-reorder -ftrapping-math
@ -ftree-builtin-call-dce -ftree-ccp -ftree-ch -ftree-copy-prop
@ -ftree-copyrename -ftree-cselim -ftree-dce -ftree-dominator-opts
@ -ftree-dse -ftree-fre -ftree-loop-im -ftree-loop-ivcanon
@ -ftree-loop-optimize -ftree-parallelize-loops= -ftree-pre -ftree-reassoc
@ -ftree-scev-cprop -ftree-sink -ftree-sra -ftree-switch-conversion
@ -ftree-ter -ftree-vect-loop-version -ftree-vrp -funit-at-a-time
@ -funroll-loops -funwind-tables -fverbose-asm -fweb
@ -fzero-initialized-in-bss -mapcs-frame -mglibc -mlittle-endian

@ Compiler executable checksum: fa59e0bd179ef45b3a3c3e6f3383fdac

	.text
	.align	2
	.global	emp_print
	.type	emp_print, %function
emp_print:
	.fnstart
.LFB1359:
	@ args = 4, pretend = 12, frame = 0
	@ frame_needed = 1, uses_anonymous_args = 1
	.movsp ip
	mov	ip, sp	@,
	stmfd	sp!, {r1, r2, r3}	@,
	.save {r1, r2, r3}
	stmfd	sp!, {r3, fp, ip, lr, pc}	@,
	.pad #4
	.save {r3, fp, ip, lr}
	.setfp fp, ip, #-16
	sub	fp, ip, #16	@,,
	push	{lr}
	bl	__gnu_mcount_nc
	mov	r0, #0	@,
	sub	sp, fp, #16
	ldmfd	sp, {r3, fp, sp, pc}
	.fnend
	.size	emp_print, .-emp_print
	.align	2
	.global	AbandonBitsLenthNoUse
	.type	AbandonBitsLenthNoUse, %function
AbandonBitsLenthNoUse:
	.fnstart
.LFB1360:
	@ args = 0, pretend = 0, frame = 0
	@ frame_needed = 1, uses_anonymous_args = 0
	.movsp ip
	mov	ip, sp	@,
	stmfd	sp!, {fp, ip, lr, pc}	@,
	.pad #4
	.save {fp, ip, lr}
	.setfp fp, ip, #-4
	sub	fp, ip, #4	@,,
	push	{lr}
	bl	__gnu_mcount_nc
	ldrb	r3, [r0, #0]	@ zero_extendqisi2	@ data,* pCode
	cmp	r3, #0	@ data,
	moveq	r2, r3	@ biteat, data
	bne	.L14	@,
.L7:
	ldrb	r3, [r0, #-1]!	@ zero_extendqisi2	@ data,
	add	r2, r2, #8	@ biteat, biteat,
	cmp	r3, #0	@ data,
	beq	.L7	@,
	add	r0, r2, #1	@ prephitmp.615, biteat,
.L8:
	tst	r3, #1	@ data,
	ldmnefd	sp, {fp, sp, pc}	@
.L10:
	mov	r3, r3, lsr #1	@ data, data,
	add	r2, r2, #1	@ biteat, biteat,
	tst	r3, #1	@ data,
	beq	.L10	@,
	add	r0, r2, #1	@ prephitmp.615, biteat,
	ldmfd	sp, {fp, sp, pc}	@
.L14:
	mov	r0, #1	@ prephitmp.615,
	mov	r2, #0	@ biteat,
	b	.L8	@
	.fnend
	.size	AbandonBitsLenthNoUse, .-AbandonBitsLenthNoUse
	.align	2
	.global	VC1DEC_Destroy
	.type	VC1DEC_Destroy, %function
VC1DEC_Destroy:
	.fnstart
.LFB1364:
	@ args = 0, pretend = 0, frame = 0
	@ frame_needed = 1, uses_anonymous_args = 0
	.movsp ip
	mov	ip, sp	@,
	stmfd	sp!, {fp, ip, lr, pc}	@,
	.pad #4
	.save {fp, ip, lr}
	.setfp fp, ip, #-4
	sub	fp, ip, #4	@,,
	push	{lr}
	bl	__gnu_mcount_nc
	mov	r0, #1	@,
	ldmfd	sp, {fp, sp, pc}	@
	.fnend
	.size	VC1DEC_Destroy, .-VC1DEC_Destroy
	.align	2
	.global	VC1_CfgVDH
	.type	VC1_CfgVDH, %function
VC1_CfgVDH:
	.fnstart
.LFB1372:
	@ args = 0, pretend = 0, frame = 0
	@ frame_needed = 1, uses_anonymous_args = 0
	.movsp ip
	mov	ip, sp	@,
	stmfd	sp!, {r4, r5, fp, ip, lr, pc}	@,
	.pad #4
	.save {r4, r5, fp, ip, lr}
	.setfp fp, ip, #-4
	sub	fp, ip, #4	@,,
	push	{lr}
	bl	__gnu_mcount_nc
	ldrb	r3, [r0, #3096]	@ zero_extendqisi2	@, <variable>.PreParseInfo.IsAdvProfile
	cmp	r3, #0	@ <variable>.PreParseInfo.IsAdvProfile,
	beq	.L18	@,
	movw	r4, #10744	@ tmp138,
	ldr	r2, [r0, r4]	@ <variable>.AdvPicSyntax.FCM, <variable>.AdvPicSyntax.FCM
	cmp	r2, #3	@ <variable>.AdvPicSyntax.FCM,
	beq	.L21	@,
.L18:
	movw	ip, #35392	@ tmp153,
	movw	r4, #:lower16:77988	@ tmp152,
	ldr	r2, [r0, ip]	@ <variable>.CurPicMbNum, <variable>.CurPicMbNum
	movt	r4, #:upper16:77988	@ tmp152,
	sub	r5, r2, #1	@ tmp155, <variable>.CurPicMbNum,
	str	r5, [r1, r4]	@ tmp155, <variable>.basic_cfg0
.L19:
	movw	ip, #22968	@ tmp157,
	movw	r2, #:lower16:78068	@ tmp166,
	ldr	r3, [r0, ip]	@ <variable>.DDR_Stride, <variable>.DDR_Stride
	movt	r2, #:upper16:78068	@ tmp166,
	movw	ip, #:lower16:77992	@ tmp156,
	movt	ip, #:upper16:77992	@ tmp156,
	add	r4, r3, #63	@ tmp161, <variable>.DDR_Stride,
	cmp	r3, #0	@ <variable>.DDR_Stride,
	ldr	r5, [r1, r2]	@ <variable>.Compress_en, <variable>.Compress_en
	movw	r2, #:lower16:78040	@ tmp171,
	movlt	r3, r4	@ <variable>.DDR_Stride, tmp161
	movt	r2, #:upper16:78040	@ tmp171,
	mov	r4, r3, asr #6	@ tmp162, <variable>.DDR_Stride,
	and	r5, r5, #1	@ tmp167, <variable>.Compress_en,
	movw	r3, #:lower16:78044	@ tmp180,
	movt	r3, #:upper16:78044	@ tmp180,
	mov	r4, r4, asl #4	@ tmp163, tmp162,
	add	r4, r4, #536870913	@ tmp164, tmp163,
	add	r4, r4, #81920	@ tmp164, tmp164,
	orr	r4, r4, r5, asl #30	@, tmp170, tmp164, tmp167,
	str	r4, [r1, ip]	@ tmp170, <variable>.basic_cfg1
	movw	r4, #35388	@ tmp172,
	movw	ip, #15112	@ tmp195,
	ldr	r5, [r0, r4]	@ <variable>.CurPicMbHeight, <variable>.CurPicMbHeight
	movw	r4, #1496	@ tmp197,
	add	r5, r5, #1	@ tmp173, <variable>.CurPicMbHeight,
	add	r5, r5, r5, lsr #31	@, tmp177, tmp173, tmp173,
	mov	r5, r5, asr #1	@ tmp178, tmp177,
	mov	r5, r5, asl #5	@ tmp179, tmp178,
	str	r5, [r1, r2]	@ tmp179, <variable>.ystride_1d
	movw	r2, #22948	@ tmp181,
	movw	r5, #22944	@ tmp189,
	ldr	r2, [r0, r2]	@ <variable>.MbHeight, <variable>.MbHeight
	ldr	r5, [r0, r5]	@ <variable>.MbWidth, <variable>.MbWidth
	add	r2, r2, #1	@ tmp182, <variable>.MbHeight,
	add	r2, r2, r2, lsr #31	@, tmp186, tmp182, tmp182,
	bic	r2, r2, #1	@ tmp188, tmp186,
	mul	r2, r5, r2	@ tmp190, <variable>.MbWidth, tmp188
	movw	r5, #23000	@ tmp194,
	mov	r2, r2, asl #8	@ tmp192, tmp190,
	str	r2, [r1, r3]	@ tmp192, <variable>.uvoffset_1d
	ldr	r2, [r0, r5]	@ <variable>.RefList1.ImgObj, <variable>.RefList1.ImgObj
	movw	r3, #22984	@ tmp216,
	ldr	r5, [r0, r3]	@ <variable>.RefList0.ImgObj, <variable>.RefList0.ImgObj
	movw	r3, #22928	@ tmp206,
	ldr	r3, [r0, r3]	@ <variable>.pCurFrm, <variable>.pCurFrm
	mla	r2, r4, r2, r0	@ tmp198, tmp197, <variable>.RefList1.ImgObj, pCodecInf
	mla	r0, r4, r5, r0	@ tmp220, tmp197, <variable>.RefList0.ImgObj, pCodecInf
	ldr	r5, [r3, #1160]	@ <variable>.img.is_fld_save, <variable>.img.is_fld_save
	and	r5, r5, #3	@ tmp209, <variable>.img.is_fld_save,
	ldr	r3, [r2, ip]	@ <variable>.img.is_fld_save, <variable>.img.is_fld_save
	mov	r5, r5, asl #4	@ tmp211, tmp209,
	ldr	r2, [r0, ip]	@ <variable>.img.is_fld_save, <variable>.img.is_fld_save
	and	ip, r3, #3	@ tmp202, <variable>.img.is_fld_save,
	mov	r0, #0	@ tmp229,
	strb	r0, [r1, #69]	@ tmp229, <variable>.ff_apt_en
	orr	r3, r5, ip, asl #2	@, tmp214, tmp211, tmp202,
	and	r2, r2, #3	@ tmp224, <variable>.img.is_fld_save,
	orr	r0, r3, r2	@ tmp227, tmp214, tmp224
	strb	r0, [r1, #68]	@ tmp227, <variable>.ref_pic_type
	ldmfd	sp, {r4, r5, fp, sp, pc}	@
.L21:
	movw	r3, #35388	@ tmp141,
	movw	ip, #35384	@ tmp148,
	ldr	r4, [r0, r3]	@ <variable>.CurPicMbHeight, <variable>.CurPicMbHeight
	movw	r3, #:lower16:77988	@ tmp140,
	ldr	ip, [r0, ip]	@ <variable>.CurPicMbWidth, <variable>.CurPicMbWidth
	movt	r3, #:upper16:77988	@ tmp140,
	add	r2, r4, #1	@ tmp142, <variable>.CurPicMbHeight,
	add	r5, r2, r2, lsr #31	@, tmp146, tmp142, tmp142,
	mov	r4, r5, asr #1	@ tmp147, tmp146,
	mul	r2, ip, r4	@ tmp149, <variable>.CurPicMbWidth, tmp147
	sub	r5, r2, #1	@ tmp151, tmp149,
	str	r5, [r1, r3]	@ tmp151, <variable>.basic_cfg0
	b	.L19	@
	.fnend
	.size	VC1_CfgVDH, .-VC1_CfgVDH
	.align	2
	.global	VC1_Vfmw_GenerateDecPara
	.type	VC1_Vfmw_GenerateDecPara, %function
VC1_Vfmw_GenerateDecPara:
	.fnstart
.LFB1373:
	@ args = 0, pretend = 0, frame = 0
	@ frame_needed = 1, uses_anonymous_args = 0
	.movsp ip
	mov	ip, sp	@,
	stmfd	sp!, {fp, ip, lr, pc}	@,
	.pad #4
	.save {fp, ip, lr}
	.setfp fp, ip, #-4
	sub	fp, ip, #4	@,,
	push	{lr}
	bl	__gnu_mcount_nc
	mov	r0, #1	@,
	ldmfd	sp, {fp, sp, pc}	@
	.fnend
	.size	VC1_Vfmw_GenerateDecPara, .-VC1_Vfmw_GenerateDecPara
	.align	2
	.type	VC1_Vfmw_GenerateIntensityMap, %function
VC1_Vfmw_GenerateIntensityMap:
	.fnstart
.LFB1381:
	@ args = 0, pretend = 0, frame = 0
	@ frame_needed = 1, uses_anonymous_args = 0
	.movsp ip
	mov	ip, sp	@,
	stmfd	sp!, {r4, r5, fp, ip, lr, pc}	@,
	.pad #4
	.save {r4, r5, fp, ip, lr}
	.setfp fp, ip, #-4
	sub	fp, ip, #4	@,,
	push	{lr}
	bl	__gnu_mcount_nc
	cmp	r2, #31	@ LUMSHIFT,
	subgt	r2, r2, #64	@ LUMSHIFT, LUMSHIFT,
	cmp	r1, #0	@ LUMSCALE,
	addne	r1, r1, #32	@ iScale, LUMSCALE,
	rsbeq	r2, r2, r2, asl #25	@, tmp155, LUMSHIFT, LUMSHIFT,
	mvneq	r1, #63	@ iScale,
	movne	r2, r2, asl #6	@ iShift, LUMSHIFT,
	moveq	r2, r2, asl #7	@ tmp156, tmp155,
	addeq	r2, r2, #16320	@ iShift, tmp156,
	cmp	r3, #0	@ YcFlg,
	bne	.L28	@,
	add	r2, r2, #32	@ ivtmp.766, iShift,
.L29:
	add	ip, r2, r1	@ ivtmp.766, ivtmp.766, iScale
	mov	r5, r2, asr #6	@ j.780, ivtmp.766,
	add	r4, r3, #1	@ tmp166, i,
	bic	r5, r5, r5, asr #31	@ j.784, j.780
	mov	r2, ip, asr #6	@ j.780, ivtmp.766,
	cmp	r5, #255	@ j.784,
	movge	r5, #255	@ tmp157,
	bic	r2, r2, r2, asr #31	@ j.784, j.780
	strb	r5, [r0, r3]	@ tmp157,* i
	add	r3, r4, #1	@ i, tmp166,
	cmp	r2, #255	@ j.784,
	movge	r2, #255	@ tmp172,
	cmp	r3, #256	@ i,
	strb	r2, [r0, r4]	@ tmp172,
	add	r2, ip, r1	@ ivtmp.766, ivtmp.766, iScale
	bne	.L29	@,
	ldmfd	sp, {r4, r5, fp, sp, pc}	@
.L28:
	rsb	r2, r1, r1, asl #25	@, tmp161, iScale, iScale,
	mov	r3, #0	@ i.783,
	mov	ip, r2, asl #7	@ tmp162, tmp161,
	add	r4, ip, #8192	@ ivtmp.775, tmp162,
	add	r2, r4, #32	@ ivtmp.775, ivtmp.775,
.L31:
	add	ip, r2, r1	@ ivtmp.775, ivtmp.775, iScale
	mov	r5, r2, asr #6	@ j.781, ivtmp.775,
	add	r4, r3, #1	@ tmp167, i.783,
	bic	r5, r5, r5, asr #31	@ j.785, j.781
	mov	r2, ip, asr #6	@ j.781, ivtmp.775,
	cmp	r5, #255	@ j.785,
	movge	r5, #255	@ tmp164,
	bic	r2, r2, r2, asr #31	@ j.785, j.781
	strb	r5, [r0, r3]	@ tmp164,* i.783
	add	r3, r4, #1	@ i.783, tmp167,
	cmp	r2, #255	@ j.785,
	movge	r2, #255	@ tmp177,
	cmp	r3, #256	@ i.783,
	strb	r2, [r0, r4]	@ tmp177,
	add	r2, ip, r1	@ ivtmp.775, ivtmp.775, iScale
	bne	.L31	@,
	ldmfd	sp, {r4, r5, fp, sp, pc}	@
	.fnend
	.size	VC1_Vfmw_GenerateIntensityMap, .-VC1_Vfmw_GenerateIntensityMap
	.align	2
	.global	VC1_SetCurPicResolutionInfo
	.type	VC1_SetCurPicResolutionInfo, %function
VC1_SetCurPicResolutionInfo:
	.fnstart
.LFB1385:
	@ args = 0, pretend = 0, frame = 0
	@ frame_needed = 1, uses_anonymous_args = 0
	.movsp ip
	mov	ip, sp	@,
	stmfd	sp!, {fp, ip, lr, pc}	@,
	.pad #4
	.save {fp, ip, lr}
	.setfp fp, ip, #-4
	sub	fp, ip, #4	@,,
	push	{lr}
	bl	__gnu_mcount_nc
	cmp	r1, #1	@ RESPIC,
	beq	.L40	@,
	cmp	r1, #2	@ RESPIC,
	beq	.L41	@,
	cmp	r1, #0	@ RESPIC,
	beq	.L46	@,
	movw	r2, #22944	@ tmp160,
	movw	r3, #22948	@ tmp168,
	ldr	ip, [r0, r2]	@ <variable>.MbWidth, <variable>.MbWidth
	ldr	r1, [r0, r3]	@ <variable>.MbHeight, <variable>.MbHeight
	add	r2, ip, #1	@ tmp161, <variable>.MbWidth,
	add	r3, r1, #1	@ tmp169, <variable>.MbHeight,
	add	ip, r2, r2, lsr #31	@, tmp164, tmp161, tmp161,
	add	r3, r3, r3, lsr #31	@, tmp172, tmp169, tmp169,
	mov	r2, ip, asr #1	@ prephitmp.799, tmp164,
.L45:
	movw	r1, #35384	@ tmp166,
	mov	ip, r3, asr #1	@ tmp173, tmp172,
	str	r2, [r0, r1]	@ prephitmp.799, <variable>.CurPicMbWidth
	movw	r1, #35388	@ tmp167,
	str	ip, [r0, r1]	@ tmp173, <variable>.CurPicMbHeight
.L42:
	movw	r1, #35384	@ tmp182,
	movw	r3, #35388	@ tmp177,
	ldr	ip, [r0, r1]	@ <variable>.CurPicMbWidth, <variable>.CurPicMbWidth
	movw	r1, #35376	@ tmp174,
	ldr	r3, [r0, r3]	@ <variable>.CurPicMbHeight, <variable>.CurPicMbHeight
	mov	r2, r2, asl #4	@ tmp175, prephitmp.799,
	str	r2, [r0, r1]	@ tmp175, <variable>.CurPicWidth
	movw	r2, #35392	@ tmp180,
	mov	r1, r3, asl #4	@ tmp179, <variable>.CurPicMbHeight,
	mul	r3, ip, r3	@ tmp185, <variable>.CurPicMbWidth, <variable>.CurPicMbHeight
	movw	ip, #35380	@ tmp176,
	str	r1, [r0, ip]	@ tmp179, <variable>.CurPicHeight
	str	r3, [r0, r2]	@ tmp185, <variable>.CurPicMbNum
	ldmfd	sp, {fp, sp, pc}	@
.L46:
	movw	r1, #22944	@ tmp136,
	movw	r3, #22948	@ tmp139,
	ldr	r2, [r0, r1]	@ prephitmp.799, <variable>.MbWidth
	movw	ip, #35384	@ tmp137,
	ldr	r1, [r0, r3]	@ <variable>.MbHeight, <variable>.MbHeight
	movw	r3, #35388	@ tmp138,
	str	r2, [r0, ip]	@ prephitmp.799, <variable>.CurPicMbWidth
	str	r1, [r0, r3]	@ <variable>.MbHeight, <variable>.CurPicMbHeight
	b	.L42	@
.L41:
	movw	r1, #22948	@ tmp154,
	movw	r2, #22944	@ tmp151,
	ldr	r3, [r0, r1]	@ <variable>.MbHeight, <variable>.MbHeight
	ldr	r2, [r0, r2]	@ prephitmp.799, <variable>.MbWidth
	add	ip, r3, #1	@ tmp155, <variable>.MbHeight,
	add	r3, ip, ip, lsr #31	@, tmp158, tmp155, tmp155,
	b	.L45	@
.L40:
	movw	r1, #22944	@ tmp141,
	movw	r3, #22948	@ tmp149,
	ldr	r2, [r0, r1]	@ <variable>.MbWidth, <variable>.MbWidth
	ldr	r1, [r0, r3]	@ <variable>.MbHeight, <variable>.MbHeight
	movw	r3, #35388	@ tmp148,
	add	ip, r2, #1	@ tmp142, <variable>.MbWidth,
	add	r2, ip, ip, lsr #31	@, tmp145, tmp142, tmp142,
	movw	ip, #35384	@ tmp147,
	str	r1, [r0, r3]	@ <variable>.MbHeight, <variable>.CurPicMbHeight
	mov	r2, r2, asr #1	@ prephitmp.799, tmp145,
	str	r2, [r0, ip]	@ prephitmp.799, <variable>.CurPicMbWidth
	b	.L42	@
	.fnend
	.size	VC1_SetCurPicResolutionInfo, .-VC1_SetCurPicResolutionInfo
	.align	2
	.global	VC1_Vfmw_UserData
	.type	VC1_Vfmw_UserData, %function
VC1_Vfmw_UserData:
	.fnstart
.LFB1415:
	@ args = 0, pretend = 0, frame = 0
	@ frame_needed = 1, uses_anonymous_args = 0
	.movsp ip
	mov	ip, sp	@,
	stmfd	sp!, {fp, ip, lr, pc}	@,
	.pad #4
	.save {fp, ip, lr}
	.setfp fp, ip, #-4
	sub	fp, ip, #4	@,,
	push	{lr}
	bl	__gnu_mcount_nc
	mov	r0, #1	@,
	ldmfd	sp, {fp, sp, pc}	@
	.fnend
	.size	VC1_Vfmw_UserData, .-VC1_Vfmw_UserData
	.align	2
	.global	VC1_Vfmw_UpdateAdvSPS
	.type	VC1_Vfmw_UpdateAdvSPS, %function
VC1_Vfmw_UpdateAdvSPS:
	.fnstart
.LFB1417:
	@ args = 0, pretend = 0, frame = 0
	@ frame_needed = 1, uses_anonymous_args = 0
	.movsp ip
	mov	ip, sp	@,
	stmfd	sp!, {r3, r4, r5, r6, fp, ip, lr, pc}	@,
	.pad #4
	.save {r3, r4, r5, r6, fp, ip, lr}
	.setfp fp, ip, #-4
	sub	fp, ip, #4	@,,
	push	{lr}
	bl	__gnu_mcount_nc
	mov	r4, r0	@ pCodecInf, pCodecInf
	movw	r0, #10590	@ tmp140,
	ldrh	r3, [r1, #238]	@ D.38914, <variable>.AdvEntSyntax.CODED_WIDTH
	ldrh	r2, [r4, r0]	@ <variable>.AdvEntSyntax.CODED_WIDTH, <variable>.AdvEntSyntax.CODED_WIDTH
	mov	r5, r1	@ pSyntax, pSyntax
	cmp	r2, r3	@ <variable>.AdvEntSyntax.CODED_WIDTH, D.38914
	moveq	r1, #0	@ Ret,
	beq	.L51	@,
	adds	r1, r3, #15	@ tmp143, D.38914,
	movw	r2, #22944	@ tmp142,
	addmi	ip, r3, #30	@, tmp144, D.38914,
	movpl	ip, r1	@, tmp144, tmp143
	movw	r3, #22960	@ tmp147,
	mov	r1, #1	@ Ret,
	mov	r0, ip, asr #4	@ tmp146, tmp144,
	str	r0, [r4, r2]	@ tmp146, <variable>.MbWidth
	ldrh	ip, [r5, #238]	@ <variable>.AdvEntSyntax.CODED_WIDTH, <variable>.AdvEntSyntax.CODED_WIDTH
	str	ip, [r4, r3]	@ <variable>.AdvEntSyntax.CODED_WIDTH, <variable>.DispPicWidth
.L51:
	movw	r0, #10592	@ tmp149,
	ldrh	r3, [r5, #240]	@ D.38922, <variable>.AdvEntSyntax.CODED_HEIGHT
	ldrh	r2, [r4, r0]	@ <variable>.AdvEntSyntax.CODED_HEIGHT, <variable>.AdvEntSyntax.CODED_HEIGHT
	cmp	r2, r3	@ <variable>.AdvEntSyntax.CODED_HEIGHT, D.38922
	beq	.L52	@,
	adds	r2, r3, #15	@ tmp152, D.38922,
	movw	ip, #22948	@ tmp151,
	addmi	r1, r3, #30	@, tmp153, D.38922,
	movpl	r1, r2	@, tmp153, tmp152
	movw	lr, #22964	@ tmp156,
	mov	r3, r1, asr #4	@ tmp155, tmp153,
	str	r3, [r4, ip]	@ tmp155, <variable>.MbHeight
	ldrh	r6, [r5, #240]	@ <variable>.AdvEntSyntax.CODED_HEIGHT, <variable>.AdvEntSyntax.CODED_HEIGHT
	str	r6, [r4, lr]	@ <variable>.AdvEntSyntax.CODED_HEIGHT, <variable>.DispPicHeight
.L53:
	add	r1, r5, #16	@, pSyntax,
	add	r5, r5, #188	@ tmp165, pSyntax,
	mov	r2, #172	@,
	add	r0, r4, #10368	@, pCodecInf,
	bl	memcpy	@
	ldmia	r5!, {r0, r1, r2, r3}	@ tmp167,,,,
	add	r6, r4, #10496	@ tmp164, pCodecInf,
	add	ip, r6, #44	@ tmp164, tmp164,
	mov	r4, #1	@ Ret.869,
	mov	r6, ip	@ tmp168, tmp164
	stmia	r6!, {r0, r1, r2, r3}	@ tmp168,,,,
	mov	ip, r6	@ tmp170, tmp168
	ldmia	r5!, {r0, r1, r2, r3}	@ tmp169,,,,
	stmia	ip!, {r0, r1, r2, r3}	@ tmp170,,,,
	ldmia	r5!, {r0, r1, r2, r3}	@ tmp171,,,,
	stmia	ip!, {r0, r1, r2, r3}	@ tmp170,,,,
	ldmia	r5, {r0, r1, r2}	@ tmp171,,,
	stmia	ip, {r0, r1, r2}	@ tmp172,,,
	mov	r0, r4	@, Ret.869
	ldmfd	sp, {r3, r4, r5, r6, fp, sp, pc}	@
.L52:
	cmp	r1, #1	@ Ret,
	movne	r4, #0	@ Ret.869,
	beq	.L53	@,
	mov	r0, r4	@, Ret.869
	ldmfd	sp, {r3, r4, r5, r6, fp, sp, pc}	@
	.fnend
	.size	VC1_Vfmw_UpdateAdvSPS, .-VC1_Vfmw_UpdateAdvSPS
	.align	2
	.global	VC1_Vfmw_UpdataLastPicRNDCTRL
	.type	VC1_Vfmw_UpdataLastPicRNDCTRL, %function
VC1_Vfmw_UpdataLastPicRNDCTRL:
	.fnstart
.LFB1420:
	@ args = 0, pretend = 0, frame = 0
	@ frame_needed = 1, uses_anonymous_args = 0
	.movsp ip
	mov	ip, sp	@,
	stmfd	sp!, {fp, ip, lr, pc}	@,
	.pad #4
	.save {fp, ip, lr}
	.setfp fp, ip, #-4
	sub	fp, ip, #4	@,,
	push	{lr}
	bl	__gnu_mcount_nc
	ldrb	r3, [r0, #3096]	@ zero_extendqisi2	@, <variable>.PreParseInfo.IsAdvProfile
	cmp	r3, #0	@ <variable>.PreParseInfo.IsAdvProfile,
	bne	.L58	@,
	movw	r1, #10603	@ tmp143,
	ldrb	r3, [r0, r1]	@ zero_extendqisi2	@ D.39082, <variable>.SMPPicSyntax.PTYPE
	cmp	r3, #0	@ D.39082,
	cmpne	r3, #4	@, D.39082,
	moveq	r3, #1	@ prephitmp.886,
	moveq	r2, r3	@ prephitmp.884, prephitmp.886
	beq	.L60	@,
	cmp	r3, #1	@ D.39082,
	beq	.L63	@,
	ldrb	r2, [r0, #10]	@ zero_extendqisi2	@ prephitmp.884, <variable>.LastPicRNDCTRL
	mov	r3, r2	@ prephitmp.886, prephitmp.884
.L60:
	movw	ip, #10622	@ tmp154,
	strb	r2, [r0, #10]	@ prephitmp.884, <variable>.LastPicRNDCTRL
	strb	r3, [r0, ip]	@ prephitmp.886, <variable>.SMPPicSyntax.RNDCTRL
.L58:
	mov	r0, #1	@,
	ldmfd	sp, {fp, sp, pc}	@
.L63:
	ldrsb	r2, [r0, #10]	@ <variable>.LastPicRNDCTRL, <variable>.LastPicRNDCTRL
	rsbs	r2, r2, #1	@ prephitmp.884, <variable>.LastPicRNDCTRL
	movcc	r2, #0	@ prephitmp.884
	mov	r3, r2	@ prephitmp.886, prephitmp.884
	b	.L60	@
	.fnend
	.size	VC1_Vfmw_UpdataLastPicRNDCTRL, .-VC1_Vfmw_UpdataLastPicRNDCTRL
	.align	2
	.global	VC1_Vfmw_DecPQUANT
	.type	VC1_Vfmw_DecPQUANT, %function
VC1_Vfmw_DecPQUANT:
	.fnstart
.LFB1421:
	@ args = 0, pretend = 0, frame = 128
	@ frame_needed = 1, uses_anonymous_args = 0
	.movsp ip
	mov	ip, sp	@,
	stmfd	sp!, {r4, r5, fp, ip, lr, pc}	@,
	.pad #4
	.save {r4, r5, fp, ip, lr}
	.setfp fp, ip, #-4
	sub	fp, ip, #4	@,,
	.pad #128
	sub	sp, sp, #128	@,,
	push	{lr}
	bl	__gnu_mcount_nc
	mov	r2, #128	@,
	mov	r4, r1	@ PqIndex, PqIndex
	mov	r5, r0	@ Quantizer, Quantizer
	movw	r1, #:lower16:.LANCHOR0	@,
	sub	r0, fp, #148	@,,
	movt	r1, #:upper16:.LANCHOR0	@,
	bl	memcpy	@
	cmp	r5, #0	@ Quantizer,
	subeq	r3, fp, #20	@,,
	addeq	r4, r3, r4, asl #2	@, tmp143,, PqIndex,
	ldreq	r4, [r4, #-128]	@ PqIndex, PQuantIdex
	mov	r0, r4	@, PqIndex
	sub	sp, fp, #20
	ldmfd	sp, {r4, r5, fp, sp, pc}
	.fnend
	.size	VC1_Vfmw_DecPQUANT, .-VC1_Vfmw_DecPQUANT
	.align	2
	.global	VC1_GetPacketState
	.type	VC1_GetPacketState, %function
VC1_GetPacketState:
	.fnstart
.LFB1426:
	@ args = 0, pretend = 0, frame = 0
	@ frame_needed = 1, uses_anonymous_args = 0
	.movsp ip
	mov	ip, sp	@,
	stmfd	sp!, {fp, ip, lr, pc}	@,
	.pad #4
	.save {fp, ip, lr}
	.setfp fp, ip, #-4
	sub	fp, ip, #4	@,,
	push	{lr}
	bl	__gnu_mcount_nc
	movw	r3, #:lower16:78246	@ tmp136,
	movt	r3, #:upper16:78246	@ tmp136,
	ldrsb	r0, [r0, r3]	@ <variable>.CodecInfo.IsWaitToDec, <variable>.CodecInfo.IsWaitToDec
	cmp	r0, #1	@ <variable>.CodecInfo.IsWaitToDec,
	moveq	r0, #2	@,
	movne	r0, #0	@,
	ldmfd	sp, {fp, sp, pc}	@
	.fnend
	.size	VC1_GetPacketState, .-VC1_GetPacketState
	.align	2
	.global	VC1_SetCodeInfo
	.type	VC1_SetCodeInfo, %function
VC1_SetCodeInfo:
	.fnstart
.LFB1425:
	@ args = 0, pretend = 0, frame = 0
	@ frame_needed = 1, uses_anonymous_args = 0
	.movsp ip
	mov	ip, sp	@,
	stmfd	sp!, {r3, r4, r5, r6, r7, r8, fp, ip, lr, pc}	@,
	.pad #4
	.save {r3, r4, r5, r6, r7, r8, fp, ip, lr}
	.setfp fp, ip, #-4
	sub	fp, ip, #4	@,,
	push	{lr}
	bl	__gnu_mcount_nc
	movw	r3, #:lower16:81338	@ tmp138,
	movt	r3, #:upper16:81338	@ tmp138,
	movw	r2, #:lower16:81368	@ tmp137,
	movt	r2, #:upper16:81368	@ tmp137,
	mov	r4, r0	@ pCtx, pCtx
	ldrb	r3, [r0, r3]	@ zero_extendqisi2	@ <variable>.CodecInfo.PreParseInfo.CodecVersion, <variable>.CodecInfo.PreParseInfo.CodecVersion
	add	r0, r0, #80896	@ D.39186, pCtx,
	add	r0, r0, #476	@ D.39186, D.39186,
	str	r0, [r4, r2]	@ D.39186, <variable>.CodecInfo.pBs
	cmp	r3, #8	@ <variable>.CodecInfo.PreParseInfo.CodecVersion,
	beq	.L77	@,
	movw	ip, #:lower16:78252	@ tmp146,
	movw	r2, #:lower16:78251	@ tmp149,
	movt	ip, #:upper16:78252	@ tmp146,
	movt	r2, #:upper16:78251	@ tmp149,
	mov	lr, #0	@ tmp147,
	strb	r3, [r4, r2]	@ <variable>.CodecInfo.PreParseInfo.CodecVersion, <variable>.CodecInfo.CodecVersion
	strb	lr, [r4, ip]	@ tmp147, <variable>.CodecInfo.PostCresent
.L73:
	movw	r2, #:lower16:81336	@ tmp153,
	movt	r2, #:upper16:81336	@ tmp153,
	ldrsb	r3, [r4, r2]	@ <variable>.CodecInfo.PreParseInfo.IsAdvProfile, <variable>.CodecInfo.PreParseInfo.IsAdvProfile
	cmp	r3, #0	@ <variable>.CodecInfo.PreParseInfo.IsAdvProfile,
	beq	.L78	@,
	ldr	r2, [r1, #20]	@, <variable>.BsLength
	ldr	r1, [r1, #0]	@, <variable>.BsVirAddr
	bl	BsInit	@
	ldmfd	sp, {r3, r4, r5, r6, r7, r8, fp, sp, pc}	@
.L78:
	movw	r6, #:lower16:81360	@ tmp158,
	movt	r6, #:upper16:81360	@ tmp158,
	ldr	r2, [r1, #20]	@, <variable>.BsLength
	movw	r5, #:lower16:81364	@ tmp165,
	ldr	r1, [r1, #0]	@, <variable>.BsVirAddr
	movt	r5, #:upper16:81364	@ tmp165,
	bl	BsInit	@
	ldr	r2, [r4, r6]	@ <variable>.CodecInfo.PreParseInfo.FrmWidth, <variable>.CodecInfo.PreParseInfo.FrmWidth
	ldr	r3, [r4, r5]	@ <variable>.CodecInfo.PreParseInfo.FrmHeight, <variable>.CodecInfo.PreParseInfo.FrmHeight
	movw	lr, #:lower16:101184	@ tmp157,
	adds	r8, r2, #15	@ tmp159, <variable>.CodecInfo.PreParseInfo.FrmWidth,
	movt	lr, #:upper16:101184	@ tmp157,
	addmi	r8, r2, #30	@, tmp161, <variable>.CodecInfo.PreParseInfo.FrmWidth,
	adds	r7, r3, #15	@ tmp166, <variable>.CodecInfo.PreParseInfo.FrmHeight,
	addmi	r7, r3, #30	@, tmp168, <variable>.CodecInfo.PreParseInfo.FrmHeight,
	movw	ip, #:lower16:101188	@ tmp164,
	movw	r6, #:lower16:101200	@ tmp171,
	movt	ip, #:upper16:101188	@ tmp164,
	movt	r6, #:upper16:101200	@ tmp171,
	movw	r5, #:lower16:101204	@ tmp174,
	movt	r5, #:upper16:101204	@ tmp174,
	add	r0, r4, #80896	@, pCtx,
	movw	r1, #:lower16:81339	@,
	movt	r1, #:upper16:81339	@,
	str	r2, [r4, r6]	@ <variable>.CodecInfo.PreParseInfo.FrmWidth, <variable>.CodecInfo.DispPicWidth
	add	r1, r4, r1	@, pCtx,
	str	r3, [r4, r5]	@ <variable>.CodecInfo.PreParseInfo.FrmHeight, <variable>.CodecInfo.DispPicHeight
	mov	r2, #16	@,
	mov	r3, r8, asr #4	@ tmp163, tmp161,
	add	r0, r0, #504	@,,
	str	r3, [r4, lr]	@ tmp163, <variable>.CodecInfo.MbWidth
	mov	lr, r7, asr #4	@ tmp170, tmp168,
	str	lr, [r4, ip]	@ tmp170, <variable>.CodecInfo.MbHeight
	bl	memcpy	@
	ldmfd	sp, {r3, r4, r5, r6, r7, r8, fp, sp, pc}	@
.L77:
	movw	r2, #:lower16:78252	@ tmp140,
	movw	lr, #:lower16:78251	@ tmp143,
	movt	r2, #:upper16:78252	@ tmp140,
	movt	lr, #:upper16:78251	@ tmp143,
	mov	r3, #1	@ tmp141,
	mov	ip, #6	@ tmp144,
	strb	r3, [r4, r2]	@ tmp141, <variable>.CodecInfo.PostCresent
	strb	ip, [r4, lr]	@ tmp144, <variable>.CodecInfo.CodecVersion
	b	.L73	@
	.fnend
	.size	VC1_SetCodeInfo, .-VC1_SetCodeInfo
	.align	2
	.global	VC1_ClearCurPacket
	.type	VC1_ClearCurPacket, %function
VC1_ClearCurPacket:
	.fnstart
.LFB1423:
	@ args = 0, pretend = 0, frame = 0
	@ frame_needed = 1, uses_anonymous_args = 0
	.movsp ip
	mov	ip, sp	@,
	stmfd	sp!, {r4, r5, fp, ip, lr, pc}	@,
	.pad #4
	.save {r4, r5, fp, ip, lr}
	.setfp fp, ip, #-4
	sub	fp, ip, #4	@,,
	push	{lr}
	bl	__gnu_mcount_nc
	mov	r4, r1	@ pVc1Packet, pVc1Packet
	ldr	r1, [r1, #28]	@, <variable>.StreamID
	mov	r5, r0	@ ChanID, ChanID
	bl	SM_ReleaseStreamSeg	@
	ldrsb	r3, [r4, #8]	@ <variable>.IsLastSeg, <variable>.IsLastSeg
	cmp	r3, #1	@ <variable>.IsLastSeg,
	beq	.L80	@,
	mov	r0, r5	@, ChanID
	ldr	r1, [r4, #32]	@, <variable>.StreamID
	bl	SM_ReleaseStreamSeg	@
.L80:
	mov	r0, r4	@, pVc1Packet
	mov	r1, #36	@,
	bl	__memzero	@
	ldmfd	sp, {r4, r5, fp, sp, pc}	@
	.fnend
	.size	VC1_ClearCurPacket, .-VC1_ClearCurPacket
	.align	2
	.global	VC1_ClearCurPic
	.type	VC1_ClearCurPic, %function
VC1_ClearCurPic:
	.fnstart
.LFB1424:
	@ args = 0, pretend = 0, frame = 0
	@ frame_needed = 1, uses_anonymous_args = 0
	.movsp ip
	mov	ip, sp	@,
	stmfd	sp!, {r3, r4, r5, r6, r7, r8, fp, ip, lr, pc}	@,
	.pad #4
	.save {r3, r4, r5, r6, r7, r8, fp, ip, lr}
	.setfp fp, ip, #-4
	sub	fp, ip, #4	@,,
	push	{lr}
	bl	__gnu_mcount_nc
	ldrb	r3, [r0, #3096]	@ zero_extendqisi2	@, <variable>.PreParseInfo.IsAdvProfile
	mov	r7, r0	@ pCodeInfo, pCodeInfo
	mov	r6, r1	@ ChanID, ChanID
	cmp	r3, #0	@ <variable>.PreParseInfo.IsAdvProfile,
	beq	.L83	@,
	movw	r8, #23028	@ tmp171,
	ldr	r0, [r0, r8]	@ <variable>.SlcNum, <variable>.SlcNum
	cmp	r0, #0	@ <variable>.SlcNum,
	ldmlefd	sp, {r3, r4, r5, r6, r7, r8, fp, sp, pc}	@
	add	r4, r7, #22784	@ ivtmp.1027, pCodeInfo,
	mov	r5, #0	@ i,
	add	r4, r4, #252	@ ivtmp.1027, ivtmp.1027,
	b	.L87	@
.L86:
	ldr	lr, [r7, r8]	@ <variable>.SlcNum, <variable>.SlcNum
	add	r4, r4, #48	@ ivtmp.1027, ivtmp.1027,
	cmp	lr, r5	@ <variable>.SlcNum, i
	ble	.L90	@,
.L87:
	ldr	r1, [r4, #36]	@, <variable>.StreamID
	mov	r0, r6	@, ChanID
	bl	SM_ReleaseStreamSeg	@
	ldr	r2, [r4, #0]	@ <variable>.pStream2, <variable>.pStream2
	add	r5, r5, #1	@ i, i,
	cmp	r2, #0	@ <variable>.pStream2,
	beq	.L86	@,
	ldr	ip, [r4, #24]	@ <variable>.Phy_addr2, <variable>.Phy_addr2
	cmp	ip, #0	@ <variable>.Phy_addr2,
	beq	.L86	@,
	ldr	r1, [r4, #40]	@, <variable>.StreamID2
	mov	r0, r6	@, ChanID
	bl	SM_ReleaseStreamSeg	@
	ldr	lr, [r7, r8]	@ <variable>.SlcNum, <variable>.SlcNum
	add	r4, r4, #48	@ ivtmp.1027, ivtmp.1027,
	cmp	lr, r5	@ <variable>.SlcNum, i
	bgt	.L87	@,
.L90:
	ldmfd	sp, {r3, r4, r5, r6, r7, r8, fp, sp, pc}	@
.L83:
	add	r1, r0, #35072	@, pCodeInfo,
	mov	r0, r6	@, ChanID
	add	r1, r1, #252	@,,
	bl	VC1_ClearCurPacket	@
	ldmfd	sp, {r3, r4, r5, r6, r7, r8, fp, sp, pc}	@
	.fnend
	.size	VC1_ClearCurPic, .-VC1_ClearCurPic
	.align	2
	.global	VC1_Vfmw_BuildRefList
	.type	VC1_Vfmw_BuildRefList, %function
VC1_Vfmw_BuildRefList:
	.fnstart
.LFB1382:
	@ args = 0, pretend = 0, frame = 528
	@ frame_needed = 1, uses_anonymous_args = 0
	.movsp ip
	mov	ip, sp	@,
	stmfd	sp!, {r4, r5, r6, r7, r8, r9, sl, fp, ip, lr, pc}	@,
	.pad #4
	.save {r4, r5, r6, r7, r8, r9, sl, fp, ip, lr}
	.setfp fp, ip, #-4
	sub	fp, ip, #4	@,,
	.pad #532
	sub	sp, sp, #532	@,,
	push	{lr}
	bl	__gnu_mcount_nc
	add	r5, r0, #22784	@ tmp200, pCodecInf,
	mov	r9, r0	@ pCodecInf, pCodecInf
	mov	r4, r1	@ PicType, PicType
	add	r0, r5, #192	@, tmp200,
	mov	r1, #16	@,
	mov	r8, r3	@ IsTop, IsTop
	mov	r6, r2	@ SndFld, SndFld
	bl	__memzero	@
	add	r0, r5, #208	@, tmp200,
	mov	r1, #16	@,
	bl	__memzero	@
	ldrsb	r3, [r9, #4]	@ D.36973, <variable>.PicStructure
	cmp	r3, #0	@ D.36973,
	cmpne	r3, #2	@, D.36973,
	bne	.L92	@,
	cmp	r4, #1	@ PicType,
	beq	.L154	@,
	cmp	r4, #2	@ PicType,
	beq	.L155	@,
.L125:
	movw	r0, #22980	@ tmp600,
	mov	ip, #0	@ tmp599,
	movw	r1, #22996	@ tmp598,
	str	ip, [r9, r0]	@ tmp599, <variable>.RefList0.ListLen
	mov	r0, #1	@ D.37121,
	str	ip, [r9, r1]	@ tmp599, <variable>.RefList1.ListLen
.L108:
	sub	sp, fp, #40
	ldmfd	sp, {r4, r5, r6, r7, r8, r9, sl, fp, sp, pc}
.L92:
	movw	r5, #10704	@ tmp390,
	ldrb	r1, [r9, r5]	@ zero_extendqisi2	@ <variable>.AdvPicSyntax.TFF, <variable>.AdvPicSyntax.TFF
	cmp	r1, #1	@ <variable>.AdvPicSyntax.TFF,
	beq	.L156	@,
	movw	r5, #10741	@ tmp400,
	ldrb	r1, [r9, r5]	@ zero_extendqisi2	@ <variable>.AdvPicSyntax.CurParity, <variable>.AdvPicSyntax.CurParity
	cmp	r1, #0	@ <variable>.AdvPicSyntax.CurParity,
	beq	.L157	@,
.L112:
	movw	lr, #22936	@ tmp407,
	ldr	r0, [r9, lr]	@ <variable>.pRef, <variable>.pRef
	ldr	r5, [r0, #1208]	@ TopRefIdx, <variable>.img.image_id
	mov	r7, r5	@ BotRefIdx, TopRefIdx
.L111:
	cmp	r4, #1	@ PicType,
	beq	.L158	@,
.L113:
	cmp	r4, #2	@ PicType,
	bne	.L125	@,
	cmp	r6, #0	@ SndFld,
	movw	lr, #22980	@ tmp520,
	movw	ip, #22996	@ tmp518,
	movw	r3, #22976	@ tmp522,
	movw	r2, #22977	@ tmp525,
	mov	r0, #0	@ tmp523,
	mov	r1, #1	@ tmp526,
	strb	r0, [r9, r3]	@ tmp523, <variable>.RefList0.FldFlag
	str	r4, [r9, lr]	@ PicType, <variable>.RefList0.ListLen
	str	r4, [r9, ip]	@ PicType, <variable>.RefList1.ListLen
	strb	r1, [r9, r2]	@ tmp526, <variable>.RefList0.FldFlag
	beq	.L126	@,
	cmp	r8, #0	@ IsTop,
	beq	.L127	@,
.L126:
	movw	r2, #22936	@ tmp535,
	ldr	r0, [r9, r2]	@ <variable>.pRef,
	ldr	r2, [r0, #1208]	@ <variable>.img.image_id, <variable>.img.image_id
.L152:
	movw	lr, #22984	@ tmp533,
	movw	r4, #22932	@ tmp544,
	str	r2, [r9, lr]	@ <variable>.img.image_id, <variable>.RefList0.ImgObj
	movw	ip, #22993	@ tmp540,
	ldr	lr, [r9, r4]	@ <variable>.pRef, <variable>.pRef
	movw	r2, #22992	@ tmp537,
	mov	r0, #0	@ tmp538,
	mov	r1, #1	@ tmp541,
	strb	r0, [r9, r2]	@ tmp538, <variable>.RefList1.FldFlag
	movw	r3, #10828	@ tmp553,
	strb	r1, [r9, ip]	@ tmp541, <variable>.RefList1.FldFlag
	movw	r4, #23000	@ tmp545,
	ldr	r1, [lr, #1208]	@ temp.1307, <variable>.img.image_id
	movw	r2, #22928	@ tmp552,
	ldr	r3, [r9, r3]	@ D.37063, <variable>.AdvPicSyntax.INTCOMPFIELD
	movw	ip, #23004	@ tmp546,
	movw	r0, #22984	@ tmp550,
	str	r1, [r9, r4]	@ temp.1307, <variable>.RefList1.ImgObj
	cmp	r3, #1	@ D.37063,
	ldr	r4, [lr, #1208]	@ <variable>.img.image_id, <variable>.img.image_id
	ldr	lr, [r9, r2]	@ <variable>.pCurFrm, <variable>.pCurFrm
	ldr	r0, [r9, r0]	@ FwdRefIdx.1311, <variable>.RefList0.ImgObj
	str	r4, [r9, ip]	@ <variable>.img.image_id, <variable>.RefList1.ImgObj
	ldr	ip, [lr, #1208]	@ CurRefIdx.1314, <variable>.img.image_id
	bls	.L159	@,
.L130:
	cmp	r3, #0	@ D.37063,
	cmpne	r3, #2	@, D.37063,
	beq	.L132	@,
.L134:
	movw	r5, #1496	@ tmp564,
	mov	r8, #0	@ i.1330,
	mla	sl, r5, ip, r9	@ ivtmp.1216, tmp564, CurRefIdx.1314, pCodecInf
	mov	r3, r9	@ ivtmp.1199, pCodecInf
	mla	r7, r5, r0, r9	@ ivtmp.1197, tmp564, FwdRefIdx.1311, pCodecInf
	str	r9, [fp, #-560]	@ pCodecInf, %sfp
	mla	r6, r5, r1, r9	@ ivtmp.1207, tmp564, temp.1307, pCodecInf
	add	ip, sl, #13952	@ ivtmp.1216, ivtmp.1216,
	add	r0, r7, #13952	@ ivtmp.1197, ivtmp.1197,
	mov	r9, r8	@ i.1330, i.1330
	add	r1, r6, #13952	@ ivtmp.1207, ivtmp.1207,
.L133:
	ldrb	r6, [r0, #3]	@ zero_extendqisi2	@ tmp574, <variable>.IntensityConvertTab
	add	r2, r0, #1	@ tmp626, ivtmp.1197,
	ldr	r4, [fp, #-560]	@, %sfp
	add	lr, r3, #1	@ tmp627, ivtmp.1199,
	add	r5, r1, #1	@ tmp628, ivtmp.1207,
	strb	r6, [r3, #13]	@ tmp574, <variable>.IntensityConvertTab
	add	r8, r4, r9	@ D.40097,, i.1330
	ldrb	r7, [r0, #259]	@ zero_extendqisi2	@, <variable>.IntensityConvertTab
	add	r9, r9, #1	@ tmp625, i.1330,
	ldr	sl, [fp, #-560]	@, %sfp
	add	r4, ip, #1	@ tmp629, ivtmp.1216,
	str	r7, [fp, #-568]	@, %sfp
	add	r7, sl, r9	@ D.40097,, tmp625
	ldr	r6, [fp, #-568]	@, %sfp
	add	r9, r9, #1	@ i.1330, tmp625,
	cmp	r9, #256	@ i.1330,
	strb	r6, [r3, #269]	@, <variable>.IntensityConvertTab
	ldrb	sl, [r0, #515]	@ zero_extendqisi2	@ tmp578, <variable>.IntensityConvertTab
	strb	sl, [r3, #525]	@ tmp578, <variable>.IntensityConvertTab
	ldrb	r6, [r0, #771]	@ zero_extendqisi2	@ tmp580, <variable>.IntensityConvertTab
	add	r0, r2, #1	@ ivtmp.1197, tmp626,
	strb	r6, [r3, #781]	@ tmp580, <variable>.IntensityConvertTab
	ldrb	sl, [r1, #3]	@ zero_extendqisi2	@ tmp582, <variable>.IntensityConvertTab
	strb	sl, [r3, #1037]	@ tmp582, <variable>.IntensityConvertTab
	ldrb	r6, [r1, #259]	@ zero_extendqisi2	@ tmp584, <variable>.IntensityConvertTab
	strb	r6, [r3, #1293]	@ tmp584, <variable>.IntensityConvertTab
	ldrb	sl, [r1, #515]	@ zero_extendqisi2	@ tmp586, <variable>.IntensityConvertTab
	strb	sl, [r3, #1549]	@ tmp586, <variable>.IntensityConvertTab
	ldrb	r6, [r1, #771]	@ zero_extendqisi2	@ tmp588, <variable>.IntensityConvertTab
	add	r1, r5, #1	@ ivtmp.1207, tmp628,
	strb	r6, [r3, #1805]	@ tmp588, <variable>.IntensityConvertTab
	add	r3, lr, #1	@ ivtmp.1199, tmp627,
	ldrb	sl, [ip, #3]	@ zero_extendqisi2	@ tmp590, <variable>.IntensityConvertTab
	strb	sl, [r8, #2061]	@ tmp590, <variable>.IntensityConvertTab
	ldrb	r6, [ip, #259]	@ zero_extendqisi2	@ tmp592, <variable>.IntensityConvertTab
	strb	r6, [r8, #2317]	@ tmp592, <variable>.IntensityConvertTab
	ldrb	sl, [ip, #515]	@ zero_extendqisi2	@ tmp594, <variable>.IntensityConvertTab
	strb	sl, [r8, #2573]	@ tmp594, <variable>.IntensityConvertTab
	ldrb	sl, [ip, #771]	@ zero_extendqisi2	@ tmp596, <variable>.IntensityConvertTab
	add	ip, r4, #1	@ ivtmp.1216, tmp629,
	strb	sl, [r8, #2829]	@ tmp596, <variable>.IntensityConvertTab
	ldrb	r6, [r2, #3]	@ zero_extendqisi2	@ tmp707, <variable>.IntensityConvertTab
	strb	r6, [lr, #13]	@ tmp707, <variable>.IntensityConvertTab
	ldrb	r8, [r2, #259]	@ zero_extendqisi2	@ tmp708, <variable>.IntensityConvertTab
	strb	r8, [lr, #269]	@ tmp708, <variable>.IntensityConvertTab
	ldrb	r8, [r2, #515]	@ zero_extendqisi2	@ tmp709, <variable>.IntensityConvertTab
	strb	r8, [lr, #525]	@ tmp709, <variable>.IntensityConvertTab
	ldrb	r6, [r2, #771]	@ zero_extendqisi2	@ tmp710, <variable>.IntensityConvertTab
	strb	r6, [lr, #781]	@ tmp710, <variable>.IntensityConvertTab
	ldrb	r2, [r5, #3]	@ zero_extendqisi2	@ tmp711, <variable>.IntensityConvertTab
	strb	r2, [lr, #1037]	@ tmp711, <variable>.IntensityConvertTab
	ldrb	r6, [r5, #259]	@ zero_extendqisi2	@ tmp712, <variable>.IntensityConvertTab
	strb	r6, [lr, #1293]	@ tmp712, <variable>.IntensityConvertTab
	ldrb	r6, [r5, #515]	@ zero_extendqisi2	@ tmp713, <variable>.IntensityConvertTab
	strb	r6, [lr, #1549]	@ tmp713, <variable>.IntensityConvertTab
	ldrb	r5, [r5, #771]	@ zero_extendqisi2	@ tmp714, <variable>.IntensityConvertTab
	strb	r5, [lr, #1805]	@ tmp714, <variable>.IntensityConvertTab
	ldrb	r2, [r4, #3]	@ zero_extendqisi2	@ tmp716, <variable>.IntensityConvertTab
	strb	r2, [r7, #2061]	@ tmp716, <variable>.IntensityConvertTab
	ldrb	lr, [r4, #259]	@ zero_extendqisi2	@ tmp717, <variable>.IntensityConvertTab
	strb	lr, [r7, #2317]	@ tmp717, <variable>.IntensityConvertTab
	ldrb	r2, [r4, #515]	@ zero_extendqisi2	@ tmp718, <variable>.IntensityConvertTab
	strb	r2, [r7, #2573]	@ tmp718, <variable>.IntensityConvertTab
	ldrb	lr, [r4, #771]	@ zero_extendqisi2	@ tmp719, <variable>.IntensityConvertTab
	strb	lr, [r7, #2829]	@ tmp719, <variable>.IntensityConvertTab
	bne	.L133	@,
	mov	r0, #1	@ D.37121,
	b	.L108	@
.L157:
	movw	r7, #22936	@ tmp403,
	movw	ip, #22932	@ tmp405,
	ldr	r2, [r9, r7]	@ <variable>.pRef, <variable>.pRef
	cmp	r4, #1	@ PicType,
	ldr	r3, [r9, ip]	@ <variable>.pRef, <variable>.pRef
	ldr	r5, [r2, #1208]	@ TopRefIdx, <variable>.img.image_id
	ldr	r7, [r3, #1208]	@ BotRefIdx, <variable>.img.image_id
	bne	.L113	@,
.L158:
	movw	r0, #10732	@ tmp409,
	movw	r3, #22977	@ tmp417,
	cmp	r6, #0	@ SndFld,
	ldrb	ip, [r9, r0]	@ zero_extendqisi2	@ <variable>.AdvPicSyntax.NUMREF, <variable>.AdvPicSyntax.NUMREF
	strb	r4, [r9, r3]	@ PicType, <variable>.RefList0.FldFlag
	movw	r2, #22980	@ tmp408,
	movw	r4, #22976	@ tmp414,
	movw	r6, #22996	@ tmp412,
	mov	r3, #0	@ tmp413,
	add	r1, ip, #1	@ tmp411, <variable>.AdvPicSyntax.NUMREF,
	strb	r3, [r9, r4]	@ tmp413, <variable>.RefList0.FldFlag
	str	r1, [r9, r2]	@ tmp411, <variable>.RefList0.ListLen
	str	r3, [r9, r6]	@ tmp413, <variable>.RefList1.ListLen
	beq	.L114	@,
	cmp	r8, r3	@ IsTop,
	beq	.L115	@,
.L114:
	movw	r4, #22936	@ tmp427,
	ldr	r6, [r9, r4]	@ <variable>.pRef,
	ldr	r2, [r6, #1208]	@ <variable>.img.image_id, <variable>.img.image_id
.L151:
	movw	r6, #22936	@ tmp431,
	movw	r3, #10828	@ tmp436,
	ldr	r8, [r9, r6]	@ <variable>.pRef, <variable>.pRef
	movw	r4, #22984	@ tmp425,
	ldr	r3, [r9, r3]	@ prephitmp.1068, <variable>.AdvPicSyntax.INTCOMPFIELD
	movw	lr, #22928	@ tmp435,
	str	r2, [r9, r4]	@ <variable>.img.image_id, <variable>.RefList0.ImgObj
	movw	r0, #22984	@ tmp433,
	ldr	ip, [r8, #1208]	@ <variable>.img.image_id, <variable>.img.image_id
	cmp	r3, #1	@ prephitmp.1068,
	ldr	r2, [r9, lr]	@ <variable>.pCurFrm, <variable>.pCurFrm
	movw	r1, #22988	@ tmp429,
	ldr	r8, [r9, r0]	@ FwdRefIdx, <variable>.RefList0.ImgObj
	str	ip, [r9, r1]	@ <variable>.img.image_id, <variable>.RefList0.ImgObj
	ldr	r6, [r2, #1208]	@ CurRefIdx, <variable>.img.image_id
	bls	.L160	@,
.L118:
	rsbs	r2, r3, #1	@ D.37078, prephitmp.1068
	movcc	r2, #0	@ D.37078
	cmp	r3, #0	@ prephitmp.1068,
	cmpne	r3, #2	@, prephitmp.1068,
	bne	.L120	@,
	movw	r3, #10714	@ tmp467,
	ldrb	r3, [r9, r3]	@ zero_extendqisi2	@ <variable>.AdvPicSyntax.MVMODE, <variable>.AdvPicSyntax.MVMODE
	cmp	r3, #4	@ <variable>.AdvPicSyntax.MVMODE,
	beq	.L161	@,
.L120:
	movw	r0, #1496	@ tmp494,
	add	r3, r9, #780	@ ivtmp.1165, pCodecInf,
	mla	lr, r0, r6, r9	@ tmp501, tmp494, CurRefIdx, pCodecInf
	add	r3, r3, #1	@ ivtmp.1165, ivtmp.1165,
	mla	r4, r0, r8, r9	@ tmp496, tmp494, FwdRefIdx, pCodecInf
	mov	r0, #0	@ i.1297,
	add	ip, lr, #13952	@ ivtmp.1166, tmp501,
	add	r1, ip, #3	@ ivtmp.1166, ivtmp.1166,
	add	r2, r4, #13952	@ ivtmp.1156, tmp496,
	add	r2, r2, #3	@ ivtmp.1156, ivtmp.1156,
.L124:
	ldrb	r4, [r2, #0]	@ zero_extendqisi2	@ tmp502, <variable>.IntensityConvertTab
	add	ip, r3, #1	@ tmp619, ivtmp.1165,
	add	r0, r0, #2	@ i.1297, i.1297,
	cmp	r0, #256	@ i.1297,
	strb	r4, [r3, #-768]	@ tmp502, <variable>.IntensityConvertTab
	ldrb	lr, [r2, #256]	@ zero_extendqisi2	@ tmp504, <variable>.IntensityConvertTab
	strb	lr, [r3, #-512]	@ tmp504, <variable>.IntensityConvertTab
	ldrb	r4, [r2, #512]	@ zero_extendqisi2	@ tmp506, <variable>.IntensityConvertTab
	strb	r4, [r3, #-256]	@ tmp506, <variable>.IntensityConvertTab
	ldrb	lr, [r2, #768]	@ zero_extendqisi2	@ tmp508, <variable>.IntensityConvertTab
	strb	lr, [r3, #0]	@ tmp508, <variable>.IntensityConvertTab
	ldrb	r4, [r1, #0]	@ zero_extendqisi2	@ tmp510, <variable>.IntensityConvertTab
	strb	r4, [r3, #1280]	@ tmp510, <variable>.IntensityConvertTab
	ldrb	lr, [r1, #256]	@ zero_extendqisi2	@ tmp512, <variable>.IntensityConvertTab
	strb	lr, [r3, #1536]	@ tmp512, <variable>.IntensityConvertTab
	ldrb	r4, [r1, #512]	@ zero_extendqisi2	@ tmp514, <variable>.IntensityConvertTab
	strb	r4, [r3, #1792]	@ tmp514, <variable>.IntensityConvertTab
	ldrb	lr, [r1, #768]	@ zero_extendqisi2	@ tmp516, <variable>.IntensityConvertTab
	strb	lr, [r3, #2048]	@ tmp516, <variable>.IntensityConvertTab
	ldrb	r4, [r2, #1]	@ zero_extendqisi2	@ tmp694, <variable>.IntensityConvertTab
	strb	r4, [r3, #-767]	@ tmp694, <variable>.IntensityConvertTab
	ldrb	lr, [r2, #257]	@ zero_extendqisi2	@ tmp695, <variable>.IntensityConvertTab
	strb	lr, [r3, #-511]	@ tmp695, <variable>.IntensityConvertTab
	ldrb	r4, [r2, #513]	@ zero_extendqisi2	@ tmp696, <variable>.IntensityConvertTab
	strb	r4, [ip, #-256]	@ tmp696, <variable>.IntensityConvertTab
	ldrb	lr, [r2, #769]	@ zero_extendqisi2	@ tmp697, <variable>.IntensityConvertTab
	add	r2, r2, #2	@ ivtmp.1156, ivtmp.1156,
	strb	lr, [r3, #1]	@ tmp697, <variable>.IntensityConvertTab
	ldrb	r4, [r1, #1]	@ zero_extendqisi2	@ tmp698, <variable>.IntensityConvertTab
	strb	r4, [r3, #1281]	@ tmp698, <variable>.IntensityConvertTab
	ldrb	lr, [r1, #257]	@ zero_extendqisi2	@ tmp699, <variable>.IntensityConvertTab
	strb	lr, [r3, #1537]	@ tmp699, <variable>.IntensityConvertTab
	ldrb	r4, [r1, #513]	@ zero_extendqisi2	@ tmp700, <variable>.IntensityConvertTab
	strb	r4, [r3, #1793]	@ tmp700, <variable>.IntensityConvertTab
	ldrb	r4, [r1, #769]	@ zero_extendqisi2	@ tmp701, <variable>.IntensityConvertTab
	add	r1, r1, #2	@ ivtmp.1166, ivtmp.1166,
	strb	r4, [r3, #2049]	@ tmp701, <variable>.IntensityConvertTab
	add	r3, ip, #1	@ ivtmp.1165, tmp619,
	bne	.L124	@,
	mov	r0, #1	@ D.37121,
	b	.L108	@
.L154:
	movw	lr, #22936	@ tmp220,
	ldrb	r5, [r9, #3096]	@ zero_extendqisi2	@, <variable>.PreParseInfo.IsAdvProfile
	ldr	r2, [r9, lr]	@ <variable>.pRef, <variable>.pRef
	movw	ip, #22980	@ tmp212,
	movw	r6, #22976	@ tmp216,
	movw	r1, #22996	@ tmp214,
	str	r4, [r9, ip]	@ PicType, <variable>.RefList0.ListLen
	mov	r4, #0	@ tmp215,
	strb	r4, [r9, r6]	@ tmp215, <variable>.RefList0.FldFlag
	cmp	r5, r4	@ <variable>.PreParseInfo.IsAdvProfile,
	str	r4, [r9, r1]	@ tmp215, <variable>.RefList1.ListLen
	movw	r0, #22984	@ tmp221,
	ldr	r4, [r2, #1208]	@ D.36983, <variable>.img.image_id
	str	r4, [r9, r0]	@ D.36983, <variable>.RefList0.ImgObj
	beq	.L94	@,
	movw	r5, #10744	@ tmp228,
	movw	r2, #10716	@ tmp225,
	ldr	r1, [r9, r5]	@ <variable>.AdvPicSyntax.FCM, <variable>.AdvPicSyntax.FCM
	movw	r0, #10717	@ tmp226,
	movw	r3, #10714	@ tmp227,
	ldrb	r5, [r9, r2]	@ zero_extendqisi2	@ LUMSCALE.1226, <variable>.AdvPicSyntax.LUMSCALE
	cmp	r1, #2	@ <variable>.AdvPicSyntax.FCM,
	ldrb	r6, [r9, r0]	@ zero_extendqisi2	@ LUMSHIFT.1227, <variable>.AdvPicSyntax.LUMSHIFT
	ldrb	r3, [r9, r3]	@ zero_extendqisi2	@ MVMODE, <variable>.AdvPicSyntax.MVMODE
	beq	.L162	@,
.L95:
	cmp	r3, #4	@ MVMODE,
	beq	.L96	@,
.L99:
	movw	lr, #1496	@ tmp236,
	mov	r2, r9	@ ivtmp.1095, pCodecInf
	mla	ip, lr, r4, r9	@ tmp238, tmp236, D.36983, pCodecInf
	mov	r0, #0	@ i.1232,
	add	r1, ip, #13952	@ ivtmp.1092, tmp238,
	add	r3, r1, #3	@ ivtmp.1092, ivtmp.1092,
.L97:
	ldrb	r1, [r3, #0]	@ zero_extendqisi2	@ tmp270, <variable>.IntensityConvertTab
	add	lr, r2, #1	@ tmp610, ivtmp.1095,
	add	r0, r0, #2	@ i.1232, i.1232,
	cmp	r0, #256	@ i.1232,
	strb	r1, [r2, #13]	@ tmp270, <variable>.IntensityConvertTab
	ldrb	ip, [r3, #256]	@ zero_extendqisi2	@ tmp272, <variable>.IntensityConvertTab
	strb	ip, [r2, #269]	@ tmp272, <variable>.IntensityConvertTab
	ldrb	r1, [r3, #512]	@ zero_extendqisi2	@ tmp274, <variable>.IntensityConvertTab
	strb	r1, [r2, #525]	@ tmp274, <variable>.IntensityConvertTab
	ldrb	ip, [r3, #768]	@ zero_extendqisi2	@ tmp276, <variable>.IntensityConvertTab
	strb	ip, [r2, #781]	@ tmp276, <variable>.IntensityConvertTab
	add	r2, lr, #1	@ ivtmp.1095, tmp610,
	ldrb	r1, [r3, #1]	@ zero_extendqisi2	@ tmp652, <variable>.IntensityConvertTab
	strb	r1, [lr, #13]	@ tmp652, <variable>.IntensityConvertTab
	ldrb	ip, [r3, #257]	@ zero_extendqisi2	@ tmp653, <variable>.IntensityConvertTab
	strb	ip, [lr, #269]	@ tmp653, <variable>.IntensityConvertTab
	ldrb	r1, [r3, #513]	@ zero_extendqisi2	@ tmp654, <variable>.IntensityConvertTab
	strb	r1, [lr, #525]	@ tmp654, <variable>.IntensityConvertTab
	ldrb	ip, [r3, #769]	@ zero_extendqisi2	@ tmp655, <variable>.IntensityConvertTab
	add	r3, r3, #2	@ ivtmp.1092, ivtmp.1092,
	strb	ip, [lr, #781]	@ tmp655, <variable>.IntensityConvertTab
	bne	.L97	@,
	mov	r0, #1	@ D.37121,
	b	.L108	@
.L156:
	movw	r2, #10741	@ tmp392,
	ldrb	r3, [r9, r2]	@ zero_extendqisi2	@ <variable>.AdvPicSyntax.CurParity, <variable>.AdvPicSyntax.CurParity
	cmp	r3, #0	@ <variable>.AdvPicSyntax.CurParity,
	beq	.L112	@,
	movw	lr, #22932	@ tmp397,
	movw	r0, #22936	@ tmp399,
	ldr	r7, [r9, lr]	@ <variable>.pRef, <variable>.pRef
	ldr	ip, [r9, r0]	@ <variable>.pRef, <variable>.pRef
	ldr	r5, [r7, #1208]	@ TopRefIdx, <variable>.img.image_id
	ldr	r7, [ip, #1208]	@ BotRefIdx, <variable>.img.image_id
	b	.L111	@
.L155:
	movw	lr, #22936	@ tmp286,
	movw	ip, #22932	@ tmp292,
	ldr	r5, [r9, lr]	@ <variable>.pRef, <variable>.pRef
	movw	r0, #22980	@ tmp280,
	movw	r3, #22996	@ tmp278,
	movw	r4, #22976	@ tmp282,
	mov	r2, #1	@ tmp279,
	ldr	lr, [r9, ip]	@ <variable>.pRef, <variable>.pRef
	str	r2, [r9, r0]	@ tmp279, <variable>.RefList0.ListLen
	mov	r1, #0	@ tmp283,
	str	r2, [r9, r3]	@ tmp279, <variable>.RefList1.ListLen
	movw	ip, #22992	@ tmp288,
	strb	r1, [r9, r4]	@ tmp283, <variable>.RefList0.FldFlag
	movw	r0, #22984	@ tmp287,
	ldr	r4, [r5, #1208]	@ temp.1235, <variable>.img.image_id
	movw	r3, #23000	@ tmp293,
	ldrb	r5, [r9, #3096]	@ zero_extendqisi2	@, <variable>.PreParseInfo.IsAdvProfile
	strb	r1, [r9, ip]	@ tmp283, <variable>.RefList1.FldFlag
	cmp	r5, #0	@ <variable>.PreParseInfo.IsAdvProfile,
	str	r4, [r9, r0]	@ temp.1235, <variable>.RefList0.ImgObj
	ldr	r5, [lr, #1208]	@ D.37018, <variable>.img.image_id
	str	r5, [r9, r3]	@ D.37018, <variable>.RefList1.ImgObj
	movwne	r3, #10716	@ tmp297,
	movweq	r3, #10613	@ tmp300,
	ldrneb	r6, [r9, r3]	@ zero_extendqisi2	@ LUMSCALE, <variable>.AdvPicSyntax.LUMSCALE
	ldreqb	r6, [r9, r3]	@ zero_extendqisi2	@ LUMSCALE, <variable>.SMPPicSyntax.LUMSCALE
	movwne	r3, #10717	@ tmp298,
	movweq	r3, #10614	@ tmp301,
	ldrneb	r7, [r9, r3]	@ zero_extendqisi2	@ LUMSHIFT, <variable>.AdvPicSyntax.LUMSHIFT
	ldreqb	r7, [r9, r3]	@ zero_extendqisi2	@ LUMSHIFT, <variable>.SMPPicSyntax.LUMSHIFT
	movwne	r3, #10714	@ tmp299,
	movweq	r3, #10611	@ tmp302,
	ldrb	r2, [r9, r3]	@ zero_extendqisi2	@ MVMODE.1224,
	cmp	r2, #4	@ MVMODE.1224,
	beq	.L104	@,
.L107:
	movw	lr, #1496	@ tmp304,
	mov	r1, r9	@ ivtmp.1120, pCodecInf
	mla	r3, lr, r4, r9	@ tmp306, tmp304, temp.1235, pCodecInf
	mov	ip, #0	@ i.1260,
	mla	r0, lr, r5, r9	@ tmp310, tmp304, D.37018, ivtmp.1120
	add	r4, r3, #13952	@ ivtmp.1117, tmp306,
	add	r3, r4, #3	@ ivtmp.1117, ivtmp.1117,
	add	r2, r0, #13952	@ ivtmp.1127, tmp310,
	add	r2, r2, #3	@ ivtmp.1127, ivtmp.1127,
.L105:
	ldrb	r4, [r3, #0]	@ zero_extendqisi2	@ tmp370, <variable>.IntensityConvertTab
	add	r0, r1, #1	@ tmp615, ivtmp.1120,
	add	ip, ip, #2	@ i.1260, i.1260,
	cmp	ip, #256	@ i.1260,
	strb	r4, [r1, #13]	@ tmp370, <variable>.IntensityConvertTab
	ldrb	lr, [r3, #256]	@ zero_extendqisi2	@ tmp372, <variable>.IntensityConvertTab
	strb	lr, [r1, #269]	@ tmp372, <variable>.IntensityConvertTab
	ldrb	r4, [r3, #512]	@ zero_extendqisi2	@ tmp374, <variable>.IntensityConvertTab
	strb	r4, [r1, #525]	@ tmp374, <variable>.IntensityConvertTab
	ldrb	lr, [r3, #768]	@ zero_extendqisi2	@ tmp376, <variable>.IntensityConvertTab
	strb	lr, [r1, #781]	@ tmp376, <variable>.IntensityConvertTab
	ldrb	r4, [r2, #0]	@ zero_extendqisi2	@ tmp378, <variable>.IntensityConvertTab
	strb	r4, [r1, #1037]	@ tmp378, <variable>.IntensityConvertTab
	ldrb	lr, [r2, #256]	@ zero_extendqisi2	@ tmp380, <variable>.IntensityConvertTab
	strb	lr, [r1, #1293]	@ tmp380, <variable>.IntensityConvertTab
	ldrb	r4, [r2, #512]	@ zero_extendqisi2	@ tmp382, <variable>.IntensityConvertTab
	strb	r4, [r1, #1549]	@ tmp382, <variable>.IntensityConvertTab
	ldrb	lr, [r2, #768]	@ zero_extendqisi2	@ tmp384, <variable>.IntensityConvertTab
	strb	lr, [r1, #1805]	@ tmp384, <variable>.IntensityConvertTab
	add	r1, r0, #1	@ ivtmp.1120, tmp615,
	ldrb	r4, [r3, #1]	@ zero_extendqisi2	@ tmp660, <variable>.IntensityConvertTab
	strb	r4, [r0, #13]	@ tmp660, <variable>.IntensityConvertTab
	ldrb	lr, [r3, #257]	@ zero_extendqisi2	@ tmp661, <variable>.IntensityConvertTab
	strb	lr, [r0, #269]	@ tmp661, <variable>.IntensityConvertTab
	ldrb	r4, [r3, #513]	@ zero_extendqisi2	@ tmp662, <variable>.IntensityConvertTab
	strb	r4, [r0, #525]	@ tmp662, <variable>.IntensityConvertTab
	ldrb	lr, [r3, #769]	@ zero_extendqisi2	@ tmp663, <variable>.IntensityConvertTab
	add	r3, r3, #2	@ ivtmp.1117, ivtmp.1117,
	strb	lr, [r0, #781]	@ tmp663, <variable>.IntensityConvertTab
	ldrb	r4, [r2, #1]	@ zero_extendqisi2	@ tmp664, <variable>.IntensityConvertTab
	strb	r4, [r0, #1037]	@ tmp664, <variable>.IntensityConvertTab
	ldrb	lr, [r2, #257]	@ zero_extendqisi2	@ tmp665, <variable>.IntensityConvertTab
	strb	lr, [r0, #1293]	@ tmp665, <variable>.IntensityConvertTab
	ldrb	r4, [r2, #513]	@ zero_extendqisi2	@ tmp666, <variable>.IntensityConvertTab
	strb	r4, [r0, #1549]	@ tmp666, <variable>.IntensityConvertTab
	ldrb	r4, [r2, #769]	@ zero_extendqisi2	@ tmp667, <variable>.IntensityConvertTab
	add	r2, r2, #2	@ ivtmp.1127, ivtmp.1127,
	strb	r4, [r0, #1805]	@ tmp667, <variable>.IntensityConvertTab
	bne	.L105	@,
	mov	r0, #1	@ D.37121,
	b	.L108	@
.L94:
	movw	r6, #10613	@ tmp232,
	movw	r0, #10614	@ tmp233,
	movw	r3, #10611	@ tmp234,
	ldrb	r5, [r9, r6]	@ zero_extendqisi2	@ LUMSCALE.1226, <variable>.SMPPicSyntax.LUMSCALE
	ldrb	r3, [r9, r3]	@ zero_extendqisi2	@ MVMODE, <variable>.SMPPicSyntax.MVMODE
	ldrb	r6, [r9, r0]	@ zero_extendqisi2	@ LUMSHIFT.1227, <variable>.SMPPicSyntax.LUMSHIFT
	b	.L95	@
.L132:
	movw	r2, #10714	@ tmp572,
	ldrb	r3, [r9, r2]	@ zero_extendqisi2	@ <variable>.AdvPicSyntax.MVMODE, <variable>.AdvPicSyntax.MVMODE
	cmp	r3, #4	@ <variable>.AdvPicSyntax.MVMODE,
	bne	.L134	@,
	mov	r0, #0	@ D.37121,
	b	.L108	@
.L115:
	movw	lr, #22928	@ tmp423,
	ldr	r8, [r9, lr]	@ <variable>.pCurFrm,
	ldr	r2, [r8, #1208]	@ iftmp.474, <variable>.img.image_id
	b	.L151	@
.L127:
	movw	r1, #22928	@ tmp531,
	ldr	r4, [r9, r1]	@ <variable>.pCurFrm,
	ldr	r2, [r4, #1208]	@ iftmp.480, <variable>.img.image_id
	b	.L152	@
.L160:
	movw	ip, #10714	@ tmp437,
	ldrb	r2, [r9, ip]	@ zero_extendqisi2	@ <variable>.AdvPicSyntax.MVMODE, <variable>.AdvPicSyntax.MVMODE
	cmp	r2, #4	@ <variable>.AdvPicSyntax.MVMODE,
	bne	.L118	@,
	movw	r3, #10716	@ tmp439,
	add	lr, r3, #1	@ tmp440, tmp440,
	ldrb	sl, [r9, r3]	@ zero_extendqisi2	@ temp.1286, <variable>.AdvPicSyntax.LUMSCALE
	sub	r0, fp, #300	@,,
	ldrb	r4, [r9, lr]	@ zero_extendqisi2	@ temp.1287, <variable>.AdvPicSyntax.LUMSHIFT
	mov	r3, #0	@,
	mov	r1, sl	@, temp.1286
	mov	r2, r4	@, temp.1287
	bl	VC1_Vfmw_GenerateIntensityMap	@
	mov	r1, sl	@, temp.1286
	mov	r2, r4	@, temp.1287
	sub	r0, fp, #556	@,,
	mov	r3, #1	@,
	bl	VC1_Vfmw_GenerateIntensityMap	@
	movw	r0, #1496	@ tmp444,
	mla	r1, r0, r5, r9	@ tmp446, tmp444, TopRefIdx, pCodecInf
	mov	r2, #0	@ i.1288,
	add	sl, r1, #13952	@ tmp446, tmp446,
	add	r3, sl, #3	@ ivtmp.1188, tmp446,
.L119:
	ldrb	ip, [r3, #0]	@ zero_extendqisi2	@ tmp447, <variable>.IntensityConvertTab
	sub	r4, fp, #44	@,,
	ldrb	lr, [r3, #256]	@ zero_extendqisi2	@ tmp453, <variable>.IntensityConvertTab
	sub	r0, fp, #44	@,,
	add	r5, r4, ip	@ tmp449,, tmp447
	ldrb	sl, [r3, #1]	@ zero_extendqisi2	@ tmp670, <variable>.IntensityConvertTab
	add	ip, r0, lr	@ tmp455,, tmp453
	ldrb	r1, [r3, #257]	@ zero_extendqisi2	@ tmp674, <variable>.IntensityConvertTab
	ldrb	r4, [r5, #-256]	@ zero_extendqisi2	@ tmp451, LUTY
	sub	r5, fp, #44	@,,
	add	lr, r5, sl	@ tmp671,, tmp670
	add	r1, r5, r1	@ tmp676, tmp10, tmp674
	add	r2, r2, #2	@ i.1288, i.1288,
	mov	sl, r5	@,
	strb	r4, [r3, #0]	@ tmp451, <variable>.IntensityConvertTab
	cmp	r2, #256	@ i.1288,
	ldrb	r4, [ip, #-512]	@ zero_extendqisi2	@ tmp457, LUTUV
	strb	r4, [r3, #256]	@ tmp457, <variable>.IntensityConvertTab
	ldrb	r0, [lr, #-256]	@ zero_extendqisi2	@ tmp673, LUTY
	strb	r0, [r3, #1]	@ tmp673, <variable>.IntensityConvertTab
	ldrb	ip, [r1, #-512]	@ zero_extendqisi2	@ tmp678, LUTUV
	strb	ip, [r3, #257]	@ tmp678, <variable>.IntensityConvertTab
	add	r3, r3, #2	@ ivtmp.1188, ivtmp.1188,
	bne	.L119	@,
	movw	r2, #10828	@ tmp459,
	ldr	r3, [r9, r2]	@ prephitmp.1068, <variable>.AdvPicSyntax.INTCOMPFIELD
	b	.L118	@
.L159:
	movw	lr, #10714	@ tmp554,
	ldrb	r2, [r9, lr]	@ zero_extendqisi2	@ <variable>.AdvPicSyntax.MVMODE, <variable>.AdvPicSyntax.MVMODE
	cmp	r2, #4	@ <variable>.AdvPicSyntax.MVMODE,
	bne	.L130	@,
	mov	r0, #0	@ D.37121,
	b	.L108	@
.L162:
	movw	lr, #10820	@ tmp230,
	ldr	ip, [r9, lr]	@ <variable>.AdvPicSyntax.INTCOMP, <variable>.AdvPicSyntax.INTCOMP
	cmp	ip, #1	@ <variable>.AdvPicSyntax.INTCOMP,
	bne	.L95	@,
.L96:
	movw	sl, #1496	@ tmp243,
	sub	r0, fp, #300	@,,
	mla	r8, sl, r4, r9	@ tmp245, tmp243, D.36983, pCodecInf
	mov	r1, r5	@, LUMSCALE.1226
	mov	r2, r6	@, LUMSHIFT.1227
	mov	r3, #0	@,
	bl	VC1_Vfmw_GenerateIntensityMap	@
	mov	r2, r6	@, LUMSHIFT.1227
	mov	r3, #1	@,
	mov	r1, r5	@, LUMSCALE.1226
	sub	r0, fp, #556	@,,
	add	r7, r8, #13952	@ ivtmp.1107, tmp245,
	bl	VC1_Vfmw_GenerateIntensityMap	@
	add	r3, r7, #3	@ ivtmp.1107, ivtmp.1107,
	mov	r2, #0	@ i,
.L98:
	ldrb	r5, [r3, #0]	@ zero_extendqisi2	@ tmp246, <variable>.IntensityConvertTab
	sub	r1, fp, #44	@,,
	ldrb	ip, [r3, #256]	@ zero_extendqisi2	@ tmp252, <variable>.IntensityConvertTab
	add	r2, r2, #2	@ i, i,
	add	sl, r1, r5	@ tmp248,, tmp246
	mov	lr, r1	@,
	add	r1, r1, ip	@ tmp254, tmp14, tmp252
	ldrb	r7, [r3, #512]	@ zero_extendqisi2	@ tmp258, <variable>.IntensityConvertTab
	ldrb	r0, [sl, #-256]	@ zero_extendqisi2	@ tmp250, LUTY
	mov	sl, lr	@,
	add	r7, lr, r7	@ tmp260, tmp10, tmp258
	ldrb	r6, [r3, #768]	@ zero_extendqisi2	@ tmp264, <variable>.IntensityConvertTab
	ldrb	r5, [r3, #1]	@ zero_extendqisi2	@ tmp632, <variable>.IntensityConvertTab
	cmp	r2, #256	@ i,
	strb	r0, [r3, #0]	@ tmp250, <variable>.IntensityConvertTab
	add	r6, lr, r6	@ tmp266, tmp8, tmp264
	ldrb	r8, [r1, #-512]	@ zero_extendqisi2	@ tmp256, LUTUV
	add	r5, sl, r5	@ tmp633, tmp12, tmp632
	ldrb	lr, [r3, #257]	@ zero_extendqisi2	@ tmp636, <variable>.IntensityConvertTab
	ldrb	r0, [r3, #513]	@ zero_extendqisi2	@ tmp641, <variable>.IntensityConvertTab
	strb	r8, [r3, #256]	@ tmp256, <variable>.IntensityConvertTab
	add	ip, sl, lr	@ tmp638, tmp1, tmp636
	ldrb	r7, [r7, #-256]	@ zero_extendqisi2	@ tmp262, LUTY
	add	lr, sl, r0	@ tmp642, tmp8, tmp641
	ldrb	r1, [r3, #769]	@ zero_extendqisi2	@ tmp645, <variable>.IntensityConvertTab
	mov	r8, sl	@,
	strb	r7, [r3, #512]	@ tmp262, <variable>.IntensityConvertTab
	add	r1, sl, r1	@ tmp646,, tmp645
	ldrb	r6, [r6, #-512]	@ zero_extendqisi2	@ tmp268, LUTUV
	strb	r6, [r3, #768]	@ tmp268, <variable>.IntensityConvertTab
	ldrb	r5, [r5, #-256]	@ zero_extendqisi2	@ tmp635, LUTY
	strb	r5, [r3, #1]	@ tmp635, <variable>.IntensityConvertTab
	ldrb	ip, [ip, #-512]	@ zero_extendqisi2	@ tmp640, LUTUV
	strb	ip, [r3, #257]	@ tmp640, <variable>.IntensityConvertTab
	ldrb	ip, [lr, #-256]	@ zero_extendqisi2	@ tmp644, LUTY
	strb	ip, [r3, #513]	@ tmp644, <variable>.IntensityConvertTab
	ldrb	r0, [r1, #-512]	@ zero_extendqisi2	@ tmp648, LUTUV
	strb	r0, [r3, #769]	@ tmp648, <variable>.IntensityConvertTab
	add	r3, r3, #2	@ ivtmp.1107, ivtmp.1107,
	bne	.L98	@,
	b	.L99	@
.L161:
	cmp	r2, #0	@ D.37078,
	sub	r0, fp, #300	@,,
	movwne	r3, #10832	@ tmp469,
	movweq	r3, #10716	@ tmp473,
	ldrneb	r5, [r9, r3]	@ zero_extendqisi2	@ LUMSCALE.1331, <variable>.AdvPicSyntax.LUMSCALE2
	addne	r3, r3, #4	@ tmp471, tmp471,
	ldreqb	r5, [r9, r3]	@ zero_extendqisi2	@ LUMSCALE.1331, <variable>.AdvPicSyntax.LUMSCALE
	addeq	r3, r3, #1	@ tmp474, tmp474,
	ldrb	sl, [r9, r3]	@ zero_extendqisi2	@ LUMSHIFT.1225,
	mov	r3, #0	@,
	mov	r1, r5	@, LUMSCALE.1331
	mov	r2, sl	@, LUMSHIFT.1225
	bl	VC1_Vfmw_GenerateIntensityMap	@
	mov	r1, r5	@, LUMSCALE.1331
	mov	r2, sl	@, LUMSHIFT.1225
	sub	r0, fp, #556	@,,
	mov	r3, #1	@,
	bl	VC1_Vfmw_GenerateIntensityMap	@
	movw	r1, #1496	@ tmp479,
	mla	r7, r1, r7, r9	@ ivtmp.1181, tmp479, BotRefIdx, pCodecInf
	mov	r2, #0	@ i.1292,
	add	r7, r7, #13952	@ ivtmp.1181, ivtmp.1181,
.L123:
	ldrb	r5, [r7, #515]	@ zero_extendqisi2	@ tmp481, <variable>.IntensityConvertTab
	sub	ip, fp, #44	@,,
	ldrb	r1, [r7, #771]	@ zero_extendqisi2	@ tmp487, <variable>.IntensityConvertTab
	add	r4, r7, #1	@ tmp622, ivtmp.1181,
	add	r3, ip, r5	@ tmp483,, tmp481
	add	r2, r2, #2	@ i.1292, i.1292,
	add	lr, ip, r1	@ tmp489, tmp5, tmp487
	cmp	r2, #256	@ i.1292,
	ldrb	r0, [r3, #-256]	@ zero_extendqisi2	@ tmp485, LUTY
	mov	r5, ip	@,
	strb	r0, [r7, #515]	@ tmp485, <variable>.IntensityConvertTab
	ldrb	sl, [lr, #-512]	@ zero_extendqisi2	@ tmp491, LUTUV
	strb	sl, [r7, #771]	@ tmp491, <variable>.IntensityConvertTab
	add	r7, r4, #1	@ ivtmp.1181, tmp622,
	ldrb	r3, [r4, #515]	@ zero_extendqisi2	@ tmp681, <variable>.IntensityConvertTab
	mov	sl, ip	@, tmp5
	ldrb	r1, [r4, #771]	@ zero_extendqisi2	@ tmp685, <variable>.IntensityConvertTab
	add	lr, ip, r3	@ tmp682, tmp10, tmp681
	add	r3, ip, r1	@ tmp687,, tmp685
	ldrb	r0, [lr, #-256]	@ zero_extendqisi2	@ tmp684, LUTY
	strb	r0, [r4, #515]	@ tmp684, <variable>.IntensityConvertTab
	ldrb	lr, [r3, #-512]	@ zero_extendqisi2	@ tmp689, LUTUV
	strb	lr, [r4, #771]	@ tmp689, <variable>.IntensityConvertTab
	bne	.L123	@,
	b	.L120	@
.L104:
	mov	r1, r6	@, LUMSCALE
	mov	r2, r7	@, LUMSHIFT
	sub	r0, fp, #300	@,,
	mov	r3, #0	@,
	bl	VC1_Vfmw_GenerateIntensityMap	@
	mov	r1, r6	@, LUMSCALE
	mov	r2, r7	@, LUMSHIFT
	mov	r3, #1	@,
	sub	r0, fp, #556	@,,
	bl	VC1_Vfmw_GenerateIntensityMap	@
	movw	ip, #1496	@ tmp315,
	mla	sl, ip, r5, r9	@ tmp321, tmp315, D.37018, pCodecInf
	mov	r1, #0	@ i.1251,
	mla	r8, ip, r4, r9	@ tmp317, tmp315, temp.1235, pCodecInf
	add	r7, sl, #13952	@ ivtmp.1146, tmp321,
	add	r2, r7, #3	@ ivtmp.1146, ivtmp.1146,
	add	r6, r8, #13952	@ ivtmp.1141, tmp317,
	add	r3, r6, #3	@ ivtmp.1141, ivtmp.1141,
.L106:
	ldrb	r6, [r3, #0]	@ zero_extendqisi2	@ tmp322, <variable>.IntensityConvertTab
	sub	r7, fp, #44	@,,
	ldrb	lr, [r3, #256]	@ zero_extendqisi2	@ tmp328, <variable>.IntensityConvertTab
	sub	ip, fp, #44	@,,
	add	r8, r7, r6	@ tmp324,, tmp322
	ldrb	sl, [r3, #512]	@ zero_extendqisi2	@ tmp334, <variable>.IntensityConvertTab
	add	r6, ip, lr	@ tmp330,, tmp328
	ldrb	r0, [r3, #768]	@ zero_extendqisi2	@ tmp340, <variable>.IntensityConvertTab
	ldrb	r7, [r8, #-256]	@ zero_extendqisi2	@ tmp326, LUTY
	sub	r8, fp, #44	@,,
	add	ip, r8, sl	@ tmp336,, tmp334
	add	r0, r8, r0	@ tmp342, tmp10, tmp340
	add	r1, r1, #1	@ i.1251, i.1251,
	mov	sl, r8	@,
	strb	r7, [r3, #0]	@ tmp326, <variable>.IntensityConvertTab
	cmp	r1, #256	@ i.1251,
	ldrb	lr, [r6, #-512]	@ zero_extendqisi2	@ tmp332, LUTUV
	strb	lr, [r3, #256]	@ tmp332, <variable>.IntensityConvertTab
	ldrb	r6, [ip, #-256]	@ zero_extendqisi2	@ tmp338, LUTY
	strb	r6, [r3, #512]	@ tmp338, <variable>.IntensityConvertTab
	ldrb	r7, [r0, #-512]	@ zero_extendqisi2	@ tmp344, LUTUV
	strb	r7, [r3, #768]	@ tmp344, <variable>.IntensityConvertTab
	add	r3, r3, #1	@ ivtmp.1141, ivtmp.1141,
	ldrb	r0, [r2, #0]	@ zero_extendqisi2	@ tmp346, <variable>.IntensityConvertTab
	ldrb	r6, [r2, #256]	@ zero_extendqisi2	@ tmp352, <variable>.IntensityConvertTab
	add	r7, r8, r0	@ tmp348, tmp14, tmp346
	ldrb	lr, [r2, #512]	@ zero_extendqisi2	@ tmp358, <variable>.IntensityConvertTab
	add	r6, r8, r6	@ tmp354, tmp12, tmp352
	ldrb	r0, [r2, #768]	@ zero_extendqisi2	@ tmp364, <variable>.IntensityConvertTab
	ldrb	r7, [r7, #-256]	@ zero_extendqisi2	@ tmp350, LUTY
	add	ip, r8, lr	@ tmp360,, tmp358
	add	lr, r8, r0	@ tmp366, tmp10, tmp364
	strb	r7, [r2, #0]	@ tmp350, <variable>.IntensityConvertTab
	ldrb	r6, [r6, #-512]	@ zero_extendqisi2	@ tmp356, LUTUV
	strb	r6, [r2, #256]	@ tmp356, <variable>.IntensityConvertTab
	ldrb	ip, [ip, #-256]	@ zero_extendqisi2	@ tmp362, LUTY
	strb	ip, [r2, #512]	@ tmp362, <variable>.IntensityConvertTab
	ldrb	r0, [lr, #-512]	@ zero_extendqisi2	@ tmp368, LUTUV
	strb	r0, [r2, #768]	@ tmp368, <variable>.IntensityConvertTab
	add	r2, r2, #1	@ ivtmp.1146, ivtmp.1146,
	bne	.L106	@,
	b	.L107	@
	.fnend
	.size	VC1_Vfmw_BuildRefList, .-VC1_Vfmw_BuildRefList
	.align	2
	.global	VC1_ReceivePacket
	.type	VC1_ReceivePacket, %function
VC1_ReceivePacket:
	.fnstart
.LFB1422:
	@ args = 0, pretend = 0, frame = 0
	@ frame_needed = 1, uses_anonymous_args = 0
	.movsp ip
	mov	ip, sp	@,
	stmfd	sp!, {r4, r5, fp, ip, lr, pc}	@,
	.pad #4
	.save {r4, r5, fp, ip, lr}
	.setfp fp, ip, #-4
	sub	fp, ip, #4	@,,
	push	{lr}
	bl	__gnu_mcount_nc
	subs	r4, r1, #0	@ pPacket, pPacket
	beq	.L169	@,
	ldr	r2, [r4, #8]	@ <variable>.PhyAddr, <variable>.PhyAddr
	movw	r3, #:lower16:113576	@ tmp140,
	movt	r3, #:upper16:113576	@ tmp140,
	movw	lr, #:lower16:113564	@ tmp139,
	movt	lr, #:upper16:113564	@ tmp139,
	movw	ip, #:lower16:113584	@ tmp144,
	str	r2, [r0, r3]	@ <variable>.PhyAddr, <variable>.CodecInfo.stCurPacket.BsPhyAddr
	movt	ip, #:upper16:113584	@ tmp144,
	ldr	r5, [r4, #0]	@ <variable>.VirAddr, <variable>.VirAddr
	movw	r2, #:lower16:113572	@ tmp146,
	movt	r2, #:upper16:113572	@ tmp146,
	movw	r3, #:lower16:113592	@ tmp149,
	movt	r3, #:upper16:113592	@ tmp149,
	add	r1, r0, #112640	@ pstPacket, pCtx,
	str	r5, [r0, lr]	@ <variable>.VirAddr, <variable>.CodecInfo.stCurPacket.BsVirAddr
	add	r1, r1, #924	@ pstPacket, pstPacket,
	ldr	lr, [r4, #12]	@ <variable>.LenInByte, <variable>.LenInByte
	str	lr, [r0, ip]	@ <variable>.LenInByte, <variable>.CodecInfo.stCurPacket.BsLength
	ldrb	ip, [r4, #5]	@ zero_extendqisi2	@ <variable>.IsLastSeg, <variable>.IsLastSeg
	strb	ip, [r0, r2]	@ <variable>.IsLastSeg, <variable>.CodecInfo.stCurPacket.IsLastSeg
	ldr	r2, [r4, #16]	@ <variable>.StreamID, <variable>.StreamID
	str	r2, [r0, r3]	@ <variable>.StreamID, <variable>.CodecInfo.stCurPacket.StreamID
	ldrb	r3, [r4, #5]	@ zero_extendqisi2	@ <variable>.IsLastSeg, <variable>.IsLastSeg
	cmp	r3, #1	@ <variable>.IsLastSeg,
	beq	.L166	@,
	ldr	r5, [r4, #88]	@ <variable>.PhyAddr, <variable>.PhyAddr
	movw	r3, #:lower16:113580	@ tmp152,
	movt	r3, #:upper16:113580	@ tmp152,
	movw	lr, #:lower16:113568	@ tmp154,
	movt	lr, #:upper16:113568	@ tmp154,
	movw	ip, #:lower16:113588	@ tmp156,
	str	r5, [r0, r3]	@ <variable>.PhyAddr, <variable>.CodecInfo.stCurPacket.BsPhyAddr
	movt	ip, #:upper16:113588	@ tmp156,
	ldr	r5, [r4, #80]	@ <variable>.VirAddr, <variable>.VirAddr
	movw	r2, #:lower16:113573	@ tmp158,
	movt	r2, #:upper16:113573	@ tmp158,
	movw	r3, #:lower16:113596	@ tmp161,
	movt	r3, #:upper16:113596	@ tmp161,
	str	r5, [r0, lr]	@ <variable>.VirAddr, <variable>.CodecInfo.stCurPacket.BsVirAddr
	ldr	lr, [r4, #92]	@ <variable>.LenInByte, <variable>.LenInByte
	str	lr, [r0, ip]	@ <variable>.LenInByte, <variable>.CodecInfo.stCurPacket.BsLength
	ldrb	ip, [r4, #85]	@ zero_extendqisi2	@ <variable>.IsLastSeg, <variable>.IsLastSeg
	strb	ip, [r0, r2]	@ <variable>.IsLastSeg, <variable>.CodecInfo.stCurPacket.IsLastSeg
	ldr	lr, [r4, #96]	@ <variable>.StreamID, <variable>.StreamID
	str	lr, [r0, r3]	@ <variable>.StreamID, <variable>.CodecInfo.stCurPacket.StreamID
	ldrb	ip, [r4, #85]	@ zero_extendqisi2	@ <variable>.IsLastSeg, <variable>.IsLastSeg
	cmp	ip, #1	@ <variable>.IsLastSeg,
	bne	.L170	@,
	bl	VC1_SetCodeInfo	@
	mov	r0, #1	@ D.39115,
	ldmfd	sp, {r4, r5, fp, sp, pc}	@
.L170:
	movw	r2, #:lower16:114064	@ tmp164,
	movt	r2, #:upper16:114064	@ tmp164,
	ldr	r0, [r0, r2]	@, <variable>.ChanID
	bl	VC1_ClearCurPacket	@
	ldrb	r2, [r4, #85]	@ zero_extendqisi2	@, <variable>.IsLastSeg
	mov	r0, #1	@,
	movw	r1, #:lower16:.LC1	@,
	movt	r1, #:upper16:.LC1	@,
	bl	dprint_vfmw	@
	mov	r0, #0	@ D.39115,
	ldmfd	sp, {r4, r5, fp, sp, pc}	@
.L166:
	movw	r5, #:lower16:113580	@ tmp168,
	movw	lr, #:lower16:113568	@ tmp170,
	movt	r5, #:upper16:113580	@ tmp168,
	movt	lr, #:upper16:113568	@ tmp170,
	movw	ip, #:lower16:113588	@ tmp172,
	movw	r2, #:lower16:113573	@ tmp174,
	movt	ip, #:upper16:113588	@ tmp172,
	movt	r2, #:upper16:113573	@ tmp174,
	movw	r4, #:lower16:113596	@ tmp177,
	movt	r4, #:upper16:113596	@ tmp177,
	mov	r3, #0	@ tmp169,
	str	r3, [r0, r5]	@ tmp169, <variable>.CodecInfo.stCurPacket.BsPhyAddr
	str	r3, [r0, r4]	@ tmp169, <variable>.CodecInfo.stCurPacket.StreamID
	str	r3, [r0, lr]	@ tmp169, <variable>.CodecInfo.stCurPacket.BsVirAddr
	str	r3, [r0, ip]	@ tmp169, <variable>.CodecInfo.stCurPacket.BsLength
	strb	r3, [r0, r2]	@ tmp169, <variable>.CodecInfo.stCurPacket.IsLastSeg
	bl	VC1_SetCodeInfo	@
	mov	r0, #1	@ D.39115,
	ldmfd	sp, {r4, r5, fp, sp, pc}	@
.L169:
	mov	r0, r4	@, pPacket
	movw	r1, #:lower16:.LC0	@,
	movt	r1, #:upper16:.LC0	@,
	bl	dprint_vfmw	@
	mov	r0, r4	@ D.39115, pPacket
	ldmfd	sp, {r4, r5, fp, sp, pc}	@
	.fnend
	.size	VC1_ReceivePacket, .-VC1_ReceivePacket
	.align	2
	.global	VC1_DecNormDiff6Tile
	.type	VC1_DecNormDiff6Tile, %function
VC1_DecNormDiff6Tile:
	.fnstart
.LFB1393:
	@ args = 0, pretend = 0, frame = 0
	@ frame_needed = 1, uses_anonymous_args = 0
	.movsp ip
	mov	ip, sp	@,
	stmfd	sp!, {r3, r4, r5, r6, r7, r8, r9, sl, fp, ip, lr, pc}	@,
	.pad #4
	.save {r3, r4, r5, r6, r7, r8, r9, sl, fp, ip, lr}
	.setfp fp, ip, #-4
	sub	fp, ip, #4	@,,
	push	{lr}
	bl	__gnu_mcount_nc
	ldr	r9, [r1, #0]	@ i6.1383,* pi6
	mov	sl, r1	@ pi6, pi6
	mov	r5, r0	@ pBs, pBs
	mov	r6, #0	@ Invert,
.L172:
	mov	r1, #1	@,
	mov	r0, r5	@, pBs
	bl	BsGet	@
	mov	r1, #3	@,
	subs	r7, r0, #0	@ D.37409,
	mov	r0, r5	@, pBs
	bne	.L185	@,
	bl	BsGet	@
	mov	r4, r0	@ iCode,
	cmp	r4, #1	@ iCode,
	mov	r1, r0	@, iCode
	mov	r0, r5	@, pBs
	bgt	.L186	@,
	bne	.L176	@,
	bl	BsGet	@
	subs	r8, r0, #0	@ D.37418,
	beq	.L177	@,
	cmp	r6, #0	@ Invert,
	mov	r6, r4	@ Invert, iCode
	beq	.L172	@,
.L184:
	str	r9, [sl, #0]	@ i6.1383,* pi6
	mov	r0, r7	@ D.37423, D.37409
	ldmfd	sp, {r3, r4, r5, r6, r7, r8, r9, sl, fp, sp, pc}	@
.L185:
	mov	r4, #0	@ i6,
.L174:
	cmp	r6, #0	@ Invert,
	mov	r0, #1	@ D.37423,
	eorne	r4, r4, #63	@ i6, i6,
	str	r4, [sl, #0]	@ i6,* pi6
	ldmfd	sp, {r3, r4, r5, r6, r7, r8, r9, sl, fp, sp, pc}	@
.L186:
	sub	r4, r4, #2	@ tmp146, iCode,
	mov	r3, #1	@ tmp147,
	mov	r4, r3, asl r4	@ i6, tmp147,
	b	.L174	@
.L176:
	mov	r0, r5	@, pBs
	mov	r1, #4	@,
	bl	BsGet	@
	cmp	r0, #255	@ iCode.1385,
	beq	.L184	@,
	movw	lr, #:lower16:.LANCHOR0	@ tmp153,
	movt	lr, #:upper16:.LANCHOR0	@ tmp153,
	add	ip, lr, r0, asl #2	@, tmp156, tmp153, iCode.1385,
	ldr	r4, [ip, #256]	@ i6, a2On4Off
	b	.L174	@
.L177:
	mov	r1, #5	@,
	mov	r0, r5	@, pBs
	bl	BsGet	@
	movw	r2, #:lower16:.LANCHOR0	@ tmp148,
	movt	r2, #:upper16:.LANCHOR0	@ tmp148,
	add	r1, r2, r0, asl #2	@, tmp151, tmp148, i6,
	mov	r4, r0	@ i6,
	ldr	r3, [r1, #128]	@ iCode.1384, aCount
	cmp	r3, #2	@ iCode.1384,
	orreq	r4, r0, #32	@ i6, i6,
	beq	.L174	@,
	cmp	r3, #3	@ iCode.1384,
	strne	r4, [sl, #0]	@ i6,* pi6
	movne	r0, r8	@ D.37423, D.37418
	ldmnefd	sp, {r3, r4, r5, r6, r7, r8, r9, sl, fp, sp, pc}	@
	b	.L174	@
	.fnend
	.size	VC1_DecNormDiff6Tile, .-VC1_DecNormDiff6Tile
	.align	2
	.global	VC1_VopDQuant
	.type	VC1_VopDQuant, %function
VC1_VopDQuant:
	.fnstart
.LFB1392:
	@ args = 0, pretend = 0, frame = 0
	@ frame_needed = 1, uses_anonymous_args = 0
	.movsp ip
	mov	ip, sp	@,
	stmfd	sp!, {r4, r5, r6, r7, fp, ip, lr, pc}	@,
	.pad #4
	.save {r4, r5, r6, r7, fp, ip, lr}
	.setfp fp, ip, #-4
	sub	fp, ip, #4	@,,
	push	{lr}
	bl	__gnu_mcount_nc
	cmp	r1, #2	@ DQUANT,
	mov	r4, r2	@ PQUANT, PQUANT
	mov	r5, r3	@ pVopDquant, pVopDquant
	mov	r7, r0	@ pBs, pBs
	beq	.L201	@,
	mov	r1, #1	@,
	bl	BsGet	@
	uxtb	r6, r0	@ D.37350,
	strb	r6, [r5, #0]	@ D.37350, <variable>.DQUANTFRM
	cmp	r6, #1	@ D.37350,
	beq	.L202	@,
.L191:
	mov	r0, #1	@,
	ldmfd	sp, {r4, r5, r6, r7, fp, sp, pc}	@
.L201:
	mov	r3, #1	@ tmp157,
	mov	r1, #3	@,
	strb	r3, [r5, #0]	@ tmp157, <variable>.DQUANTFRM
	strb	r3, [r5, #3]	@ tmp157, <variable>.UseAltQp
	bl	BsGet	@
	uxtb	r0, r0	@ D.37338,
	strb	r0, [r5, #4]	@ D.37338, <variable>.PQDIFF
	cmp	r0, #7	@ D.37338,
	addne	r4, r4, #1	@ tmp164, PQUANT,
	addne	r0, r0, r4	@ tmp166, D.37338, tmp164
	strneb	r0, [r5, #8]	@ tmp166, <variable>.ALTPQUANT
	beq	.L203	@,
.L190:
	mov	r2, #1	@ tmp168,
	mov	r0, #1	@,
	str	r2, [r5, #12]	@ tmp168, <variable>.QuantMode
	ldmfd	sp, {r4, r5, r6, r7, fp, sp, pc}	@
.L202:
	mov	r1, #2	@,
	mov	r0, r7	@, pBs
	bl	BsGet	@
	uxtb	r1, r0	@ D.37355,
	strb	r1, [r5, #1]	@ D.37355, <variable>.DQPROFILE
	cmp	r1, #0	@ D.37355,
	streq	r6, [r5, #12]	@ D.37350, <variable>.QuantMode
	beq	.L193	@,
	cmp	r1, #2	@ D.37355,
	beq	.L204	@,
	cmp	r1, #1	@ D.37355,
	beq	.L205	@,
	cmp	r1, #3	@ D.37355,
	movne	r3, #0	@ tmp177,
	strne	r3, [r5, #12]	@ tmp177, <variable>.QuantMode
	beq	.L206	@,
.L193:
	ldr	r0, [r5, #0]	@ tmp180,* pVopDquant
	bic	ip, r0, #-16777216	@ tmp178, tmp180,
	bic	lr, ip, #255	@ tmp178, tmp178,
	cmp	lr, #768	@ tmp178,
	beq	.L191	@,
	mov	r1, #1	@ tmp181,
	mov	r0, r7	@, pBs
	strb	r1, [r5, #3]	@ tmp181, <variable>.UseAltQp
	mov	r1, #3	@,
	bl	BsGet	@
	uxtb	r3, r0	@ D.37393,
	strb	r3, [r5, #4]	@ D.37393, <variable>.PQDIFF
	cmp	r3, #7	@ D.37393,
	addne	r4, r4, #1	@ tmp186, PQUANT,
	addne	r3, r3, r4	@ tmp188, D.37393, tmp186
	strneb	r3, [r5, #8]	@ tmp188, <variable>.ALTPQUANT
	bne	.L191	@,
	mov	r0, r7	@, pBs
	mov	r1, #5	@,
	bl	BsGet	@
	uxtb	r2, r0	@ D.37397,
	strb	r2, [r5, #8]	@ D.37397, <variable>.ALTPQUANT
	strb	r2, [r5, #5]	@ D.37397, <variable>.ABSPQ
	b	.L191	@
.L206:
	mov	r1, r6	@, D.37350
	mov	r0, r7	@, pBs
	bl	BsGet	@
	uxtb	r2, r0	@ D.37381,
	strb	r2, [r5, #2]	@ D.37381, <variable>.DQBILEVEL
	cmp	r2, #0	@ D.37381,
	movne	r2, #10	@ iftmp.519,
	moveq	r2, #11	@ iftmp.519,
	str	r2, [r5, #12]	@ iftmp.519, <variable>.QuantMode
	b	.L193	@
.L203:
	mov	r1, #5	@,
	mov	r0, r7	@, pBs
	bl	BsGet	@
	uxtb	r1, r0	@ D.37343,
	strb	r1, [r5, #8]	@ D.37343, <variable>.ALTPQUANT
	strb	r1, [r5, #5]	@ D.37343, <variable>.ABSPQ
	b	.L190	@
.L204:
	mov	r0, r7	@, pBs
	bl	BsGet	@
	uxtb	r0, r0	@ D.37363,
	strb	r0, [r5, #6]	@ D.37363, <variable>.DQSBEDGE
	add	ip, r0, #6	@ tmp173, D.37363,
	str	ip, [r5, #12]	@ tmp173, <variable>.QuantMode
	b	.L193	@
.L205:
	mov	r1, #2	@,
	mov	r0, r7	@, pBs
	bl	BsGet	@
	uxtb	r1, r0	@ D.37372,
	strb	r1, [r5, #7]	@ D.37372, <variable>.DQDBEDGE
	add	r3, r1, #2	@ tmp175, D.37372,
	str	r3, [r5, #12]	@ tmp175, <variable>.QuantMode
	b	.L193	@
	.fnend
	.size	VC1_VopDQuant, .-VC1_VopDQuant
	.align	2
	.global	Vc1SMPSeqHdr
	.type	Vc1SMPSeqHdr, %function
Vc1SMPSeqHdr:
	.fnstart
.LFB1362:
	@ args = 0, pretend = 0, frame = 32
	@ frame_needed = 1, uses_anonymous_args = 0
	.movsp ip
	mov	ip, sp	@,
	stmfd	sp!, {r4, r5, r6, r7, fp, ip, lr, pc}	@,
	.pad #4
	.save {r4, r5, r6, r7, fp, ip, lr}
	.setfp fp, ip, #-4
	sub	fp, ip, #4	@,,
	.pad #32
	sub	sp, sp, #32	@,,
	push	{lr}
	bl	__gnu_mcount_nc
	mov	lr, r1, asl #3	@ tmp174, ByteLen,
	sub	r4, fp, #56	@ tmp248,,
	mov	r5, r2	@ pVc1Info, pVc1Info
	mov	r1, r0	@ pBitBuf, pBitBuf
	mov	r2, lr	@, tmp174
	mov	r0, r4	@, tmp248
	bl	BsInit	@
	mov	r1, #8	@,
	mov	r0, r4	@, tmp248
	bl	BsGet	@
	mov	r1, #8	@,
	mov	r7, r0	@ data,
	mov	r0, r4	@, tmp248
	bl	BsGet	@
	mov	r1, #8	@,
	mov	r6, r0	@ D.35513,
	mov	r0, r4	@, tmp248
	bl	BsGet	@
	mov	r1, #8	@,
	mov	ip, r0, asl #16	@ tmp179,,
	mov	r0, r4	@, tmp248
	add	r2, ip, r6, asl #8	@, data.1436, tmp179, D.35513,
	add	r6, r2, r7	@ data.1437, data.1436, data
	bl	BsGet	@
	mov	r1, #8	@,
	add	r0, r6, r0, asl #24	@, tmp182, data.1437,,
	str	r0, [r5, #24]	@ tmp182, <variable>.FrmWidth
	mov	r0, r4	@, tmp248
	bl	BsGet	@
	mov	r1, #8	@,
	mov	r7, r0	@ data.1439,
	mov	r0, r4	@, tmp248
	bl	BsGet	@
	mov	r1, #8	@,
	mov	r6, r0	@ D.35520,
	mov	r0, r4	@, tmp248
	bl	BsGet	@
	mov	r1, #8	@,
	mov	r3, r0, asl #16	@ tmp187,,
	mov	r0, r4	@, tmp248
	add	r6, r3, r6, asl #8	@, data.1440, tmp187, D.35520,
	bl	BsGet	@
	ldr	r3, [r5, #24]	@ D.35526, <variable>.FrmWidth
	add	r6, r6, r7	@ data.1441, data.1440, data.1439
	cmp	r3, #8192	@ D.35526,
	add	r0, r6, r0, asl #24	@, data.1442, data.1441,,
	str	r0, [r5, #28]	@ data.1442, <variable>.FrmHeight
	bgt	.L220	@,
	cmp	r0, #8192	@ data.1442,
	bgt	.L221	@,
	cmp	r3, #31	@ D.35526,
	ble	.L222	@,
	cmp	r0, #31	@ data.1442,
	ble	.L223	@,
	mov	r1, #2	@,
	mov	r0, r4	@, tmp248
	bl	BsGet	@
	uxtb	r1, r0	@ D.35539,
	strb	r1, [r5, #3]	@ D.35539, <variable>.SMPSeqSyntax.PROFILE
	cmp	r1, #1	@ D.35539,
	bhi	.L224	@,
	mov	r0, r4	@, tmp248
	mov	r1, #2	@,
	bl	BsGet	@
	subs	r6, r0, #0	@ D.35543,
	bne	.L225	@,
	mov	r1, #3	@,
	mov	r0, r4	@, tmp248
	bl	BsGet	@
	mov	r1, #5	@,
	strb	r0, [r5, #4]	@, <variable>.SMPSeqSyntax.FRMRTQ
	mov	r0, r4	@, tmp248
	bl	BsGet	@
	mov	r1, #1	@,
	strb	r0, [r5, #5]	@, <variable>.SMPSeqSyntax.BITRTQ
	mov	r0, r4	@, tmp248
	bl	BsGet	@
	mov	r1, #1	@,
	strb	r0, [r5, #6]	@, <variable>.SMPSeqSyntax.LOOPFILTER
	mov	r0, r4	@, tmp248
	bl	BsGet	@
	subs	r7, r0, #0	@ D.35552,
	bne	.L226	@,
	mov	r1, #1	@,
	mov	r0, r4	@, tmp248
	bl	BsGet	@
	mov	r1, #1	@,
	strb	r0, [r5, #7]	@, <variable>.SMPSeqSyntax.MULTIRES
	mov	r0, r4	@, tmp248
	bl	BsGet	@
	mov	r1, #1	@,
	strb	r0, [r5, #8]	@, <variable>.SMPSeqSyntax.B16BITTRANSFORM
	mov	r0, r4	@, tmp248
	bl	BsGet	@
	mov	r1, #1	@,
	strb	r0, [r5, #9]	@, <variable>.SMPSeqSyntax.FASTUVMC
	mov	r0, r4	@, tmp248
	bl	BsGet	@
	mov	r1, #2	@,
	strb	r0, [r5, #10]	@, <variable>.SMPSeqSyntax.EXTENDED_MV
	mov	r0, r4	@, tmp248
	bl	BsGet	@
	mov	r1, #1	@,
	strb	r0, [r5, #11]	@, <variable>.SMPSeqSyntax.DQUANT
	mov	r0, r4	@, tmp248
	bl	BsGet	@
	mov	r1, #1	@,
	strb	r0, [r5, #12]	@, <variable>.SMPSeqSyntax.VSTRANSFORM
	mov	r0, r4	@, tmp248
	bl	BsGet	@
	cmp	r0, #0	@,
	bne	.L227	@,
	mov	r1, #1	@,
	mov	r0, r4	@, tmp248
	bl	BsGet	@
	mov	r1, #1	@,
	strb	r0, [r5, #13]	@, <variable>.SMPSeqSyntax.OVERLAP
	mov	r0, r4	@, tmp248
	bl	BsGet	@
	mov	r1, #1	@,
	strb	r0, [r5, #14]	@, <variable>.SMPSeqSyntax.SYNCMARKER
	mov	r0, r4	@, tmp248
	bl	BsGet	@
	ldrb	r3, [r5, #3]	@ zero_extendqisi2	@ <variable>.SMPSeqSyntax.PROFILE, <variable>.SMPSeqSyntax.PROFILE
	mov	r1, #3	@,
	cmp	r3, #0	@ <variable>.SMPSeqSyntax.PROFILE,
	strb	r0, [r5, #15]	@, <variable>.SMPSeqSyntax.RANGERED
	mov	r0, r4	@, tmp248
	streqb	r3, [r5, #15]	@ <variable>.SMPSeqSyntax.PROFILE, <variable>.SMPSeqSyntax.RANGERED
	bl	BsGet	@
	mov	r1, #2	@,
	strb	r0, [r5, #16]	@, <variable>.SMPSeqSyntax.MAXBFRAMES
	mov	r0, r4	@, tmp248
	bl	BsGet	@
	mov	r1, #1	@,
	strb	r0, [r5, #17]	@, <variable>.SMPSeqSyntax.QUANTIZER
	mov	r0, r4	@, tmp248
	bl	BsGet	@
	mov	r1, #1	@,
	strb	r0, [r5, #18]	@, <variable>.SMPSeqSyntax.FINTERPFLAG
	mov	r0, r4	@, tmp248
	bl	BsGet	@
	mov	r0, r4	@, tmp248
	mov	r1, #32	@,
	bl	BsGet	@
	cmp	r0, #0	@ data.1450
	bne	.L228	@,
.L209:
	sub	sp, fp, #28
	ldmfd	sp, {r4, r5, r6, r7, fp, sp, pc}
.L228:
	mov	r0, #0	@,
	movw	r1, #:lower16:.LC6	@,
	movt	r1, #:upper16:.LC6	@,
	bl	dprint_vfmw	@
	mov	r0, #0	@ D.35530,
	b	.L209	@
.L224:
	mov	r0, #0	@,
	movw	r1, #:lower16:.LC2	@,
	movw	r2, #262	@,
	movt	r1, #:upper16:.LC2	@,
	movw	r3, #:lower16:.LC5	@,
	movt	r3, #:upper16:.LC5	@,
	bl	dprint_vfmw	@
	mvn	r0, #0	@ D.35530,
	b	.L209	@
.L223:
	mov	r0, #0	@,
	movw	r1, #:lower16:.LC2	@,
	movw	r2, #259	@,
	movt	r1, #:upper16:.LC2	@,
	movw	r3, #:lower16:.LC4	@,
	movt	r3, #:upper16:.LC4	@,
	bl	dprint_vfmw	@
	mvn	r0, #0	@ D.35530,
	b	.L209	@
.L225:
	mov	r0, #0	@,
	movw	r1, #:lower16:.LC2	@,
	movw	r2, #265	@,
	movt	r1, #:upper16:.LC2	@,
	movw	r3, #:lower16:.LC5	@,
	movt	r3, #:upper16:.LC5	@,
	bl	dprint_vfmw	@
	mvn	r0, #0	@ D.35530,
	b	.L209	@
.L226:
	mov	r0, r6	@, D.35543
	movw	r1, #:lower16:.LC2	@,
	mov	r2, #272	@,
	movt	r1, #:upper16:.LC2	@,
	movw	r3, #:lower16:.LC5	@,
	movt	r3, #:upper16:.LC5	@,
	bl	dprint_vfmw	@
	mvn	r0, #0	@ D.35530,
	b	.L209	@
.L227:
	mov	r0, r7	@, D.35552
	movw	r1, #:lower16:.LC2	@,
	movw	r2, #283	@,
	movt	r1, #:upper16:.LC2	@,
	movw	r3, #:lower16:.LC5	@,
	movt	r3, #:upper16:.LC5	@,
	bl	dprint_vfmw	@
	mvn	r0, #0	@ D.35530,
	b	.L209	@
.L220:
	mov	r0, #0	@,
	movw	r1, #:lower16:.LC2	@,
	mov	r2, #256	@,
	movt	r1, #:upper16:.LC2	@,
	movw	r3, #:lower16:.LC3	@,
	movt	r3, #:upper16:.LC3	@,
	bl	dprint_vfmw	@
	mvn	r0, #0	@ D.35530,
	b	.L209	@
.L221:
	mov	r0, #0	@,
	movw	r1, #:lower16:.LC2	@,
	movw	r2, #257	@,
	movt	r1, #:upper16:.LC2	@,
	movw	r3, #:lower16:.LC4	@,
	movt	r3, #:upper16:.LC4	@,
	bl	dprint_vfmw	@
	mvn	r0, #0	@ D.35530,
	b	.L209	@
.L222:
	mov	r0, #0	@,
	movw	r1, #:lower16:.LC2	@,
	movw	r2, #258	@,
	movt	r1, #:upper16:.LC2	@,
	movw	r3, #:lower16:.LC3	@,
	movt	r3, #:upper16:.LC3	@,
	bl	dprint_vfmw	@
	mvn	r0, #0	@ D.35530,
	b	.L209	@
	.fnend
	.size	Vc1SMPSeqHdr, .-Vc1SMPSeqHdr
	.align	2
	.global	VC1_Vfmw_ParseAdvEntptHdr
	.type	VC1_Vfmw_ParseAdvEntptHdr, %function
VC1_Vfmw_ParseAdvEntptHdr:
	.fnstart
.LFB1399:
	@ args = 0, pretend = 0, frame = 0
	@ frame_needed = 1, uses_anonymous_args = 0
	.movsp ip
	mov	ip, sp	@,
	stmfd	sp!, {r4, r5, r6, r7, fp, ip, lr, pc}	@,
	.pad #4
	.save {r4, r5, r6, r7, fp, ip, lr}
	.setfp fp, ip, #-4
	sub	fp, ip, #4	@,,
	push	{lr}
	bl	__gnu_mcount_nc
	mov	r1, #60	@,
	mov	r7, r0	@ pBs, pBs
	add	r0, r2, #188	@, pSyntax,
	mov	r4, r2	@ pSyntax, pSyntax
	bl	__memzero	@
	mov	r0, r7	@, pBs
	bl	BsPos	@
	mov	r1, #1	@,
	str	r0, [r4, #244]	@, <variable>.AdvEntSyntax.HdrLen
	mov	r0, r7	@, pBs
	bl	BsGet	@
	mov	r1, #1	@,
	strb	r0, [r4, #188]	@, <variable>.AdvEntSyntax.BROKEN_LINK
	mov	r0, r7	@, pBs
	bl	BsGet	@
	mov	r1, #1	@,
	strb	r0, [r4, #189]	@, <variable>.AdvEntSyntax.CLOSED_ENTRY
	mov	r0, r7	@, pBs
	bl	BsGet	@
	mov	r1, #1	@,
	strb	r0, [r4, #190]	@, <variable>.AdvEntSyntax.PANSCAN_FLAG
	mov	r0, r7	@, pBs
	bl	BsGet	@
	mov	r1, #1	@,
	strb	r0, [r4, #191]	@, <variable>.AdvEntSyntax.REFDIST_FLAG
	mov	r0, r7	@, pBs
	bl	BsGet	@
	mov	r1, #1	@,
	strb	r0, [r4, #192]	@, <variable>.AdvEntSyntax.LOOPFILTER
	mov	r0, r7	@, pBs
	bl	BsGet	@
	mov	r1, #1	@,
	strb	r0, [r4, #193]	@, <variable>.AdvEntSyntax.FASTUVMC
	mov	r0, r7	@, pBs
	bl	BsGet	@
	mov	r1, #2	@,
	strb	r0, [r4, #194]	@, <variable>.AdvEntSyntax.EXTENDED_MV
	mov	r0, r7	@, pBs
	bl	BsGet	@
	mov	r1, #1	@,
	strb	r0, [r4, #195]	@, <variable>.AdvEntSyntax.DQUANT
	mov	r0, r7	@, pBs
	bl	BsGet	@
	mov	r1, #1	@,
	strb	r0, [r4, #196]	@, <variable>.AdvEntSyntax.VSTRANSFORM
	mov	r0, r7	@, pBs
	bl	BsGet	@
	mov	r1, #2	@,
	strb	r0, [r4, #197]	@, <variable>.AdvEntSyntax.OVERLAP
	mov	r0, r7	@, pBs
	bl	BsGet	@
	ldrb	r3, [r4, #39]	@ zero_extendqisi2	@ <variable>.AdvSeqSyntax.HRD_PARAM_FLAG, <variable>.AdvSeqSyntax.HRD_PARAM_FLAG
	cmp	r3, #1	@ <variable>.AdvSeqSyntax.HRD_PARAM_FLAG,
	strb	r0, [r4, #198]	@, <variable>.AdvEntSyntax.QUANTIZER
	beq	.L242	@,
.L230:
	mov	r0, r7	@, pBs
	mov	r1, #1	@,
	bl	BsGet	@
	uxtb	r2, r0	@ D.37923,
	strb	r2, [r4, #199]	@ D.37923, <variable>.AdvEntSyntax.CODED_SIZE_FLAG
	cmp	r2, #1	@ D.37923,
	beq	.L243	@,
.L232:
	ldrh	r2, [r4, #238]	@ D.37937, <variable>.AdvEntSyntax.CODED_WIDTH
	ldrh	r3, [r4, #172]	@ D.37938, <variable>.AdvSeqSyntax.MAX_CODED_WIDTH
	cmp	r2, r3	@ D.37937, D.37938
	bhi	.L233	@,
	cmp	r2, #15	@ D.37937,
	bls	.L233	@,
.L234:
	ldrh	r2, [r4, #240]	@ D.37942, <variable>.AdvEntSyntax.CODED_HEIGHT
	ldrh	r3, [r4, #174]	@ D.37943, <variable>.AdvSeqSyntax.MAX_CODED_HEIGHT
	cmp	r2, r3	@ D.37942, D.37943
	bhi	.L235	@,
	cmp	r2, #15	@ D.37942,
	bls	.L235	@,
	ldrb	r1, [r4, #194]	@ zero_extendqisi2	@ <variable>.AdvEntSyntax.EXTENDED_MV, <variable>.AdvEntSyntax.EXTENDED_MV
	cmp	r1, #1	@ <variable>.AdvEntSyntax.EXTENDED_MV,
	beq	.L244	@,
.L237:
	mov	r0, r7	@, pBs
	mov	r1, #1	@,
	bl	BsGet	@
	uxtb	r0, r0	@ D.37951,
	strb	r0, [r4, #201]	@ D.37951, <variable>.AdvEntSyntax.RANGE_MAPY_FLAG
	cmp	r0, #1	@ D.37951,
	beq	.L245	@,
.L238:
	mov	r1, #1	@,
	mov	r0, r7	@, pBs
	bl	BsGet	@
	uxtb	r1, r0	@ D.37958,
	strb	r1, [r4, #203]	@ D.37958, <variable>.AdvEntSyntax.RANGE_MAPUV_FLAG
	cmp	r1, #1	@ D.37958,
	beq	.L246	@,
.L239:
	mov	r0, r7	@, pBs
	bl	BsPos	@
	ldr	r2, [r4, #244]	@ <variable>.AdvEntSyntax.HdrLen, <variable>.AdvEntSyntax.HdrLen
	rsb	r3, r2, r0	@ tmp198, <variable>.AdvEntSyntax.HdrLen,
	mov	r0, #1	@,
	str	r3, [r4, #244]	@ tmp198, <variable>.AdvEntSyntax.HdrLen
	ldmfd	sp, {r4, r5, r6, r7, fp, sp, pc}	@
.L235:
	ldrb	r1, [r4, #194]	@ zero_extendqisi2	@ <variable>.AdvEntSyntax.EXTENDED_MV, <variable>.AdvEntSyntax.EXTENDED_MV
	strh	r3, [r4, #240]	@ movhi	@ D.37943, <variable>.AdvEntSyntax.CODED_HEIGHT
	cmp	r1, #1	@ <variable>.AdvEntSyntax.EXTENDED_MV,
	bne	.L237	@,
.L244:
	mov	r0, r7	@, pBs
	bl	BsGet	@
	mov	r1, #1	@,
	strb	r0, [r4, #200]	@, <variable>.AdvEntSyntax.EXTENDED_DMV
	mov	r0, r7	@, pBs
	bl	BsGet	@
	uxtb	r0, r0	@ D.37951,
	strb	r0, [r4, #201]	@ D.37951, <variable>.AdvEntSyntax.RANGE_MAPY_FLAG
	cmp	r0, #1	@ D.37951,
	bne	.L238	@,
.L245:
	mov	r1, #3	@,
	mov	r0, r7	@, pBs
	bl	BsGet	@
	mov	r1, #1	@,
	strb	r0, [r4, #202]	@, <variable>.AdvEntSyntax.RANGE_MAPY
	mov	r0, r7	@, pBs
	bl	BsGet	@
	uxtb	r1, r0	@ D.37958,
	strb	r1, [r4, #203]	@ D.37958, <variable>.AdvEntSyntax.RANGE_MAPUV_FLAG
	cmp	r1, #1	@ D.37958,
	bne	.L239	@,
.L246:
	mov	r0, r7	@, pBs
	mov	r1, #3	@,
	bl	BsGet	@
	strb	r0, [r4, #204]	@, <variable>.AdvEntSyntax.RANGE_MAPUV
	b	.L239	@
.L233:
	strh	r3, [r4, #238]	@ movhi	@ D.37938, <variable>.AdvEntSyntax.CODED_WIDTH
	b	.L234	@
.L242:
	ldrb	r0, [r4, #40]	@ zero_extendqisi2	@ <variable>.AdvSeqSyntax.HRD_NUM_LEAKY_BUCKETS, <variable>.AdvSeqSyntax.HRD_NUM_LEAKY_BUCKETS
	cmp	r0, #0	@ <variable>.AdvSeqSyntax.HRD_NUM_LEAKY_BUCKETS,
	beq	.L230	@,
	mov	r6, r4	@ ivtmp.1478, pSyntax
	mov	r5, #0	@ i,
.L231:
	mov	r1, #8	@,
	mov	r0, r7	@, pBs
	bl	BsGet	@
	ldrb	r1, [r4, #40]	@ zero_extendqisi2	@ <variable>.AdvSeqSyntax.HRD_NUM_LEAKY_BUCKETS, <variable>.AdvSeqSyntax.HRD_NUM_LEAKY_BUCKETS
	add	r5, r5, #1	@ i, i,
	cmp	r1, r5	@ <variable>.AdvSeqSyntax.HRD_NUM_LEAKY_BUCKETS, i
	strb	r0, [r6, #205]	@, <variable>.AdvEntSyntax.HRD_FULLNESS
	add	r6, r6, #1	@ ivtmp.1478, ivtmp.1478,
	bgt	.L231	@,
	mov	r0, r7	@, pBs
	mov	r1, #1	@,
	bl	BsGet	@
	uxtb	r2, r0	@ D.37923,
	strb	r2, [r4, #199]	@ D.37923, <variable>.AdvEntSyntax.CODED_SIZE_FLAG
	cmp	r2, #1	@ D.37923,
	bne	.L232	@,
.L243:
	mov	r1, #12	@,
	mov	r0, r7	@, pBs
	bl	BsGet	@
	mov	r1, #12	@,
	add	ip, r0, #1	@ tmp185,,
	mov	r0, r7	@, pBs
	mov	r2, ip, asl #1	@ tmp187, tmp185,
	strh	r2, [r4, #238]	@ movhi	@ tmp187, <variable>.AdvEntSyntax.CODED_WIDTH
	bl	BsGet	@
	add	r3, r0, #1	@ tmp188,,
	mov	ip, r3, asl #1	@ tmp190, tmp188,
	strh	ip, [r4, #240]	@ movhi	@ tmp190, <variable>.AdvEntSyntax.CODED_HEIGHT
	b	.L232	@
	.fnend
	.size	VC1_Vfmw_ParseAdvEntptHdr, .-VC1_Vfmw_ParseAdvEntptHdr
	.align	2
	.global	VC1_RecordSlcStream
	.type	VC1_RecordSlcStream, %function
VC1_RecordSlcStream:
	.fnstart
.LFB1416:
	@ args = 0, pretend = 0, frame = 8
	@ frame_needed = 1, uses_anonymous_args = 0
	.movsp ip
	mov	ip, sp	@,
	stmfd	sp!, {r4, r5, r6, r7, r8, r9, sl, fp, ip, lr, pc}	@,
	.pad #4
	.save {r4, r5, r6, r7, r8, r9, sl, fp, ip, lr}
	.setfp fp, ip, #-4
	sub	fp, ip, #4	@,,
	.pad #20
	sub	sp, sp, #20	@,,
	push	{lr}
	bl	__gnu_mcount_nc
	movw	r7, #23028	@ tmp147,
	ldr	r6, [r0, r7]	@ D.38842, <variable>.SlcNum
	mov	r4, r0	@ pCodecInf, pCodecInf
	ldr	r3, [r0, #3128]	@ pBs, <variable>.pBs
	movw	ip, #23032	@ tmp156,
	str	r1, [fp, #-48]	@ pSyntax, %sfp
	mov	r7, r6, asl #1	@ tmp399, D.38842,
	add	r5, r7, r6	@ tmp151, tmp399, D.38842
	add	r1, r5, #1	@ tmp172, tmp151,
	add	r5, r0, r5, asl #4	@, tmp153, pCodecInf, tmp151,
	add	r9, r5, #23040	@ tmp154, tmp153,
	add	lr, r0, r1, asl #4	@, tmp175, pCodecInf, tmp172,
	add	sl, lr, #22784	@ tmp176, tmp175,
	add	r8, r5, #22784	@ tmp162, tmp153,
	strb	r6, [r9, #0]	@ D.38842, <variable>.SlcNo
	add	r1, sl, #248	@ tmp176, tmp176,
	ldr	r0, [r3, #24]	@ <variable>.TotalPos, <variable>.TotalPos
	add	r8, r8, #248	@ tmp162, tmp162,
	cmp	r0, #0	@ <variable>.TotalPos,
	add	sl, r0, #7	@ tmp166, <variable>.TotalPos,
	movlt	r0, sl	@ <variable>.TotalPos, tmp166
	add	r0, r2, r0, asr #3	@, tmp168, pCurBsRealStart, <variable>.TotalPos,
	str	r0, [r5, ip]	@ tmp168, <variable>.pStream
	ldr	r2, [r3, #24]	@ <variable>.TotalPos, <variable>.TotalPos
	and	r2, r2, #7	@ tmp178, <variable>.TotalPos,
	str	r2, [lr, ip]	@ tmp178, <variable>.BitOffset
	ldr	r2, [r3, #16]	@ <variable>.BsLen, <variable>.BsLen
	ldr	ip, [r3, #24]	@ <variable>.TotalPos, <variable>.TotalPos
	rsb	lr, ip, r2, asl #3	@, tmp190, <variable>.TotalPos, <variable>.BsLen,
	str	lr, [r1, #4]	@ tmp190, <variable>.Len
	bl	MEM_Vir2Phy	@
	movw	ip, #35352	@ tmp213,
	mov	r2, #35328	@ tmp215,
	add	r3, r9, #32	@ tmp212, tmp212,
	str	r0, [r9, #4]	@, <variable>.Phy_addr
	movw	r0, #23072	@ tmp206,
	ldr	r1, [r4, ip]	@ <variable>.stCurPacket.StreamID, <variable>.stCurPacket.StreamID
	str	r1, [r5, r0]	@ <variable>.stCurPacket.StreamID, <variable>.StreamID
	ldr	r2, [r4, r2]	@ D.38862, <variable>.stCurPacket.BsVirAddr
	cmp	r2, #0	@ D.38862,
	beq	.L248	@,
	movw	r1, #35340	@ tmp216,
	ldr	ip, [r4, r1]	@ <variable>.stCurPacket.BsPhyAddr, <variable>.stCurPacket.BsPhyAddr
	cmp	ip, #0	@ <variable>.stCurPacket.BsPhyAddr,
	bne	.L258	@,
.L248:
	add	r2, r7, r6	@ tmp264, tmp399, D.38842
	mov	r3, #0	@ tmp268,
	add	r2, r4, r2, asl #4	@, tmp266, pCodecInf, tmp264,
	add	r5, r2, #22784	@ tmp267, tmp266,
	add	ip, r2, #23040	@ tmp299, tmp266,
	add	r5, r5, #248	@ tmp267, tmp267,
	add	r0, ip, #24	@ tmp275, tmp275,
	add	r1, ip, #16	@ tmp291, tmp291,
	add	ip, ip, #32	@ tmp299, tmp299,
	str	r3, [r5, #4]	@ tmp268, <variable>.pStream2
	movw	r5, #23064	@ tmp269,
	str	r3, [ip, #4]	@ tmp268, <variable>.StreamID2
	str	r3, [r2, r5]	@ tmp268, <variable>.BitOffset2
	str	r3, [r0, #4]	@ tmp268, <variable>.Len2
	str	r3, [r1, #4]	@ tmp268, <variable>.Phy_addr2
.L249:
	movw	r3, #22944	@ tmp310,
	movw	r1, #22948	@ tmp309,
	ldr	r0, [r4, r3]	@ <variable>.MbWidth, <variable>.MbWidth
	ldr	r3, [r4, r1]	@ D.38880, <variable>.MbHeight
	ldrb	r5, [r4, #8]	@ zero_extendqisi2	@ <variable>.Is2ndFld, <variable>.Is2ndFld
	mul	ip, r0, r3	@ tmp311, <variable>.MbWidth, D.38880
	cmp	r5, #0	@ <variable>.Is2ndFld,
	sub	ip, ip, #1	@ totalMbMin1, tmp311,
	beq	.L252	@,
	ldr	r5, [fp, #-48]	@, %sfp
	add	r2, r7, r6	@ tmp317, tmp399, D.38842
	add	r3, r3, #1	@ tmp321, D.38880,
	add	r0, r5, r2, asl #2	@, tmp319,, tmp317,
	add	r2, r4, r2, asl #4	@, tmp332, pCodecInf, tmp317,
	add	r3, r3, r3, lsr #31	@, tmp324, tmp321, tmp321,
	ldr	r5, [r0, #528]	@ <variable>.SLICE_ADDR, <variable>.SLICE_ADDR
	sub	r3, r5, r3, asr #1	@ D.38890, <variable>.SLICE_ADDR, tmp324,
	movw	r5, #23056	@ tmp327,
	cmp	r3, #0	@ D.38890,
	str	r3, [r2, r5]	@ D.38890, <variable>.SlcEndMbn
	ble	.L253	@,
	cmp	ip, r3	@ totalMbMin1, D.38890
	bcc	.L259	@,
.L253:
	add	r6, r7, r6	@ tmp370, tmp399, D.38842
	add	r0, r6, #1	@ tmp371, tmp370,
	add	r3, r4, r0, asl #4	@, tmp374, pCodecInf, tmp371,
	add	r1, r3, #22784	@ tmp375, tmp374,
	add	r2, r1, #248	@ tmp375, tmp375,
	ldr	ip, [r2, #4]	@ <variable>.Len, <variable>.Len
	cmp	ip, #0	@ <variable>.Len,
	ble	.L255	@,
	add	r6, r4, r6, asl #4	@, tmp382, pCodecInf, tmp370,
	add	r1, r6, #22784	@ tmp383, tmp382,
	add	r2, r1, #248	@ tmp383, tmp383,
	ldr	ip, [r2, #4]	@ <variable>.pStream2, <variable>.pStream2
	cmp	ip, #0	@ <variable>.pStream2,
	beq	.L256	@,
	add	r6, r6, #23040	@ tmp391, tmp382,
	add	r6, r6, #24	@ tmp391, tmp391,
	ldr	r3, [r6, #4]	@ <variable>.Len2, <variable>.Len2
	cmp	r3, #0	@ <variable>.Len2,
	ble	.L255	@,
.L256:
	movw	r1, #23028	@ tmp394,
	mov	r0, #1	@ D.38898,
	ldr	r2, [r4, r1]	@ <variable>.SlcNum, <variable>.SlcNum
	add	ip, r2, r0	@ tmp397, <variable>.SlcNum,
	str	ip, [r4, r1]	@ tmp397, <variable>.SlcNum
.L254:
	sub	sp, fp, #40
	ldmfd	sp, {r4, r5, r6, r7, r8, r9, sl, fp, sp, pc}
.L252:
	add	r3, r7, r6	@ tmp348, tmp399, D.38842
	ldr	r0, [fp, #-48]	@, %sfp
	movw	r1, #23056	@ tmp352,
	add	r2, r0, r3, asl #2	@, tmp350,, tmp348,
	add	r0, r4, r3, asl #4	@, tmp357, pCodecInf, tmp348,
	ldr	r3, [r2, #528]	@ temp.1514, <variable>.SLICE_ADDR
	cmp	ip, r3	@ totalMbMin1, temp.1514
	str	r3, [r0, r1]	@ temp.1514, <variable>.SlcEndMbn
	bcs	.L253	@,
	ldr	r2, [r2, #528]	@ <variable>.SLICE_ADDR, <variable>.SLICE_ADDR
	mov	r0, #1	@,
	movw	r1, #:lower16:.LC8	@,
	movt	r1, #:upper16:.LC8	@,
	str	ip, [sp, #0]	@ totalMbMin1,
	bl	dprint_vfmw	@
	mov	r0, r5	@ D.38898, <variable>.Is2ndFld
	b	.L254	@
.L258:
	movw	r0, #23064	@ tmp225,
	mov	ip, #0	@ tmp232,
	str	ip, [r5, r0]	@ tmp232, <variable>.BitOffset2
	movw	r0, #35348	@ tmp240,
	str	r2, [r8, #4]	@ D.38862, <variable>.pStream2
	add	r2, r9, #24	@ tmp231, tmp231,
	ldr	ip, [r4, r0]	@ <variable>.stCurPacket.BsLength, <variable>.stCurPacket.BsLength
	add	r5, r5, #23040	@ tmp249, tmp249,
	add	r5, r5, #16	@ tmp249, tmp249,
	mov	r0, ip, asl #3	@ tmp242, <variable>.stCurPacket.BsLength,
	str	r0, [r2, #4]	@ tmp242, <variable>.Len2
	ldr	ip, [r4, r1]	@ <variable>.stCurPacket.BsPhyAddr, <variable>.stCurPacket.BsPhyAddr
	movw	r0, #35356	@ tmp259,
	str	ip, [r5, #4]	@ <variable>.stCurPacket.BsPhyAddr, <variable>.Phy_addr2
	ldr	r2, [r4, r0]	@ <variable>.stCurPacket.StreamID, <variable>.stCurPacket.StreamID
	str	r2, [r3, #4]	@ <variable>.stCurPacket.StreamID, <variable>.StreamID2
	b	.L249	@
.L259:
	ldr	lr, [r4, r1]	@ <variable>.MbHeight, <variable>.MbHeight
	movw	r1, #:lower16:.LC7	@,
	ldr	r2, [r0, #528]	@ <variable>.SLICE_ADDR, <variable>.SLICE_ADDR
	movt	r1, #:upper16:.LC7	@,
	mov	r0, #1	@,
	str	lr, [sp, #0]	@ <variable>.MbHeight,
	bl	dprint_vfmw	@
	mov	r0, #0	@ D.38898,
	b	.L254	@
.L255:
	mov	r0, #1	@,
	movw	r1, #:lower16:.LC9	@,
	movt	r1, #:upper16:.LC9	@,
	bl	dprint_vfmw	@
	mov	r0, #0	@ D.38898,
	b	.L254	@
	.fnend
	.size	VC1_RecordSlcStream, .-VC1_RecordSlcStream
	.align	2
	.global	VC1_Vfmw_next_start_code
	.type	VC1_Vfmw_next_start_code, %function
VC1_Vfmw_next_start_code:
	.fnstart
.LFB1414:
	@ args = 0, pretend = 0, frame = 0
	@ frame_needed = 1, uses_anonymous_args = 0
	.movsp ip
	mov	ip, sp	@,
	stmfd	sp!, {r4, r5, r6, r7, fp, ip, lr, pc}	@,
	.pad #4
	.save {r4, r5, r6, r7, fp, ip, lr}
	.setfp fp, ip, #-4
	sub	fp, ip, #4	@,,
	push	{lr}
	bl	__gnu_mcount_nc
	mov	r4, r0	@ pBs, pBs
	bl	BsToNextByte	@
	mov	r0, r4	@, pBs
	bl	BsResidBits	@
	add	r3, r0, #7	@ tmp142, D.38818,
	cmp	r0, #0	@ D.38818,
	movlt	r0, r3	@ D.38818, tmp142
	mov	r3, r0, asr #3	@ tmp143, D.38818,
	sub	r6, r3, #3	@ RemainByte, tmp143,
	cmp	r6, #0	@ RemainByte,
	ble	.L261	@,
	mov	r0, r4	@, pBs
	mov	r1, #24	@,
	and	r7, r3, #1	@ tmp149, tmp143,
	bl	BsShow	@
	cmp	r0, #1	@ D.38820,
	mov	r3, r0	@ D.38820,
	beq	.L275	@,
	mov	r0, r4	@, pBs
	mov	r1, #8	@,
	bl	BsSkip	@
	mov	r5, #1	@ i,
	cmp	r6, r5	@ RemainByte, i
	ble	.L261	@,
	cmp	r7, #0	@ tmp149,
	beq	.L264	@,
	mov	r0, r4	@, pBs
	mov	r1, #24	@,
	bl	BsShow	@
	cmp	r0, r5	@ D.38820,
	mov	r3, r0	@ D.38820,
	beq	.L275	@,
	mov	r0, r4	@, pBs
	mov	r1, #8	@,
	bl	BsSkip	@
	mov	r5, #2	@ i,
	cmp	r6, r5	@ RemainByte, i
	bgt	.L264	@,
	b	.L261	@
.L262:
	bl	BsSkip	@
	mov	r1, #24	@,
	mov	r0, r4	@, pBs
	bl	BsShow	@
	mov	r1, #8	@,
	mov	r3, r0	@ D.38820,
	cmp	r3, #1	@ D.38820,
	mov	r0, r4	@, pBs
	beq	.L275	@,
	bl	BsSkip	@
	cmp	r6, r5	@ RemainByte, i
	ble	.L261	@,
.L264:
	mov	r1, #24	@,
	mov	r0, r4	@, pBs
	bl	BsShow	@
	add	r5, r5, #1	@ tmp150, i,
	mov	r1, #8	@,
	add	r5, r5, #1	@ i, tmp150,
	mov	r3, r0	@ D.38820,
	cmp	r3, #1	@ D.38820,
	mov	r0, r4	@, pBs
	bne	.L262	@,
.L275:
	mov	r0, r3	@ D.38823, D.38820
	ldmfd	sp, {r4, r5, r6, r7, fp, sp, pc}	@
.L261:
	mov	r0, #0	@ D.38823,
	ldmfd	sp, {r4, r5, r6, r7, fp, sp, pc}	@
	.fnend
	.size	VC1_Vfmw_next_start_code, .-VC1_Vfmw_next_start_code
	.align	2
	.global	VC1_DecIntCompField
	.type	VC1_DecIntCompField, %function
VC1_DecIntCompField:
	.fnstart
.LFB1407:
	@ args = 0, pretend = 0, frame = 32
	@ frame_needed = 1, uses_anonymous_args = 0
	.movsp ip
	mov	ip, sp	@,
	stmfd	sp!, {r4, r5, fp, ip, lr, pc}	@,
	.pad #4
	.save {r4, r5, fp, ip, lr}
	.setfp fp, ip, #-4
	sub	fp, ip, #4	@,,
	.pad #32
	sub	sp, sp, #32	@,,
	push	{lr}
	bl	__gnu_mcount_nc
	ldr	r5, .L278	@ tmp139,
	mov	r4, r0	@ pBs, pBs
	sub	ip, fp, #52	@ tmp138,,
	ldmia	r5!, {r0, r1, r2, r3}	@ tmp150,,,,
	mov	lr, ip	@ tmp151, tmp138
	stmia	lr!, {r0, r1, r2, r3}	@ tmp151,,,,
	ldmia	r5, {r0, r1, r2, r3}	@ tmp150,,,,
	stmia	lr, {r0, r1, r2, r3}	@ tmp151,,,,
	mov	r1, #2	@,
	mov	r0, r4	@, pBs
	bl	BsShow	@
	sub	r2, fp, #20	@,,
	add	r3, r2, r0, asl #3	@, tmp142,,,
	mov	r0, r4	@, pBs
	ldr	r4, [r3, #-32]	@ Code, <variable>.Code
	ldr	r1, [r3, #-28]	@, <variable>.Len
	bl	BsSkip	@
	mov	r0, r4	@, Code
	sub	sp, fp, #20
	ldmfd	sp, {r4, r5, fp, sp, pc}
.L279:
	.align	2
.L278:
	.word	.LANCHOR0+316
	.fnend
	.size	VC1_DecIntCompField, .-VC1_DecIntCompField
	.align	2
	.global	VC1_DecRefdist
	.type	VC1_DecRefdist, %function
VC1_DecRefdist:
	.fnstart
.LFB1406:
	@ args = 0, pretend = 0, frame = 0
	@ frame_needed = 1, uses_anonymous_args = 0
	.movsp ip
	mov	ip, sp	@,
	stmfd	sp!, {r4, r5, fp, ip, lr, pc}	@,
	.pad #4
	.save {r4, r5, fp, ip, lr}
	.setfp fp, ip, #-4
	sub	fp, ip, #4	@,,
	push	{lr}
	bl	__gnu_mcount_nc
	mov	r1, #5	@,
	mov	r5, r0	@ pBs, pBs
	bl	BsShow	@
	cmp	r0, #23	@ Code,
	bgt	.L281	@,
	mov	r4, r0, asr #3	@ Code.1592, Code,
	mov	r1, #2	@,
	mov	r0, r5	@, pBs
	bl	BsSkip	@
	mov	r0, r4	@, Len
	ldmfd	sp, {r4, r5, fp, sp, pc}	@
.L281:
	cmp	r0, #27	@ Code,
	movle	r4, #3	@ Len,
	ble	.L284	@,
	cmp	r0, #29	@ Code,
	movle	r4, #4	@ Len,
	movgt	r4, #5	@ Len,
.L284:
	mov	r0, r5	@, pBs
	mov	r1, r4	@, Len
	bl	BsSkip	@
	mov	r0, r4	@, Len
	ldmfd	sp, {r4, r5, fp, sp, pc}	@
	.fnend
	.size	VC1_DecRefdist, .-VC1_DecRefdist
	.align	2
	.global	VC1_DecAdvPtype
	.type	VC1_DecAdvPtype, %function
VC1_DecAdvPtype:
	.fnstart
.LFB1401:
	@ args = 0, pretend = 0, frame = 0
	@ frame_needed = 1, uses_anonymous_args = 0
	.movsp ip
	mov	ip, sp	@,
	stmfd	sp!, {r4, r5, fp, ip, lr, pc}	@,
	.pad #4
	.save {r4, r5, fp, ip, lr}
	.setfp fp, ip, #-4
	sub	fp, ip, #4	@,,
	push	{lr}
	bl	__gnu_mcount_nc
	mov	r1, #4	@,
	mov	r4, r0	@ pBs, pBs
	bl	BsShow	@
	cmp	r0, #7	@ Code.1616,
	movle	r1, #1	@ Len,
	movle	r5, r1	@ Code, Len
	ble	.L289	@,
	cmp	r0, #11	@ Code.1616,
	movle	r1, #2	@ Len,
	movle	r5, r1	@ Code, Len
	ble	.L289	@,
	cmp	r0, #13	@ Code.1616,
	movle	r1, #3	@ Len,
	movle	r5, #0	@ Code,
	ble	.L289	@,
	cmp	r0, #14	@ Code.1616,
	mov	r1, #4	@ Len,
	movne	r5, #5	@ Code,
	moveq	r5, r1	@ Code, Len
.L289:
	mov	r0, r4	@, pBs
	bl	BsSkip	@
	mov	r0, r5	@, Code
	ldmfd	sp, {r4, r5, fp, sp, pc}	@
	.fnend
	.size	VC1_DecAdvPtype, .-VC1_DecAdvPtype
	.align	2
	.global	VC1_DecFcm
	.type	VC1_DecFcm, %function
VC1_DecFcm:
	.fnstart
.LFB1400:
	@ args = 0, pretend = 0, frame = 0
	@ frame_needed = 1, uses_anonymous_args = 0
	.movsp ip
	mov	ip, sp	@,
	stmfd	sp!, {r4, r5, fp, ip, lr, pc}	@,
	.pad #4
	.save {r4, r5, fp, ip, lr}
	.setfp fp, ip, #-4
	sub	fp, ip, #4	@,,
	push	{lr}
	bl	__gnu_mcount_nc
	mov	r1, #2	@,
	mov	r5, r0	@ pBs, pBs
	bl	BsShow	@
	cmp	r0, #1	@ Code,
	mov	r4, r0	@ Code,
	ble	.L298	@,
	mov	r0, r5	@, pBs
	mov	r1, #2	@,
	bl	BsSkip	@
	mov	r0, r4	@, Code
	ldmfd	sp, {r4, r5, fp, sp, pc}	@
.L298:
	mov	r0, r5	@, pBs
	mov	r1, #1	@,
	mov	r4, #0	@ Code,
	bl	BsSkip	@
	mov	r0, r4	@, Code
	ldmfd	sp, {r4, r5, fp, sp, pc}	@
	.fnend
	.size	VC1_DecFcm, .-VC1_DecFcm
	.align	2
	.global	VC1_Vfmw_ParseAdvSeqHdr
	.type	VC1_Vfmw_ParseAdvSeqHdr, %function
VC1_Vfmw_ParseAdvSeqHdr:
	.fnstart
.LFB1398:
	@ args = 0, pretend = 0, frame = 0
	@ frame_needed = 1, uses_anonymous_args = 0
	.movsp ip
	mov	ip, sp	@,
	stmfd	sp!, {r4, r5, r6, r7, fp, ip, lr, pc}	@,
	.pad #4
	.save {r4, r5, r6, r7, fp, ip, lr}
	.setfp fp, ip, #-4
	sub	fp, ip, #4	@,,
	push	{lr}
	bl	__gnu_mcount_nc
	mov	r1, #172	@,
	mov	r5, r0	@ pBs, pBs
	add	r0, r2, #16	@, pSyntax,
	mov	r4, r2	@ pSyntax, pSyntax
	bl	__memzero	@
	mov	r0, r5	@, pBs
	bl	BsPos	@
	mov	r1, #2	@,
	mov	r6, r1	@ tmp214,
	str	r0, [r4, #184]	@, <variable>.AdvSeqSyntax.HdrLen
	mov	r0, r5	@, pBs
	bl	BsGet	@
	strb	r6, [r4, #16]	@ tmp214, <variable>.AdvSeqSyntax.PROFILE
	mov	r1, #3	@,
	mov	r0, r5	@, pBs
	bl	BsGet	@
	mov	r1, r6	@, tmp214
	strb	r0, [r4, #17]	@, <variable>.AdvSeqSyntax.LEVEL
	mov	r0, r5	@, pBs
	bl	BsGet	@
	mov	r1, #3	@,
	strb	r0, [r4, #18]	@, <variable>.AdvSeqSyntax.CHROMFORMAT
	mov	r0, r5	@, pBs
	bl	BsGet	@
	mov	r1, #5	@,
	strb	r0, [r4, #19]	@, <variable>.AdvSeqSyntax.FRMRTQ_POSTPROC
	mov	r0, r5	@, pBs
	bl	BsGet	@
	mov	r1, #1	@,
	strb	r0, [r4, #20]	@, <variable>.AdvSeqSyntax.BITRTQ_POSTPROC
	mov	r0, r5	@, pBs
	bl	BsGet	@
	mov	r1, #12	@,
	strb	r0, [r4, #21]	@, <variable>.AdvSeqSyntax.POSTPROCFLAG
	mov	r0, r5	@, pBs
	bl	BsGet	@
	mov	r1, #12	@,
	uxth	ip, r0	@ D.37772,
	mov	r0, r5	@, pBs
	add	r2, ip, #1	@ tmp222, D.37772,
	mov	r3, r2, asl #1	@ tmp224, tmp222,
	strh	r3, [r4, #172]	@ movhi	@ tmp224, <variable>.AdvSeqSyntax.MAX_CODED_WIDTH
	bl	BsGet	@
	mov	r1, #1	@,
	uxth	ip, r0	@ D.37778,
	mov	r0, r5	@, pBs
	add	r2, ip, r1	@ tmp226, D.37778,
	mov	r3, r2, asl r1	@ tmp228, tmp226,
	strh	r3, [r4, #174]	@ movhi	@ tmp228, <variable>.AdvSeqSyntax.MAX_CODED_HEIGHT
	bl	BsGet	@
	mov	r1, #1	@,
	strb	r0, [r4, #22]	@, <variable>.AdvSeqSyntax.PULLDOWN
	mov	r0, r5	@, pBs
	bl	BsGet	@
	mov	r1, #1	@,
	strb	r0, [r4, #23]	@, <variable>.AdvSeqSyntax.INTERLACE
	mov	r0, r5	@, pBs
	bl	BsGet	@
	mov	r1, #1	@,
	strb	r0, [r4, #24]	@, <variable>.AdvSeqSyntax.TFCNTRFLAG
	mov	r0, r5	@, pBs
	bl	BsGet	@
	mov	r1, r6	@, tmp214
	strb	r0, [r4, #25]	@, <variable>.AdvSeqSyntax.FINTERPFLAG
	mov	r0, r5	@, pBs
	bl	BsSkip	@
	mov	r0, r5	@, pBs
	mov	r1, #1	@,
	bl	BsGet	@
	uxtb	r6, r0	@ D.37793,
	strb	r6, [r4, #26]	@ D.37793, <variable>.AdvSeqSyntax.DISPLAY_EXT
	cmp	r6, #1	@ D.37793,
	beq	.L311	@,
	ldrh	r3, [r4, #172]	@, <variable>.AdvSeqSyntax.MAX_CODED_WIDTH
	ldrh	lr, [r4, #174]	@, <variable>.AdvSeqSyntax.MAX_CODED_HEIGHT
	strh	r3, [r4, #176]	@ movhi	@, <variable>.AdvSeqSyntax.DISP_HORIZ_SIZE
	strh	lr, [r4, #178]	@ movhi	@, <variable>.AdvSeqSyntax.DISP_VERT_SIZE
.L304:
	mov	r0, r5	@, pBs
	mov	r1, #1	@,
	bl	BsGet	@
	uxtb	r2, r0	@ D.37849,
	strb	r2, [r4, #39]	@ D.37849, <variable>.AdvSeqSyntax.HRD_PARAM_FLAG
	cmp	r2, #1	@ D.37849,
	beq	.L312	@,
.L305:
	mov	r0, r5	@, pBs
	bl	BsPos	@
	ldr	r1, [r4, #184]	@ <variable>.AdvSeqSyntax.HdrLen, <variable>.AdvSeqSyntax.HdrLen
	mov	r3, #1	@ D.37858,
	rsb	r2, r1, r0	@ tmp261, <variable>.AdvSeqSyntax.HdrLen,
	str	r2, [r4, #184]	@ tmp261, <variable>.AdvSeqSyntax.HdrLen
.L307:
	mov	r0, r3	@, D.37858
	ldmfd	sp, {r4, r5, r6, r7, fp, sp, pc}	@
.L312:
	mov	r1, #5	@,
	mov	r0, r5	@, pBs
	bl	BsGet	@
	uxtb	r1, r0	@ D.37854,
	strb	r1, [r4, #40]	@ D.37854, <variable>.AdvSeqSyntax.HRD_NUM_LEAKY_BUCKETS
	cmp	r1, #31	@ D.37854,
	movhi	r3, #0	@ D.37858,
	bhi	.L307	@,
	mov	r1, #4	@,
	mov	r0, r5	@, pBs
	bl	BsGet	@
	mov	r1, #4	@,
	strb	r0, [r4, #41]	@, <variable>.AdvSeqSyntax.BIT_RATE_EXPONENT
	mov	r0, r5	@, pBs
	bl	BsGet	@
	ldrb	ip, [r4, #40]	@ zero_extendqisi2	@ <variable>.AdvSeqSyntax.HRD_NUM_LEAKY_BUCKETS, <variable>.AdvSeqSyntax.HRD_NUM_LEAKY_BUCKETS
	cmp	ip, #0	@ <variable>.AdvSeqSyntax.HRD_NUM_LEAKY_BUCKETS,
	strb	r0, [r4, #42]	@, <variable>.AdvSeqSyntax.BUFFER_SIZE_EXPONENT
	beq	.L305	@,
	mov	r6, r4	@ ivtmp.1668, pSyntax
	mov	r7, #0	@ i,
.L308:
	mov	r1, #16	@,
	mov	r0, r5	@, pBs
	bl	BsGet	@
	mov	r1, #16	@,
	add	r7, r7, #1	@ i, i,
	strh	r0, [r6, #44]	@ movhi	@, <variable>.AdvSeqSyntax.HRD_RATE
	mov	r0, r5	@, pBs
	bl	BsGet	@
	ldrb	r3, [r4, #40]	@ zero_extendqisi2	@ <variable>.AdvSeqSyntax.HRD_NUM_LEAKY_BUCKETS, <variable>.AdvSeqSyntax.HRD_NUM_LEAKY_BUCKETS
	cmp	r3, r7	@ <variable>.AdvSeqSyntax.HRD_NUM_LEAKY_BUCKETS, i
	strh	r0, [r6, #108]	@ movhi	@, <variable>.AdvSeqSyntax.HRD_BUFFER
	add	r6, r6, #2	@ ivtmp.1668, ivtmp.1668,
	bgt	.L308	@,
	b	.L305	@
.L311:
	mov	r1, #14	@,
	mov	r0, r5	@, pBs
	bl	BsGet	@
	mov	r1, #14	@,
	add	r2, r0, #1	@ tmp235,,
	mov	r0, r5	@, pBs
	strh	r2, [r4, #176]	@ movhi	@ tmp235, <variable>.AdvSeqSyntax.DISP_HORIZ_SIZE
	bl	BsGet	@
	mov	r1, r6	@, D.37793
	add	r3, r0, #1	@ tmp237,,
	mov	r0, r5	@, pBs
	strh	r3, [r4, #178]	@ movhi	@ tmp237, <variable>.AdvSeqSyntax.DISP_VERT_SIZE
	bl	BsGet	@
	uxtb	r0, r0	@ D.37804,
	strb	r0, [r4, #27]	@ D.37804, <variable>.AdvSeqSyntax.ASPECT_RATIO_FLAG
	cmp	r0, #1	@ D.37804,
	beq	.L313	@,
.L301:
	mov	r1, #1	@,
	mov	r0, r5	@, pBs
	bl	BsGet	@
	uxtb	r1, r0	@ D.37818,
	strb	r1, [r4, #31]	@ D.37818, <variable>.AdvSeqSyntax.FRAMERATE_FLAG
	cmp	r1, #1	@ D.37818,
	beq	.L314	@,
.L302:
	mov	r0, r5	@, pBs
	mov	r1, #1	@,
	bl	BsGet	@
	uxtb	r0, r0	@ D.37835,
	strb	r0, [r4, #35]	@ D.37835, <variable>.AdvSeqSyntax.COLOR_FORMAT_FLAG
	cmp	r0, #1	@ D.37835,
	bne	.L304	@,
	mov	r1, #8	@,
	mov	r0, r5	@, pBs
	bl	BsGet	@
	mov	r1, #8	@,
	strb	r0, [r4, #36]	@, <variable>.AdvSeqSyntax.COLOR_PRIM
	mov	r0, r5	@, pBs
	bl	BsGet	@
	mov	r1, #8	@,
	strb	r0, [r4, #37]	@, <variable>.AdvSeqSyntax.TRANSFER_CHAR
	mov	r0, r5	@, pBs
	bl	BsGet	@
	strb	r0, [r4, #38]	@, <variable>.AdvSeqSyntax.MATRIX_COEF
	b	.L304	@
.L314:
	mov	r0, r5	@, pBs
	bl	BsGet	@
	uxtb	ip, r0	@ D.37823,
	strb	ip, [r4, #32]	@ D.37823, <variable>.AdvSeqSyntax.FRAMERATEIND
	cmp	ip, #0	@ D.37823,
	bne	.L303	@,
	mov	r1, #8	@,
	mov	r0, r5	@, pBs
	bl	BsGet	@
	mov	r1, #4	@,
	strb	r0, [r4, #33]	@, <variable>.AdvSeqSyntax.FRAMERATENR
	mov	r0, r5	@, pBs
	bl	BsGet	@
	strb	r0, [r4, #34]	@, <variable>.AdvSeqSyntax.FRAMERATEDR
	b	.L302	@
.L313:
	mov	r1, #4	@,
	mov	r0, r5	@, pBs
	bl	BsGet	@
	uxtb	r1, r0	@ D.37809,
	strb	r1, [r4, #28]	@ D.37809, <variable>.AdvSeqSyntax.ASPECT_RATIO
	cmp	r1, #15	@ D.37809,
	bne	.L301	@,
	mov	r1, #8	@,
	mov	r0, r5	@, pBs
	bl	BsGet	@
	mov	r1, #8	@,
	strb	r0, [r4, #29]	@, <variable>.AdvSeqSyntax.ASPECT_HORIZ_SIZE
	mov	r0, r5	@, pBs
	bl	BsGet	@
	strb	r0, [r4, #30]	@, <variable>.AdvSeqSyntax.ASPECT_VERT_SIZE
	b	.L301	@
.L303:
	mov	r0, r5	@, pBs
	mov	r1, #16	@,
	bl	BsGet	@
	strh	r0, [r4, #180]	@ movhi	@, <variable>.AdvSeqSyntax.FRAMERATEXP
	b	.L302	@
	.fnend
	.size	VC1_Vfmw_ParseAdvSeqHdr, .-VC1_Vfmw_ParseAdvSeqHdr
	.align	2
	.global	VC1_DecBfraction
	.type	VC1_DecBfraction, %function
VC1_DecBfraction:
	.fnstart
.LFB1391:
	@ args = 0, pretend = 0, frame = 224
	@ frame_needed = 1, uses_anonymous_args = 0
	.movsp ip
	mov	ip, sp	@,
	stmfd	sp!, {r4, r5, r6, r7, r8, r9, sl, fp, ip, lr, pc}	@,
	.pad #4
	.save {r4, r5, r6, r7, r8, r9, sl, fp, ip, lr}
	.setfp fp, ip, #-4
	sub	fp, ip, #4	@,,
	.pad #228
	sub	sp, sp, #228	@,,
	push	{lr}
	bl	__gnu_mcount_nc
	ldr	ip, .L320	@ tmp144,
	mov	r4, r0	@ pBs, pBs
	str	r1, [fp, #-248]	@ pScaleFactor, %sfp
	sub	r1, fp, #100	@,,
	str	r1, [fp, #-264]	@, %sfp
	mov	r6, ip	@ tmp182, tmp144
	sub	r5, fp, #72	@ tmp143,,
	ldmia	r6!, {r0, r1, r2, r3}	@ tmp182,,,,
	add	lr, ip, #28	@ tmp147, tmp144,
	add	r8, ip, #56	@ tmp150, tmp144,
	sub	sl, fp, #188	@ tmp149,,
	sub	r7, fp, #244	@,,
	str	r7, [fp, #-256]	@, %sfp
	sub	r7, fp, #132	@,,
	str	r7, [fp, #-260]	@, %sfp
	stmia	r5!, {r0, r1, r2, r3}	@ tmp143,,,,
	add	r9, ip, #112	@ tmp153, tmp144,
	ldmia	r6, {r0, r1, r2}	@ tmp182,,,
	add	ip, ip, #168	@ tmp156, tmp144,
	stmia	r5, {r0, r1, r2}	@ tmp183,,,
	ldr	r5, [fp, #-264]	@, %sfp
	ldmia	lr!, {r0, r1, r2, r3}	@ tmp184,,,,
	stmia	r5!, {r0, r1, r2, r3}	@,,,,
	ldmia	lr, {r0, r1, r2}	@ tmp184,,,
	stmia	r5, {r0, r1, r2}	@ tmp185,,,
	mov	r5, sl	@ tmp187, tmp149
	ldmia	r8!, {r0, r1, r2, r3}	@ tmp186,,,,
	stmia	r5!, {r0, r1, r2, r3}	@ tmp187,,,,
	mov	lr, r5	@ tmp189, tmp187
	ldmia	r8!, {r0, r1, r2, r3}	@ tmp188,,,,
	ldr	r5, [fp, #-256]	@ tmp193, %sfp
	stmia	lr!, {r0, r1, r2, r3}	@ tmp189,,,,
	ldmia	r8!, {r0, r1, r2, r3}	@ tmp190,,,,
	stmia	lr!, {r0, r1, r2, r3}	@ tmp189,,,,
	ldmia	r8, {r0, r1}	@ tmp190,,
	stmia	lr, {r0, r1}	@ tmp191,,
	ldmia	r9!, {r0, r1, r2, r3}	@ tmp192,,,,
	stmia	r5!, {r0, r1, r2, r3}	@ tmp193,,,,
	mov	lr, r5	@ tmp195, tmp193
	ldmia	r9!, {r0, r1, r2, r3}	@ tmp194,,,,
	stmia	lr!, {r0, r1, r2, r3}	@ tmp195,,,,
	ldmia	r9!, {r0, r1, r2, r3}	@ tmp196,,,,
	stmia	lr!, {r0, r1, r2, r3}	@ tmp195,,,,
	ldmia	r9, {r0, r1}	@ tmp196,,
	stmia	lr, {r0, r1}	@ tmp197,,
	mov	lr, r7	@ tmp199,
	ldmia	ip!, {r0, r1, r2, r3}	@ tmp198,,,,
	stmia	lr!, {r0, r1, r2, r3}	@ tmp199,,,,
	ldmia	ip, {r0, r1, r2, r3}	@ tmp198,,,,
	stmia	lr, {r0, r1, r2, r3}	@ tmp199,,,,
	mov	r0, r4	@, pBs
	mov	r1, #3	@,
	bl	BsShow	@
	cmp	r0, #6	@ Code,
	mov	r5, r0	@ Code,
	ble	.L319	@,
	mov	r0, r4	@, pBs
	mov	r1, #7	@,
	bl	BsGet	@
	sub	ip, fp, #44	@,,
	sub	r3, r0, #112	@ D.37326, Code.1695,
	and	r7, r0, #15	@ tmp165, Code.1695,
	add	r0, r7, #7	@ BfracIdx, tmp165,
	add	r5, ip, r3, asl #2	@, tmp168,, D.37326,
	ldr	r3, [r5, #-200]	@ Denominator, DenLongVLC
	ldr	r2, [r5, #-144]	@ Numerator, NumLongVLC
.L317:
	sub	r5, fp, #44	@,,
	ldr	r7, [fp, #-248]	@, %sfp
	add	r3, r5, r3, asl #2	@, tmp177,, Denominator,
	ldr	r1, [r3, #-92]	@ tmp179, Inverse
	mul	lr, r2, r1	@ tmp180, Numerator, tmp179
	str	lr, [r7, #0]	@ tmp180,
	sub	sp, fp, #40
	ldmfd	sp, {r4, r5, r6, r7, r8, r9, sl, fp, sp, pc}
.L319:
	mov	r0, r4	@, pBs
	mov	r1, #3	@,
	bl	BsSkip	@
	sub	r0, fp, #44	@,,
	add	r2, r0, r5, asl #2	@, tmp159,, Code,
	mov	r0, r5	@ BfracIdx, Code
	ldr	r3, [r2, #-56]	@ Denominator, DenShortVLC
	ldr	r2, [r2, #-28]	@ Numerator, NumShortVLC
	b	.L317	@
.L321:
	.align	2
.L320:
	.word	.LANCHOR0+348
	.fnend
	.size	VC1_DecBfraction, .-VC1_DecBfraction
	.align	2
	.global	VC1_DecBfractionSMP
	.type	VC1_DecBfractionSMP, %function
VC1_DecBfractionSMP:
	.fnstart
.LFB1390:
	@ args = 0, pretend = 0, frame = 224
	@ frame_needed = 1, uses_anonymous_args = 0
	.movsp ip
	mov	ip, sp	@,
	stmfd	sp!, {r4, r5, r6, r7, r8, r9, sl, fp, ip, lr, pc}	@,
	.pad #4
	.save {r4, r5, r6, r7, r8, r9, sl, fp, ip, lr}
	.setfp fp, ip, #-4
	sub	fp, ip, #4	@,,
	.pad #228
	sub	sp, sp, #228	@,,
	push	{lr}
	bl	__gnu_mcount_nc
	ldr	ip, .L329	@ tmp146,
	mov	r4, r0	@ pBs, pBs
	str	r1, [fp, #-248]	@ pScaleFactor, %sfp
	str	r2, [fp, #-252]	@ pPTYPE, %sfp
	sub	r5, fp, #72	@ tmp145,,
	mov	r6, ip	@ tmp185, tmp146
	add	lr, ip, #28	@ tmp149, tmp146,
	ldmia	r6!, {r0, r1, r2, r3}	@ tmp185,,,,
	sub	r8, fp, #100	@,,
	str	r8, [fp, #-264]	@, %sfp
	add	r8, ip, #56	@ tmp152, tmp146,
	sub	r7, fp, #244	@,,
	str	r7, [fp, #-256]	@, %sfp
	sub	r7, fp, #132	@,,
	str	r7, [fp, #-260]	@, %sfp
	stmia	r5!, {r0, r1, r2, r3}	@ tmp145,,,,
	sub	sl, fp, #188	@ tmp151,,
	ldmia	r6, {r0, r1, r2}	@ tmp185,,,
	add	r9, ip, #112	@ tmp155, tmp146,
	add	ip, ip, #168	@ tmp158, tmp146,
	stmia	r5, {r0, r1, r2}	@ tmp186,,,
	ldr	r5, [fp, #-264]	@, %sfp
	ldmia	lr!, {r0, r1, r2, r3}	@ tmp187,,,,
	stmia	r5!, {r0, r1, r2, r3}	@,,,,
	ldmia	lr, {r0, r1, r2}	@ tmp187,,,
	stmia	r5, {r0, r1, r2}	@ tmp188,,,
	mov	r5, sl	@ tmp190, tmp151
	ldmia	r8!, {r0, r1, r2, r3}	@ tmp189,,,,
	stmia	r5!, {r0, r1, r2, r3}	@ tmp190,,,,
	mov	lr, r5	@ tmp192, tmp190
	ldmia	r8!, {r0, r1, r2, r3}	@ tmp191,,,,
	ldr	r5, [fp, #-256]	@ tmp196, %sfp
	stmia	lr!, {r0, r1, r2, r3}	@ tmp192,,,,
	ldmia	r8!, {r0, r1, r2, r3}	@ tmp193,,,,
	stmia	lr!, {r0, r1, r2, r3}	@ tmp192,,,,
	ldmia	r8, {r0, r1}	@ tmp193,,
	stmia	lr, {r0, r1}	@ tmp194,,
	ldmia	r9!, {r0, r1, r2, r3}	@ tmp195,,,,
	stmia	r5!, {r0, r1, r2, r3}	@ tmp196,,,,
	mov	lr, r5	@ tmp198, tmp196
	ldmia	r9!, {r0, r1, r2, r3}	@ tmp197,,,,
	stmia	lr!, {r0, r1, r2, r3}	@ tmp198,,,,
	ldmia	r9!, {r0, r1, r2, r3}	@ tmp199,,,,
	stmia	lr!, {r0, r1, r2, r3}	@ tmp198,,,,
	ldmia	r9, {r0, r1}	@ tmp199,,
	stmia	lr, {r0, r1}	@ tmp200,,
	mov	lr, r7	@ tmp202,
	ldmia	ip!, {r0, r1, r2, r3}	@ tmp201,,,,
	stmia	lr!, {r0, r1, r2, r3}	@ tmp202,,,,
	ldmia	ip, {r0, r1, r2, r3}	@ tmp201,,,,
	stmia	lr, {r0, r1, r2, r3}	@ tmp202,,,,
	mov	r0, r4	@, pBs
	mov	r1, #3	@,
	bl	BsShow	@
	cmp	r0, #6	@ Code,
	mov	r5, r0	@ Code,
	bgt	.L323	@,
	mov	r1, #3	@,
	mov	r0, r4	@, pBs
	bl	BsSkip	@
	sub	r0, fp, #44	@,,
	add	r1, r0, r5, asl #2	@, tmp161,, Code,
	mov	r0, r5	@ BfracIdx, Code
	ldr	r3, [r1, #-56]	@ Denominator, DenShortVLC
	ldr	r2, [r1, #-28]	@ Numerator, NumShortVLC
.L324:
	sub	r5, fp, #44	@,,
	add	lr, r5, r3, asl #2	@, tmp180,, Denominator,
	ldr	r7, [lr, #-92]	@ tmp182, Inverse
	mul	r1, r2, r7	@ tmp183, Numerator, tmp182
	ldr	r7, [fp, #-248]	@, %sfp
	str	r1, [r7, #0]	@ tmp183,
.L326:
	sub	sp, fp, #40
	ldmfd	sp, {r4, r5, r6, r7, r8, r9, sl, fp, sp, pc}
.L323:
	mov	r0, r4	@, pBs
	mov	r1, #7	@,
	bl	BsGet	@
	and	r5, r0, #15	@ D.37293, Code.1720,
	cmp	r5, #15	@ D.37293,
	beq	.L328	@,
	sub	ip, r0, #112	@ D.37297, Code.1720,
	sub	r3, fp, #44	@,,
	add	r0, r5, #7	@ BfracIdx, D.37293,
	add	r5, r3, ip, asl #2	@, tmp171,, D.37297,
	ldr	r3, [r5, #-200]	@ Denominator, DenLongVLC
	ldr	r2, [r5, #-144]	@ Numerator, NumLongVLC
	b	.L324	@
.L328:
	ldr	r2, [fp, #-252]	@, %sfp
	mov	lr, #4	@ tmp167,
	mov	r0, #22	@ BfracIdx,
	strb	lr, [r2, #0]	@ tmp167,
	b	.L326	@
.L330:
	.align	2
.L329:
	.word	.LANCHOR0+548
	.fnend
	.size	VC1_DecBfractionSMP, .-VC1_DecBfractionSMP
	.align	2
	.global	VC1_DecMvmode2
	.type	VC1_DecMvmode2, %function
VC1_DecMvmode2:
	.fnstart
.LFB1389:
	@ args = 0, pretend = 0, frame = 32
	@ frame_needed = 1, uses_anonymous_args = 0
	.movsp ip
	mov	ip, sp	@,
	stmfd	sp!, {r4, r5, r6, r7, fp, ip, lr, pc}	@,
	.pad #4
	.save {r4, r5, r6, r7, fp, ip, lr}
	.setfp fp, ip, #-4
	sub	fp, ip, #4	@,,
	.pad #32
	sub	sp, sp, #32	@,,
	push	{lr}
	bl	__gnu_mcount_nc
	mov	r7, r1	@ PQUANT, PQUANT
	mov	r1, #3	@,
	mov	r4, r0	@ pBs, pBs
	bl	BsShow	@
	ldr	r3, .L340	@ tmp142,
	sub	r5, fp, #44	@ tmp141,,
	sub	ip, fp, #60	@ tmp144,,
	add	lr, r3, #16	@ tmp145, tmp142,
	mov	r6, r0	@ Tmp,
	cmp	r0, #1	@ Tmp,
	ldmia	r3, {r0, r1, r2, r3}	@ tmp142,,,,
	stmia	r5, {r0, r1, r2, r3}	@ tmp141,,,,
	ldmia	lr, {r0, r1, r2, r3}	@ tmp145,,,,
	stmia	ip, {r0, r1, r2, r3}	@ tmp144,,,,
	ble	.L339	@,
	cmp	r6, #4	@ Tmp,
	movge	r5, #0	@, Code
	movlt	r5, #1	@, Code
	movlt	r1, #2	@, Len,
	movge	r1, #1	@, Len,
.L334:
	mov	r0, r4	@, pBs
	bl	BsSkip	@
	sub	r1, fp, #28	@,,
	cmp	r7, #12	@ PQUANT,
	add	r5, r1, r5, asl #2	@, tmp148,, Code,
	ldrhi	r0, [r5, #-16]	@ Code.1744, ModeLow
	ldrls	r0, [r5, #-32]	@ Code.1744, ModeHigh
	sub	sp, fp, #28
	ldmfd	sp, {r4, r5, r6, r7, fp, sp, pc}
.L339:
	cmp	r6, #0	@ Tmp,
	mov	r1, #3	@ Len,
	moveq	r5, r1	@ Code, Len
	movne	r5, #2	@ Code,
	b	.L334	@
.L341:
	.align	2
.L340:
	.word	.LANCHOR0+748
	.fnend
	.size	VC1_DecMvmode2, .-VC1_DecMvmode2
	.align	2
	.global	VC1_DecMvmodeInterB
	.type	VC1_DecMvmodeInterB, %function
VC1_DecMvmodeInterB:
	.fnstart
.LFB1388:
	@ args = 0, pretend = 0, frame = 40
	@ frame_needed = 1, uses_anonymous_args = 0
	.movsp ip
	mov	ip, sp	@,
	stmfd	sp!, {r4, r5, r6, fp, ip, lr, pc}	@,
	.pad #4
	.save {r4, r5, r6, fp, ip, lr}
	.setfp fp, ip, #-4
	sub	fp, ip, #4	@,,
	.pad #44
	sub	sp, sp, #44	@,,
	push	{lr}
	bl	__gnu_mcount_nc
	mov	r4, r1	@ PQUANT, PQUANT
	mov	r1, #3	@,
	mov	r5, r0	@ pBs, pBs
	bl	BsShow	@
	ldr	r3, .L352	@ tmp142,
	sub	ip, fp, #44	@ tmp141,,
	mov	lr, r0	@ Tmp,
	cmp	r0, #1	@ Tmp,
	ldmia	r3, {r0, r1, r2, r3}	@ tmp142,,,,
	stmia	ip, {r0, r1, r2, r3}	@ tmp141,,,,
	ble	.L350	@,
	cmp	lr, #4	@ Tmp,
	movge	r6, #0	@, Code
	movlt	r6, #1	@, Code
	movlt	r1, #2	@, Len,
	movge	r1, #1	@, Len,
.L345:
	mov	r0, r5	@, pBs
	bl	BsSkip	@
	cmp	r4, #12	@ PQUANT,
	bhi	.L351	@,
	sub	r3, fp, #60	@ tmp162,,
	sub	r0, fp, #28	@,,
	add	r6, r0, r6, asl #2	@, tmp158,, Code,
	mov	lr, #0	@ tmp148,
	str	lr, [r3], #4	@ tmp148, ModeHigh
	add	ip, r3, #8	@ tmp164, tmp162,
	mov	r0, #3	@ tmp155,
	mov	r2, #1	@ tmp153,
	str	lr, [ip, #0]	@ tmp148, ModeHigh
	mov	r1, #2	@ tmp154,
	str	r2, [fp, #-64]	@ tmp153, ModeHigh
	str	r1, [fp, #-56]	@ tmp154, ModeHigh
	str	r0, [fp, #-52]	@ tmp155, ModeHigh
	ldr	r0, [r6, #-36]	@ Code.1768, ModeHigh
.L348:
	sub	sp, fp, #24
	ldmfd	sp, {r4, r5, r6, fp, sp, pc}
.L351:
	sub	r2, fp, #28	@,,
	add	r6, r2, r6, asl #2	@, tmp145,, Code,
	ldr	r0, [r6, #-16]	@ Code.1768, ModeLow
	b	.L348	@
.L350:
	cmp	lr, #0	@ Tmp,
	mov	r1, #3	@ Len,
	moveq	r6, r1	@ Code, Len
	movne	r6, #2	@ Code,
	b	.L345	@
.L353:
	.align	2
.L352:
	.word	.LANCHOR0+780
	.fnend
	.size	VC1_DecMvmodeInterB, .-VC1_DecMvmodeInterB
	.align	2
	.global	VC1_DecMvmodeProgrB
	.type	VC1_DecMvmodeProgrB, %function
VC1_DecMvmodeProgrB:
	.fnstart
.LFB1387:
	@ args = 0, pretend = 0, frame = 8
	@ frame_needed = 1, uses_anonymous_args = 0
	.movsp ip
	mov	ip, sp	@,
	stmfd	sp!, {fp, ip, lr, pc}	@,
	.pad #4
	.save {fp, ip, lr}
	.setfp fp, ip, #-4
	sub	fp, ip, #4	@,,
	.pad #8
	sub	sp, sp, #8	@,,
	push	{lr}
	bl	__gnu_mcount_nc
	mov	r1, #1	@,
	bl	BsSkip	@
	ldr	r1, .L356	@ tmp139,
	sub	ip, fp, #12	@,,
	sub	r3, fp, #20	@ tmp138,,
	add	r2, ip, r0, asl #2	@, tmp143,, Tmp,
	ldmia	r1, {r0, r1}	@ tmp139,,
	stmia	r3, {r0, r1}	@ tmp138,,
	ldr	r0, [r2, #-8]	@, Mode
	sub	sp, fp, #12
	ldmfd	sp, {fp, sp, pc}
.L357:
	.align	2
.L356:
	.word	.LANCHOR0+796
	.fnend
	.size	VC1_DecMvmodeProgrB, .-VC1_DecMvmodeProgrB
	.align	2
	.global	VC1_DecMvmodeProgrP
	.type	VC1_DecMvmodeProgrP, %function
VC1_DecMvmodeProgrP:
	.fnstart
.LFB1386:
	@ args = 0, pretend = 0, frame = 40
	@ frame_needed = 1, uses_anonymous_args = 0
	.movsp ip
	mov	ip, sp	@,
	stmfd	sp!, {r4, r5, r6, r7, r8, sl, fp, ip, lr, pc}	@,
	.pad #4
	.save {r4, r5, r6, r7, r8, sl, fp, ip, lr}
	.setfp fp, ip, #-4
	sub	fp, ip, #4	@,,
	.pad #40
	sub	sp, sp, #40	@,,
	push	{lr}
	bl	__gnu_mcount_nc
	mov	sl, r1	@ PQUANT, PQUANT
	mov	r1, #4	@,
	mov	r8, r0	@ pBs, pBs
	bl	BsShow	@
	ldr	r6, .L368	@ tmp142,
	sub	lr, fp, #56	@ tmp141,,
	sub	r7, fp, #76	@ tmp145,,
	add	ip, r6, #20	@ tmp146, tmp142,
	mov	r5, lr	@ tmp158, tmp141
	mov	r4, r0	@ Tmp,
	cmp	r0, #1	@ Tmp,
	ldmia	r6!, {r0, r1, r2, r3}	@ tmp157,,,,
	stmia	r5!, {r0, r1, r2, r3}	@ tmp158,,,,
	ldr	lr, [r6, #0]	@ C.487, C.487
	ldmia	ip!, {r0, r1, r2, r3}	@ tmp159,,,,
	str	lr, [r5, #0]	@ C.487, ModeLow
	ldr	ip, [ip, #0]	@ C.488, C.488
	stmia	r7!, {r0, r1, r2, r3}	@ tmp145,,,,
	str	ip, [r7, #0]	@ C.488, ModeHigh
	ble	.L367	@,
	cmp	r4, #3	@ Tmp,
	movle	r1, #3	@ Len,
	movle	r4, #2	@ Code,
	ble	.L361	@,
	cmp	r4, #8	@ Tmp,
	movge	r4, #0	@, Code
	movlt	r4, #1	@, Code
	movlt	r1, #2	@, Len,
	movge	r1, #1	@, Len,
.L361:
	mov	r0, r8	@, pBs
	bl	BsSkip	@
	sub	r1, fp, #36	@,,
	cmp	sl, #12	@ PQUANT,
	add	r4, r1, r4, asl #2	@, tmp150,, Code,
	ldrhi	r0, [r4, #-20]	@ Code.1815, ModeLow
	ldrls	r0, [r4, #-40]	@ Code.1815, ModeHigh
	sub	sp, fp, #36
	ldmfd	sp, {r4, r5, r6, r7, r8, sl, fp, sp, pc}
.L367:
	cmp	r4, #0	@ Tmp,
	mov	r1, #4	@ Len,
	moveq	r4, #3	@ Code,
	movne	r4, r1	@ Code, Len
	b	.L361	@
.L369:
	.align	2
.L368:
	.word	.LANCHOR0+804
	.fnend
	.size	VC1_DecMvmodeProgrP, .-VC1_DecMvmodeProgrP
	.align	2
	.global	VC1_DecTransacfrm
	.type	VC1_DecTransacfrm, %function
VC1_DecTransacfrm:
	.fnstart
.LFB1384:
	@ args = 0, pretend = 0, frame = 64
	@ frame_needed = 1, uses_anonymous_args = 0
	.movsp ip
	mov	ip, sp	@,
	stmfd	sp!, {r4, fp, ip, lr, pc}	@,
	.pad #4
	.save {r4, fp, ip, lr}
	.setfp fp, ip, #-4
	sub	fp, ip, #4	@,,
	.pad #68
	sub	sp, sp, #68	@,,
	push	{lr}
	bl	__gnu_mcount_nc
	mov	r2, #64	@,
	mov	r4, r0	@ pBs, pBs
	mov	r1, #0	@,
	sub	r0, fp, #84	@,,
	bl	memset	@
	mov	ip, #2	@ tmp143,
	mov	r1, ip	@, tmp143
	mov	r0, r4	@, pBs
	mov	r3, #1	@ tmp140,
	str	ip, [fp, #-64]	@ tmp143, <variable>.Len
	str	r3, [fp, #-68]	@ tmp140, <variable>.Code
	str	r3, [fp, #-80]	@ tmp140, <variable>.Len
	str	r3, [fp, #-72]	@ tmp140, <variable>.Len
	str	ip, [fp, #-60]	@ tmp143, <variable>.Code
	str	ip, [fp, #-56]	@ tmp143, <variable>.Len
	bl	BsShow	@
	sub	r2, fp, #20	@,,
	add	r3, r2, r0, asl #3	@, tmp148,,,
	mov	r0, r4	@, pBs
	ldr	r4, [r3, #-64]	@ Code, <variable>.Code
	ldr	r1, [r3, #-60]	@, <variable>.Len
	bl	BsSkip	@
	mov	r0, r4	@, Code
	sub	sp, fp, #16
	ldmfd	sp, {r4, fp, sp, pc}
	.fnend
	.size	VC1_DecTransacfrm, .-VC1_DecTransacfrm
	.align	2
	.global	VC1_DecMvrange
	.type	VC1_DecMvrange, %function
VC1_DecMvrange:
	.fnstart
.LFB1383:
	@ args = 0, pretend = 0, frame = 64
	@ frame_needed = 1, uses_anonymous_args = 0
	.movsp ip
	mov	ip, sp	@,
	stmfd	sp!, {r4, r5, fp, ip, lr, pc}	@,
	.pad #4
	.save {r4, r5, fp, ip, lr}
	.setfp fp, ip, #-4
	sub	fp, ip, #4	@,,
	.pad #64
	sub	sp, sp, #64	@,,
	push	{lr}
	bl	__gnu_mcount_nc
	ldr	lr, .L374	@ tmp139,
	mov	r4, r0	@ pBs, pBs
	sub	ip, fp, #84	@ tmp138,,
	ldmia	lr!, {r0, r1, r2, r3}	@ tmp150,,,,
	mov	r5, ip	@ tmp151, tmp138
	stmia	r5!, {r0, r1, r2, r3}	@ tmp151,,,,
	mov	ip, r5	@ tmp153, tmp151
	ldmia	lr!, {r0, r1, r2, r3}	@ tmp152,,,,
	stmia	ip!, {r0, r1, r2, r3}	@ tmp153,,,,
	mov	r5, ip	@ tmp155, tmp153
	ldmia	lr!, {r0, r1, r2, r3}	@ tmp154,,,,
	stmia	r5!, {r0, r1, r2, r3}	@ tmp155,,,,
	ldmia	lr, {r0, r1, r2, r3}	@ tmp154,,,,
	stmia	r5, {r0, r1, r2, r3}	@ tmp155,,,,
	mov	r1, #3	@,
	mov	r0, r4	@, pBs
	bl	BsShow	@
	sub	r2, fp, #20	@,,
	add	r3, r2, r0, asl #3	@, tmp142,,,
	mov	r0, r4	@, pBs
	ldr	r4, [r3, #-64]	@ Code, <variable>.Code
	ldr	r1, [r3, #-60]	@, <variable>.Len
	bl	BsSkip	@
	mov	r0, r4	@, Code
	sub	sp, fp, #20
	ldmfd	sp, {r4, r5, fp, sp, pc}
.L375:
	.align	2
.L374:
	.word	.LANCHOR0+844
	.fnend
	.size	VC1_DecMvrange, .-VC1_DecMvrange
	.align	2
	.global	VC1_Vfmw_ParseAdvPFieldHdr
	.type	VC1_Vfmw_ParseAdvPFieldHdr, %function
VC1_Vfmw_ParseAdvPFieldHdr:
	.fnstart
.LFB1409:
	@ args = 0, pretend = 0, frame = 0
	@ frame_needed = 1, uses_anonymous_args = 0
	.movsp ip
	mov	ip, sp	@,
	stmfd	sp!, {r4, r5, r6, r7, fp, ip, lr, pc}	@,
	.pad #4
	.save {r4, r5, r6, r7, fp, ip, lr}
	.setfp fp, ip, #-4
	sub	fp, ip, #4	@,,
	push	{lr}
	bl	__gnu_mcount_nc
	mov	r1, #5	@,
	mov	r4, r2	@ pSyntax, pSyntax
	mov	r5, r0	@ pBs, pBs
	bl	BsGet	@
	uxtb	r6, r0	@ D.38475,
	strb	r6, [r4, #358]	@ D.38475, <variable>.AdvPicSyntax.PQINDEX
	cmp	r6, #0	@ D.38475,
	bne	.L395	@,
	mov	r0, r6	@, D.38479
	ldmfd	sp, {r4, r5, r6, r7, fp, sp, pc}	@
.L395:
	ldrb	r7, [r4, #198]	@ zero_extendqisi2	@ <variable>.AdvEntSyntax.QUANTIZER, <variable>.AdvEntSyntax.QUANTIZER
	mov	r1, r6	@, D.38475
	mov	r0, r7	@, <variable>.AdvEntSyntax.QUANTIZER
	bl	VC1_Vfmw_DecPQUANT	@
	cmp	r6, #8	@ D.38475,
	movhi	r3, #0	@ tmp172,
	str	r0, [r4, #464]	@, <variable>.AdvPicSyntax.PQUANT
	strhib	r3, [r4, #351]	@ tmp172, <variable>.AdvPicSyntax.HALFQP
	bls	.L396	@,
.L380:
	cmp	r7, #1	@ <variable>.AdvEntSyntax.QUANTIZER,
	movne	r3, #0	@ tmp176,
	strneb	r3, [r4, #359]	@ tmp176, <variable>.AdvPicSyntax.PQUANTIZER
	beq	.L397	@,
.L382:
	ldrb	r3, [r4, #21]	@ zero_extendqisi2	@ <variable>.AdvSeqSyntax.POSTPROCFLAG, <variable>.AdvSeqSyntax.POSTPROCFLAG
	cmp	r3, #1	@ <variable>.AdvSeqSyntax.POSTPROCFLAG,
	beq	.L398	@,
.L383:
	mov	r0, r5	@, pBs
	mov	r1, #1	@,
	bl	BsGet	@
	uxtb	r0, r0	@ D.38500,
	strb	r0, [r4, #380]	@ D.38500, <variable>.AdvPicSyntax.NUMREF
	cmp	r0, #0	@ D.38500,
	beq	.L399	@,
.L384:
	ldrb	r2, [r4, #194]	@ zero_extendqisi2	@ <variable>.AdvEntSyntax.EXTENDED_MV, <variable>.AdvEntSyntax.EXTENDED_MV
	cmp	r2, #1	@ <variable>.AdvEntSyntax.EXTENDED_MV,
	beq	.L400	@,
.L385:
	ldrb	r6, [r4, #200]	@ zero_extendqisi2	@ <variable>.AdvEntSyntax.EXTENDED_DMV, <variable>.AdvEntSyntax.EXTENDED_DMV
	cmp	r6, #1	@ <variable>.AdvEntSyntax.EXTENDED_DMV,
	beq	.L401	@,
.L386:
	mov	r0, r5	@, pBs
	ldrb	r1, [r4, #464]	@ zero_extendqisi2	@, <variable>.AdvPicSyntax.PQUANT
	bl	VC1_DecMvmodeProgrP	@
	uxtb	ip, r0	@ D.38519,
	strb	ip, [r4, #362]	@ D.38519, <variable>.AdvPicSyntax.MVMODE
	cmp	ip, #4	@ D.38519,
	beq	.L402	@,
.L387:
	mov	r1, #3	@,
	mov	r0, r5	@, pBs
	bl	BsGet	@
	ldrb	r2, [r4, #380]	@ zero_extendqisi2	@ <variable>.AdvPicSyntax.NUMREF, <variable>.AdvPicSyntax.NUMREF
	cmp	r2, #0	@ <variable>.AdvPicSyntax.NUMREF,
	moveq	r1, #2	@,
	movne	r1, #3	@,
	strb	r0, [r4, #375]	@, <variable>.AdvPicSyntax.MBMODETAB
	mov	r0, r5	@, pBs
	bl	BsGet	@
	mov	r1, #3	@,
	uxtb	r0, r0	@ iftmp.550,
	strb	r0, [r4, #366]	@ iftmp.550, <variable>.AdvPicSyntax.MVTAB
	mov	r0, r5	@, pBs
	bl	BsGet	@
	ldrb	r1, [r4, #362]	@ zero_extendqisi2	@ <variable>.AdvPicSyntax.MVMODE, <variable>.AdvPicSyntax.MVMODE
	cmp	r1, #0	@ <variable>.AdvPicSyntax.MVMODE,
	strb	r0, [r4, #367]	@, <variable>.AdvPicSyntax.CBPTAB
	beq	.L390	@,
	movw	r6, #362	@ tmp201,
	ldrh	lr, [r4, r6]	@ tmp202,
	cmp	lr, #4	@ tmp202,
	beq	.L390	@,
	ldrb	r1, [r4, #195]	@ zero_extendqisi2	@ D.38552, <variable>.AdvEntSyntax.DQUANT
	cmp	r1, #0	@ D.38552,
	bne	.L403	@,
.L392:
	ldrb	r1, [r4, #196]	@ zero_extendqisi2	@ <variable>.AdvEntSyntax.VSTRANSFORM, <variable>.AdvEntSyntax.VSTRANSFORM
	cmp	r1, #1	@ <variable>.AdvEntSyntax.VSTRANSFORM,
	beq	.L404	@,
.L393:
	mov	r0, r5	@, pBs
	mov	r6, #1	@ D.38479,
	bl	VC1_DecTransacfrm	@
	mov	r1, #1	@,
	strb	r0, [r4, #370]	@, <variable>.AdvPicSyntax.TRANSACFRM
	mov	r0, r5	@, pBs
	bl	BsGet	@
	strb	r0, [r4, #372]	@, <variable>.AdvPicSyntax.TRANSDCTAB
	mov	r0, r6	@, D.38479
	ldmfd	sp, {r4, r5, r6, r7, fp, sp, pc}	@
.L390:
	mov	r1, #2	@,
	mov	r0, r5	@, pBs
	bl	BsGet	@
	ldrb	r1, [r4, #195]	@ zero_extendqisi2	@ D.38552, <variable>.AdvEntSyntax.DQUANT
	cmp	r1, #0	@ D.38552,
	strb	r0, [r4, #377]	@, <variable>.AdvPicSyntax.QMVBPTAB
	beq	.L392	@,
.L403:
	mov	r0, r5	@, pBs
	ldrb	r2, [r4, #464]	@ zero_extendqisi2	@, <variable>.AdvPicSyntax.PQUANT
	add	r3, r4, #508	@, pSyntax,
	bl	VC1_VopDQuant	@
	b	.L392	@
.L399:
	mov	r1, #1	@,
	mov	r0, r5	@, pBs
	bl	BsGet	@
	rsbs	r1, r0, #1	@ tmp181,
	movcc	r1, #0	@ tmp181
	strb	r1, [r4, #381]	@ tmp181, <variable>.AdvPicSyntax.REFFIELD
	b	.L384	@
.L396:
	mov	r0, r5	@, pBs
	mov	r1, #1	@,
	bl	BsGet	@
	ldrb	r7, [r4, #198]	@ zero_extendqisi2	@ <variable>.AdvEntSyntax.QUANTIZER, <variable>.AdvEntSyntax.QUANTIZER
	strb	r0, [r4, #351]	@, <variable>.AdvPicSyntax.HALFQP
	b	.L380	@
.L397:
	mov	r1, r7	@, <variable>.AdvEntSyntax.QUANTIZER
	mov	r0, r5	@, pBs
	bl	BsGet	@
	strb	r0, [r4, #359]	@, <variable>.AdvPicSyntax.PQUANTIZER
	b	.L382	@
.L404:
	mov	r0, r5	@, pBs
	bl	BsGet	@
	uxtb	ip, r0	@ D.38560,
	strb	ip, [r4, #368]	@ D.38560, <variable>.AdvPicSyntax.TTMBF
	cmp	ip, #1	@ D.38560,
	bne	.L393	@,
	mov	r0, r5	@, pBs
	mov	r1, #2	@,
	bl	BsGet	@
	strb	r0, [r4, #369]	@, <variable>.AdvPicSyntax.TTFRM
	b	.L393	@
.L402:
	ldrb	r1, [r4, #464]	@ zero_extendqisi2	@, <variable>.AdvPicSyntax.PQUANT
	mov	r0, r5	@, pBs
	bl	VC1_DecMvmode2	@
	strb	r0, [r4, #363]	@, <variable>.AdvPicSyntax.MVMODE2
	mov	r0, r5	@, pBs
	bl	VC1_DecIntCompField	@
	mov	r1, #6	@,
	str	r0, [r4, #476]	@, <variable>.AdvPicSyntax.INTCOMPFIELD
	mov	r0, r5	@, pBs
	bl	BsGet	@
	mov	r1, #6	@,
	strb	r0, [r4, #364]	@, <variable>.AdvPicSyntax.LUMSCALE
	mov	r0, r5	@, pBs
	bl	BsGet	@
	ldr	r3, [r4, #476]	@ <variable>.AdvPicSyntax.INTCOMPFIELD, <variable>.AdvPicSyntax.INTCOMPFIELD
	cmp	r3, #0	@ <variable>.AdvPicSyntax.INTCOMPFIELD,
	strb	r0, [r4, #365]	@, <variable>.AdvPicSyntax.LUMSHIFT
	bne	.L387	@,
	mov	r1, #6	@,
	mov	r0, r5	@, pBs
	bl	BsGet	@
	mov	r1, #6	@,
	str	r0, [r4, #480]	@, <variable>.AdvPicSyntax.LUMSCALE2
	mov	r0, r5	@, pBs
	bl	BsGet	@
	str	r0, [r4, #484]	@, <variable>.AdvPicSyntax.LUMSHIFT2
	b	.L387	@
.L398:
	mov	r0, r5	@, pBs
	mov	r1, #2	@,
	bl	BsGet	@
	strb	r0, [r4, #360]	@, <variable>.AdvPicSyntax.POSTPROC
	b	.L383	@
.L401:
	mov	r0, r5	@, pBs
	bl	VC1_DecMvrange	@
	strb	r0, [r4, #373]	@, <variable>.AdvPicSyntax.DMVRANGE
	b	.L386	@
.L400:
	mov	r0, r5	@, pBs
	bl	VC1_DecMvrange	@
	strb	r0, [r4, #361]	@, <variable>.AdvPicSyntax.MVRANGE
	b	.L385	@
	.fnend
	.size	VC1_Vfmw_ParseAdvPFieldHdr, .-VC1_Vfmw_ParseAdvPFieldHdr
	.align	2
	.global	VC1_Vfmw_ParseSMPIPicHdr
	.type	VC1_Vfmw_ParseSMPIPicHdr, %function
VC1_Vfmw_ParseSMPIPicHdr:
	.fnstart
.LFB1394:
	@ args = 0, pretend = 0, frame = 0
	@ frame_needed = 1, uses_anonymous_args = 0
	.movsp ip
	mov	ip, sp	@,
	stmfd	sp!, {r3, r4, r5, r6, r7, r8, fp, ip, lr, pc}	@,
	.pad #4
	.save {r3, r4, r5, r6, r7, r8, fp, ip, lr}
	.setfp fp, ip, #-4
	sub	fp, ip, #4	@,,
	push	{lr}
	bl	__gnu_mcount_nc
	mov	r4, r1	@ pCodecInf, pCodecInf
	mov	r1, #7	@,
	mov	r5, r2	@ pSyntax, pSyntax
	mov	r7, r0	@ pBs, pBs
	bl	BsGet	@
	mov	r1, #5	@,
	strb	r0, [r5, #253]	@, <variable>.SMPPicSyntax.BF
	mov	r0, r7	@, pBs
	bl	BsGet	@
	uxtb	r6, r0	@ D.37448,
	strb	r6, [r5, #254]	@ D.37448, <variable>.SMPPicSyntax.PQINDEX
	cmp	r6, #0	@ D.37448,
	bne	.L419	@,
	mov	r0, r6	@, D.37452
	ldmfd	sp, {r3, r4, r5, r6, r7, r8, fp, sp, pc}	@
.L419:
	ldrb	r8, [r5, #14]	@ zero_extendqisi2	@ <variable>.SMPSeqSyntax.QUANTIZER, <variable>.SMPSeqSyntax.QUANTIZER
	mov	r1, r6	@, D.37448
	mov	r0, r8	@, <variable>.SMPSeqSyntax.QUANTIZER
	bl	VC1_Vfmw_DecPQUANT	@
	cmp	r6, #8	@ D.37448,
	movhi	r3, #0	@ tmp155,
	str	r0, [r5, #340]	@, <variable>.SMPPicSyntax.PQUANT
	strhib	r3, [r5, #255]	@ tmp155, <variable>.SMPPicSyntax.HALFQP
	bls	.L420	@,
.L409:
	cmp	r8, #1	@ <variable>.SMPSeqSyntax.QUANTIZER,
	movne	r3, #0	@ tmp159,
	strneb	r3, [r5, #256]	@ tmp159, <variable>.SMPPicSyntax.PQUANTIZER
	beq	.L421	@,
.L411:
	ldrb	r3, [r5, #7]	@ zero_extendqisi2	@ <variable>.SMPSeqSyntax.EXTENDED_MV, <variable>.SMPSeqSyntax.EXTENDED_MV
	cmp	r3, #1	@ <variable>.SMPSeqSyntax.EXTENDED_MV,
	movne	r3, #0	@ tmp163,
	strneb	r3, [r5, #257]	@ tmp163, <variable>.SMPPicSyntax.MVRANGE
	beq	.L422	@,
.L413:
	ldrb	r0, [r5, #251]	@ zero_extendqisi2	@ D.37473, <variable>.SMPPicSyntax.PTYPE
	cmp	r0, #4	@ D.37473,
	cmpne	r0, #2	@, D.37473,
	bne	.L414	@,
.L418:
	ldrb	r1, [r5, #258]	@ zero_extendqisi2	@ prephitmp.1909, <variable>.SMPPicSyntax.RESPIC
.L415:
	mov	r0, r4	@, pCodecInf
	mov	r6, #1	@ D.37452,
	bl	VC1_SetCurPicResolutionInfo	@
	mov	r0, r7	@, pBs
	bl	VC1_DecTransacfrm	@
	strb	r0, [r5, #267]	@, <variable>.SMPPicSyntax.TRANSACFRM
	mov	r0, r7	@, pBs
	bl	VC1_DecTransacfrm	@
	mov	r1, #1	@,
	strb	r0, [r5, #268]	@, <variable>.SMPPicSyntax.TRANSACFRM2
	mov	r0, r7	@, pBs
	bl	BsGet	@
	strb	r0, [r5, #269]	@, <variable>.SMPPicSyntax.TRANSDCTAB
	mov	r0, r6	@, D.37452
	ldmfd	sp, {r3, r4, r5, r6, r7, r8, fp, sp, pc}	@
.L414:
	ldrb	r1, [r5, #4]	@ zero_extendqisi2	@ <variable>.SMPSeqSyntax.MULTIRES, <variable>.SMPSeqSyntax.MULTIRES
	cmp	r1, #1	@ <variable>.SMPSeqSyntax.MULTIRES,
	bne	.L418	@,
	mov	r1, #2	@,
	mov	r0, r7	@, pBs
	bl	BsGet	@
	uxtb	r1, r0	@ prephitmp.1909,
	strb	r1, [r5, #258]	@ prephitmp.1909, <variable>.SMPPicSyntax.RESPIC
	b	.L415	@
.L420:
	mov	r0, r7	@, pBs
	mov	r1, #1	@,
	bl	BsGet	@
	ldrb	r8, [r5, #14]	@ zero_extendqisi2	@ <variable>.SMPSeqSyntax.QUANTIZER, <variable>.SMPSeqSyntax.QUANTIZER
	strb	r0, [r5, #255]	@, <variable>.SMPPicSyntax.HALFQP
	b	.L409	@
.L422:
	mov	r0, r7	@, pBs
	bl	VC1_DecMvrange	@
	strb	r0, [r5, #257]	@, <variable>.SMPPicSyntax.MVRANGE
	b	.L413	@
.L421:
	mov	r1, r8	@, <variable>.SMPSeqSyntax.QUANTIZER
	mov	r0, r7	@, pBs
	bl	BsGet	@
	strb	r0, [r5, #256]	@, <variable>.SMPPicSyntax.PQUANTIZER
	b	.L411	@
	.fnend
	.size	VC1_Vfmw_ParseSMPIPicHdr, .-VC1_Vfmw_ParseSMPIPicHdr
	.align	2
	.global	VC1_Vfmw_ParseAdvBFieldHdr
	.type	VC1_Vfmw_ParseAdvBFieldHdr, %function
VC1_Vfmw_ParseAdvBFieldHdr:
	.fnstart
.LFB1410:
	@ args = 0, pretend = 0, frame = 0
	@ frame_needed = 1, uses_anonymous_args = 0
	.movsp ip
	mov	ip, sp	@,
	stmfd	sp!, {r4, r5, r6, r7, r8, sl, fp, ip, lr, pc}	@,
	.pad #4
	.save {r4, r5, r6, r7, r8, sl, fp, ip, lr}
	.setfp fp, ip, #-4
	sub	fp, ip, #4	@,,
	push	{lr}
	bl	__gnu_mcount_nc
	mov	r7, #1	@ tmp158,
	mov	r8, r1	@ pCodecInf, pCodecInf
	strb	r7, [r2, #380]	@ tmp158, <variable>.AdvPicSyntax.NUMREF
	mov	r1, #5	@,
	mov	r4, r2	@ pSyntax, pSyntax
	mov	r5, r0	@ pBs, pBs
	bl	BsGet	@
	uxtb	r6, r0	@ D.38579,
	strb	r6, [r4, #358]	@ D.38579, <variable>.AdvPicSyntax.PQINDEX
	cmp	r6, #0	@ D.38579,
	bne	.L437	@,
.L424:
	mov	r3, #0	@ D.38583,
	mov	r0, r3	@, D.38583
	ldmfd	sp, {r4, r5, r6, r7, r8, sl, fp, sp, pc}	@
.L437:
	ldrb	sl, [r4, #198]	@ zero_extendqisi2	@ <variable>.AdvEntSyntax.QUANTIZER, <variable>.AdvEntSyntax.QUANTIZER
	mov	r1, r6	@, D.38579
	mov	r0, sl	@, <variable>.AdvEntSyntax.QUANTIZER
	bl	VC1_Vfmw_DecPQUANT	@
	cmp	r6, #8	@ D.38579,
	movhi	r3, #0	@ tmp163,
	str	r0, [r4, #464]	@, <variable>.AdvPicSyntax.PQUANT
	strhib	r3, [r4, #351]	@ tmp163, <variable>.AdvPicSyntax.HALFQP
	bls	.L438	@,
.L426:
	cmp	sl, #1	@ <variable>.AdvEntSyntax.QUANTIZER,
	movne	r3, #0	@ tmp167,
	strneb	r3, [r4, #359]	@ tmp167, <variable>.AdvPicSyntax.PQUANTIZER
	beq	.L439	@,
.L428:
	ldrb	r3, [r4, #21]	@ zero_extendqisi2	@ <variable>.AdvSeqSyntax.POSTPROCFLAG, <variable>.AdvSeqSyntax.POSTPROCFLAG
	cmp	r3, #1	@ <variable>.AdvSeqSyntax.POSTPROCFLAG,
	beq	.L440	@,
.L429:
	ldrb	r0, [r4, #194]	@ zero_extendqisi2	@ <variable>.AdvEntSyntax.EXTENDED_MV, <variable>.AdvEntSyntax.EXTENDED_MV
	cmp	r0, #1	@ <variable>.AdvEntSyntax.EXTENDED_MV,
	beq	.L441	@,
.L430:
	ldrb	r1, [r4, #200]	@ zero_extendqisi2	@ <variable>.AdvEntSyntax.EXTENDED_DMV, <variable>.AdvEntSyntax.EXTENDED_DMV
	cmp	r1, #1	@ <variable>.AdvEntSyntax.EXTENDED_DMV,
	beq	.L442	@,
.L431:
	ldrb	r1, [r4, #464]	@ zero_extendqisi2	@, <variable>.AdvPicSyntax.PQUANT
	mov	r0, r5	@, pBs
	bl	VC1_DecMvmodeInterB	@
	mov	r1, r8	@, pCodecInf
	mov	r2, r4	@, pSyntax
	mov	r3, #0	@,
	strb	r0, [r4, #362]	@, <variable>.AdvPicSyntax.MVMODE
	mov	r0, r5	@, pBs
	bl	BPD_Drv	@
	cmp	r0, #1	@,
	beq	.L424	@,
	mov	r1, #3	@,
	mov	r0, r5	@, pBs
	bl	BsGet	@
	mov	r1, #3	@,
	strb	r0, [r4, #375]	@, <variable>.AdvPicSyntax.MBMODETAB
	mov	r0, r5	@, pBs
	bl	BsGet	@
	mov	r1, #3	@,
	strb	r0, [r4, #366]	@, <variable>.AdvPicSyntax.MVTAB
	mov	r0, r5	@, pBs
	bl	BsGet	@
	ldrb	r2, [r4, #362]	@ zero_extendqisi2	@ <variable>.AdvPicSyntax.MVMODE, <variable>.AdvPicSyntax.MVMODE
	cmp	r2, #0	@ <variable>.AdvPicSyntax.MVMODE,
	strb	r0, [r4, #367]	@, <variable>.AdvPicSyntax.CBPTAB
	beq	.L443	@,
.L432:
	ldrb	r1, [r4, #195]	@ zero_extendqisi2	@ D.38631, <variable>.AdvEntSyntax.DQUANT
	cmp	r1, #0	@ D.38631,
	bne	.L444	@,
.L433:
	ldrb	r1, [r4, #196]	@ zero_extendqisi2	@ <variable>.AdvEntSyntax.VSTRANSFORM, <variable>.AdvEntSyntax.VSTRANSFORM
	cmp	r1, #1	@ <variable>.AdvEntSyntax.VSTRANSFORM,
	beq	.L445	@,
.L434:
	mov	r0, r5	@, pBs
	bl	VC1_DecTransacfrm	@
	mov	r1, #1	@,
	strb	r0, [r4, #370]	@, <variable>.AdvPicSyntax.TRANSACFRM
	mov	r0, r5	@, pBs
	bl	BsGet	@
	mov	r3, #1	@ D.38583,
	strb	r0, [r4, #372]	@, <variable>.AdvPicSyntax.TRANSDCTAB
	mov	r0, r3	@, D.38583
	ldmfd	sp, {r4, r5, r6, r7, r8, sl, fp, sp, pc}	@
.L444:
	mov	r0, r5	@, pBs
	ldrb	r2, [r4, #464]	@ zero_extendqisi2	@, <variable>.AdvPicSyntax.PQUANT
	add	r3, r4, #508	@, pSyntax,
	bl	VC1_VopDQuant	@
	b	.L433	@
.L443:
	mov	r0, r5	@, pBs
	mov	r1, #2	@,
	bl	BsGet	@
	strb	r0, [r4, #377]	@, <variable>.AdvPicSyntax.QMVBPTAB
	b	.L432	@
.L438:
	mov	r1, r7	@, tmp158
	mov	r0, r5	@, pBs
	bl	BsGet	@
	ldrb	sl, [r4, #198]	@ zero_extendqisi2	@ <variable>.AdvEntSyntax.QUANTIZER, <variable>.AdvEntSyntax.QUANTIZER
	strb	r0, [r4, #351]	@, <variable>.AdvPicSyntax.HALFQP
	b	.L426	@
.L442:
	mov	r0, r5	@, pBs
	bl	VC1_DecMvrange	@
	strb	r0, [r4, #373]	@, <variable>.AdvPicSyntax.DMVRANGE
	b	.L431	@
.L441:
	mov	r0, r5	@, pBs
	bl	VC1_DecMvrange	@
	strb	r0, [r4, #361]	@, <variable>.AdvPicSyntax.MVRANGE
	b	.L430	@
.L440:
	mov	r0, r5	@, pBs
	mov	r1, #2	@,
	bl	BsGet	@
	strb	r0, [r4, #360]	@, <variable>.AdvPicSyntax.POSTPROC
	b	.L429	@
.L439:
	mov	r1, sl	@, <variable>.AdvEntSyntax.QUANTIZER
	mov	r0, r5	@, pBs
	bl	BsGet	@
	strb	r0, [r4, #359]	@, <variable>.AdvPicSyntax.PQUANTIZER
	b	.L428	@
.L445:
	mov	r0, r5	@, pBs
	bl	BsGet	@
	uxtb	ip, r0	@ D.38639,
	strb	ip, [r4, #368]	@ D.38639, <variable>.AdvPicSyntax.TTMBF
	cmp	ip, #1	@ D.38639,
	bne	.L434	@,
	mov	r0, r5	@, pBs
	mov	r1, #2	@,
	bl	BsGet	@
	strb	r0, [r4, #369]	@, <variable>.AdvPicSyntax.TTFRM
	b	.L434	@
	.fnend
	.size	VC1_Vfmw_ParseAdvBFieldHdr, .-VC1_Vfmw_ParseAdvBFieldHdr
	.align	2
	.global	VC1_Vfmw_ParseAdvIFieldHdr
	.type	VC1_Vfmw_ParseAdvIFieldHdr, %function
VC1_Vfmw_ParseAdvIFieldHdr:
	.fnstart
.LFB1408:
	@ args = 0, pretend = 0, frame = 0
	@ frame_needed = 1, uses_anonymous_args = 0
	.movsp ip
	mov	ip, sp	@,
	stmfd	sp!, {r3, r4, r5, r6, r7, r8, fp, ip, lr, pc}	@,
	.pad #4
	.save {r3, r4, r5, r6, r7, r8, fp, ip, lr}
	.setfp fp, ip, #-4
	sub	fp, ip, #4	@,,
	push	{lr}
	bl	__gnu_mcount_nc
	mov	r6, r1	@ pCodecInf, pCodecInf
	mov	r1, #5	@,
	mov	r4, r2	@ pSyntax, pSyntax
	mov	r5, r0	@ pBs, pBs
	bl	BsGet	@
	uxtb	r7, r0	@ D.38427,
	strb	r7, [r4, #358]	@ D.38427, <variable>.AdvPicSyntax.PQINDEX
	cmp	r7, #0	@ D.38427,
	bne	.L457	@,
.L447:
	mov	r0, #0	@ D.38431,
	ldmfd	sp, {r3, r4, r5, r6, r7, r8, fp, sp, pc}	@
.L457:
	ldrb	r8, [r4, #198]	@ zero_extendqisi2	@ <variable>.AdvEntSyntax.QUANTIZER, <variable>.AdvEntSyntax.QUANTIZER
	mov	r1, r7	@, D.38427
	mov	r0, r8	@, <variable>.AdvEntSyntax.QUANTIZER
	bl	VC1_Vfmw_DecPQUANT	@
	cmp	r7, #8	@ D.38427,
	movhi	r3, #0	@ tmp152,
	str	r0, [r4, #464]	@, <variable>.AdvPicSyntax.PQUANT
	strhib	r3, [r4, #351]	@ tmp152, <variable>.AdvPicSyntax.HALFQP
	bls	.L458	@,
.L449:
	cmp	r8, #1	@ <variable>.AdvEntSyntax.QUANTIZER,
	movne	r3, #0	@ tmp156,
	strneb	r3, [r4, #359]	@ tmp156, <variable>.AdvPicSyntax.PQUANTIZER
	beq	.L459	@,
.L451:
	ldrb	r3, [r4, #21]	@ zero_extendqisi2	@ <variable>.AdvSeqSyntax.POSTPROCFLAG, <variable>.AdvSeqSyntax.POSTPROCFLAG
	cmp	r3, #1	@ <variable>.AdvSeqSyntax.POSTPROCFLAG,
	beq	.L460	@,
.L452:
	mov	r1, r6	@, pCodecInf
	mov	r0, r5	@, pBs
	mov	r2, r4	@, pSyntax
	mov	r3, #0	@,
	bl	BPD_Drv	@
	cmp	r0, #1	@,
	beq	.L447	@,
	mov	r0, r5	@, pBs
	bl	VC1_DecTransacfrm	@
	strb	r0, [r4, #370]	@, <variable>.AdvPicSyntax.TRANSACFRM
	mov	r0, r5	@, pBs
	bl	VC1_DecTransacfrm	@
	mov	r1, #1	@,
	strb	r0, [r4, #371]	@, <variable>.AdvPicSyntax.TRANSACFRM2
	mov	r0, r5	@, pBs
	bl	BsGet	@
	ldrb	r1, [r4, #195]	@ zero_extendqisi2	@ D.38460, <variable>.AdvEntSyntax.DQUANT
	cmp	r1, #0	@ D.38460,
	strb	r0, [r4, #372]	@, <variable>.AdvPicSyntax.TRANSDCTAB
	bne	.L453	@,
.L456:
	mov	r0, #1	@ D.38431,
	ldmfd	sp, {r3, r4, r5, r6, r7, r8, fp, sp, pc}	@
.L453:
	mov	r0, r5	@, pBs
	add	r3, r4, #508	@, pSyntax,
	ldrb	r2, [r4, #464]	@ zero_extendqisi2	@, <variable>.AdvPicSyntax.PQUANT
	bl	VC1_VopDQuant	@
	b	.L456	@
.L458:
	mov	r0, r5	@, pBs
	mov	r1, #1	@,
	bl	BsGet	@
	ldrb	r8, [r4, #198]	@ zero_extendqisi2	@ <variable>.AdvEntSyntax.QUANTIZER, <variable>.AdvEntSyntax.QUANTIZER
	strb	r0, [r4, #351]	@, <variable>.AdvPicSyntax.HALFQP
	b	.L449	@
.L460:
	mov	r0, r5	@, pBs
	mov	r1, #2	@,
	bl	BsGet	@
	strb	r0, [r4, #360]	@, <variable>.AdvPicSyntax.POSTPROC
	b	.L452	@
.L459:
	mov	r1, r8	@, <variable>.AdvEntSyntax.QUANTIZER
	mov	r0, r5	@, pBs
	bl	BsGet	@
	strb	r0, [r4, #359]	@, <variable>.AdvPicSyntax.PQUANTIZER
	b	.L451	@
	.fnend
	.size	VC1_Vfmw_ParseAdvIFieldHdr, .-VC1_Vfmw_ParseAdvIFieldHdr
	.align	2
	.global	VC1_Vfmw_ParseAdvFieldPicHdr
	.type	VC1_Vfmw_ParseAdvFieldPicHdr, %function
VC1_Vfmw_ParseAdvFieldPicHdr:
	.fnstart
.LFB1411:
	@ args = 0, pretend = 0, frame = 0
	@ frame_needed = 1, uses_anonymous_args = 0
	.movsp ip
	mov	ip, sp	@,
	stmfd	sp!, {r3, r4, r5, r6, r7, r8, fp, ip, lr, pc}	@,
	.pad #4
	.save {r3, r4, r5, r6, r7, r8, fp, ip, lr}
	.setfp fp, ip, #-4
	sub	fp, ip, #4	@,,
	push	{lr}
	bl	__gnu_mcount_nc
	ldrb	r3, [r1, #8]	@ zero_extendqisi2	@ <variable>.Is2ndFld, <variable>.Is2ndFld
	mov	r5, r1	@ pCodecInf, pCodecInf
	mov	r6, r0	@ pBs, pBs
	cmp	r3, #0	@ <variable>.Is2ndFld,
	mov	r4, r2	@ pSyntax, pSyntax
	beq	.L462	@,
	movw	r1, #23028	@ tmp160,
	ldr	r0, [r5, r1]	@ <variable>.SlcNum, <variable>.SlcNum
	cmp	r0, #0	@ <variable>.SlcNum,
	ble	.L463	@,
.L462:
	mov	r1, #3	@,
	mov	r0, r6	@, pBs
	bl	BsGet	@
	movw	r2, #:lower16:.LANCHOR0	@ tmp162,
	movt	r2, #:upper16:.LANCHOR0	@ tmp162,
	add	ip, r2, r0, asl #3	@, tmp171, tmp162, D.38674,
	str	r0, [r4, #472]	@ D.38674, <variable>.AdvPicSyntax.FPTYPE
	ldr	r2, [ip, #908]	@ D.38676, FldPTypeTab
	ldr	r0, [ip, #912]	@ D.38677, FldPTypeTab
	str	r2, [r4, #500]	@ D.38676, <variable>.AdvPicSyntax.FldPicType
	str	r0, [r4, #504]	@ D.38677, <variable>.AdvPicSyntax.FldPicType
	ldrb	r1, [r5, #8]	@ zero_extendqisi2	@ <variable>.Is2ndFld, <variable>.Is2ndFld
	cmp	r1, #0	@ <variable>.Is2ndFld,
	uxtbeq	r0, r2	@ iftmp.551, D.38676
	uxtbne	r0, r0	@ iftmp.551, D.38677
	strb	r0, [r4, #349]	@ iftmp.551, <variable>.AdvPicSyntax.PTYPE
	ldrb	r3, [r5, #3509]	@ zero_extendqisi2	@ <variable>.SynNew.AdvPicSyntax.PTYPE, <variable>.SynNew.AdvPicSyntax.PTYPE
	strb	r3, [r5, #2]	@ <variable>.SynNew.AdvPicSyntax.PTYPE, <variable>.PicCodingType
	ldrb	ip, [r4, #24]	@ zero_extendqisi2	@ <variable>.AdvSeqSyntax.TFCNTRFLAG, <variable>.AdvSeqSyntax.TFCNTRFLAG
	cmp	ip, #0	@ <variable>.AdvSeqSyntax.TFCNTRFLAG,
	bne	.L489	@,
.L466:
	ldrb	r3, [r4, #22]	@ zero_extendqisi2	@ <variable>.AdvSeqSyntax.PULLDOWN, <variable>.AdvSeqSyntax.PULLDOWN
	cmp	r3, #0	@ <variable>.AdvSeqSyntax.PULLDOWN,
	moveq	r2, #1	@ tmp184,
	streqb	r2, [r4, #352]	@ tmp184, <variable>.AdvPicSyntax.TFF
	bne	.L490	@,
.L469:
	ldrb	r0, [r4, #23]	@ zero_extendqisi2	@ <variable>.AdvSeqSyntax.INTERLACE, <variable>.AdvSeqSyntax.INTERLACE
	cmp	r0, #1	@ <variable>.AdvSeqSyntax.INTERLACE,
	beq	.L491	@,
.L470:
	cmp	r3, #1	@ <variable>.AdvSeqSyntax.PULLDOWN,
	ldrb	r1, [r4, #190]	@ zero_extendqisi2	@ <variable>.AdvEntSyntax.PANSCAN_FLAG, <variable>.AdvEntSyntax.PANSCAN_FLAG
	ldreqb	r3, [r4, #354]	@ zero_extendqisi2	@ <variable>.AdvPicSyntax.RPTFRM, <variable>.AdvPicSyntax.RPTFRM
	movne	r3, #1	@ tmp194,
	addeq	r3, r3, #1	@ tmp193, <variable>.AdvPicSyntax.RPTFRM,
	cmp	r1, #1	@ <variable>.AdvEntSyntax.PANSCAN_FLAG,
	str	r3, [r4, #492]	@ tmp194, <variable>.AdvPicSyntax.NumOfPanScanWindows
	beq	.L492	@,
.L474:
	mov	r1, #1	@,
	mov	r0, r6	@, pBs
	bl	BsGet	@
	mov	r1, #1	@,
	strb	r0, [r4, #348]	@, <variable>.AdvPicSyntax.RNDCTRL
	mov	r0, r6	@, pBs
	bl	BsGet	@
	ldrb	r2, [r4, #191]	@ zero_extendqisi2	@ <variable>.AdvEntSyntax.REFDIST_FLAG, <variable>.AdvEntSyntax.REFDIST_FLAG
	cmp	r2, #1	@ <variable>.AdvEntSyntax.REFDIST_FLAG,
	strb	r0, [r4, #356]	@, <variable>.AdvPicSyntax.UVSAMP
	beq	.L493	@,
.L476:
	ldr	r0, [r4, #472]	@ <variable>.AdvPicSyntax.FPTYPE, <variable>.AdvPicSyntax.FPTYPE
	cmp	r0, #3	@ <variable>.AdvPicSyntax.FPTYPE,
	bgt	.L477	@,
.L478:
	ldrb	r3, [r4, #349]	@ zero_extendqisi2	@ <variable>.AdvPicSyntax.PTYPE, <variable>.AdvPicSyntax.PTYPE
	cmp	r3, #4	@ <variable>.AdvPicSyntax.PTYPE,
	ldrls	pc, [pc, r3, asl #2]	@ <variable>.AdvPicSyntax.PTYPE
	b	.L479	@
.L483:
	.word	.L480
	.word	.L481
	.word	.L482
	.word	.L479
	.word	.L480
.L490:
	ldrb	lr, [r4, #23]	@ zero_extendqisi2	@ <variable>.AdvSeqSyntax.INTERLACE, <variable>.AdvSeqSyntax.INTERLACE
	cmp	lr, #0	@ <variable>.AdvSeqSyntax.INTERLACE,
	bne	.L468	@,
	mov	r0, r6	@, pBs
	mov	r1, #2	@,
	bl	BsGet	@
	ldrb	r3, [r4, #22]	@ zero_extendqisi2	@ <variable>.AdvSeqSyntax.PULLDOWN, <variable>.AdvSeqSyntax.PULLDOWN
	strb	r0, [r4, #354]	@, <variable>.AdvPicSyntax.RPTFRM
	ldrb	r0, [r4, #23]	@ zero_extendqisi2	@ <variable>.AdvSeqSyntax.INTERLACE, <variable>.AdvSeqSyntax.INTERLACE
	cmp	r0, #1	@ <variable>.AdvSeqSyntax.INTERLACE,
	bne	.L470	@,
.L491:
	cmp	r3, #1	@ <variable>.AdvSeqSyntax.PULLDOWN,
	ldrb	r1, [r4, #190]	@ zero_extendqisi2	@ <variable>.AdvEntSyntax.PANSCAN_FLAG, <variable>.AdvEntSyntax.PANSCAN_FLAG
	ldreqb	r3, [r4, #353]	@ zero_extendqisi2	@ <variable>.AdvPicSyntax.RFF, <variable>.AdvPicSyntax.RFF
	movne	r3, #2	@ tmp190,
	addeq	r3, r3, #2	@ tmp189, <variable>.AdvPicSyntax.RFF,
	cmp	r1, #1	@ <variable>.AdvEntSyntax.PANSCAN_FLAG,
	str	r3, [r4, #492]	@ tmp190, <variable>.AdvPicSyntax.NumOfPanScanWindows
	bne	.L474	@,
.L492:
	mov	r0, r6	@, pBs
	bl	BsGet	@
	uxtb	r1, r0	@ D.38722,
	strb	r1, [r4, #355]	@ D.38722, <variable>.AdvPicSyntax.PS_PRESENT
	cmp	r1, #1	@ D.38722,
	bne	.L474	@,
	ldr	ip, [r4, #492]	@ <variable>.AdvPicSyntax.NumOfPanScanWindows, <variable>.AdvPicSyntax.NumOfPanScanWindows
	cmp	ip, #0	@ <variable>.AdvPicSyntax.NumOfPanScanWindows,
	ble	.L474	@,
	mov	r7, r4	@ ivtmp.2000, pSyntax
	mov	r8, #0	@ i,
.L475:
	mov	r1, #18	@,
	mov	r0, r6	@, pBs
	bl	BsGet	@
	mov	r1, #18	@,
	add	r8, r8, #1	@ i, i,
	str	r0, [r7, #400]	@, <variable>.AdvPicSyntax.PS_HOFFSET
	mov	r0, r6	@, pBs
	bl	BsGet	@
	mov	r1, #14	@,
	str	r0, [r7, #416]	@, <variable>.AdvPicSyntax.PS_VOFFSET
	mov	r0, r6	@, pBs
	bl	BsGet	@
	mov	r1, #14	@,
	str	r0, [r7, #432]	@, <variable>.AdvPicSyntax.PS_WIDTH
	mov	r0, r6	@, pBs
	bl	BsGet	@
	ldr	r3, [r4, #492]	@ <variable>.AdvPicSyntax.NumOfPanScanWindows, <variable>.AdvPicSyntax.NumOfPanScanWindows
	cmp	r3, r8	@ <variable>.AdvPicSyntax.NumOfPanScanWindows, i
	str	r0, [r7, #448]	@, <variable>.AdvPicSyntax.PS_HEIGHT
	add	r7, r7, #4	@ ivtmp.2000, ivtmp.2000,
	bgt	.L475	@,
	b	.L474	@
.L482:
	mov	r0, r6	@, pBs
	mov	r1, r5	@, pCodecInf
	mov	r2, r4	@, pSyntax
	bl	VC1_Vfmw_ParseAdvBFieldHdr	@
.L484:
	ldrb	r2, [r4, #352]	@ zero_extendqisi2	@ <variable>.AdvPicSyntax.TFF, <variable>.AdvPicSyntax.TFF
	cmp	r2, #0	@ <variable>.AdvPicSyntax.TFF,
	bne	.L494	@,
.L485:
	ldrb	r2, [r5, #8]	@ zero_extendqisi2	@ <variable>.Is2ndFld, <variable>.Is2ndFld
	subs	r3, r2, #1	@ tmp217, <variable>.Is2ndFld,
	movne	r3, #1	@ tmp217
	strb	r3, [r4, #389]	@ tmp217, <variable>.AdvPicSyntax.CurParity
	ldmfd	sp, {r3, r4, r5, r6, r7, r8, fp, sp, pc}	@
.L480:
	mov	r2, r4	@, pSyntax
	mov	r0, r6	@, pBs
	mov	r1, r5	@, pCodecInf
	bl	VC1_Vfmw_ParseAdvIFieldHdr	@
	ldrb	r2, [r4, #352]	@ zero_extendqisi2	@ <variable>.AdvPicSyntax.TFF, <variable>.AdvPicSyntax.TFF
	cmp	r2, #0	@ <variable>.AdvPicSyntax.TFF,
	beq	.L485	@,
.L494:
	ldrb	ip, [r5, #8]	@ zero_extendqisi2	@ <variable>.Is2ndFld, <variable>.Is2ndFld
	subs	r1, ip, #0	@ tmp214, <variable>.Is2ndFld,
	movne	r1, #1	@ tmp214
	strb	r1, [r4, #389]	@ tmp214, <variable>.AdvPicSyntax.CurParity
	ldmfd	sp, {r3, r4, r5, r6, r7, r8, fp, sp, pc}	@
.L481:
	mov	r0, r6	@, pBs
	mov	r1, r5	@, pCodecInf
	mov	r2, r4	@, pSyntax
	bl	VC1_Vfmw_ParseAdvPFieldHdr	@
	b	.L484	@
.L479:
	mov	r0, #0	@ Ret,
	b	.L484	@
.L489:
	mov	r0, r6	@, pBs
	mov	r1, #8	@,
	bl	BsGet	@
	str	r0, [r4, #396]	@, <variable>.AdvPicSyntax.TFCNTR
	b	.L466	@
.L493:
	ldr	lr, [r4, #472]	@ <variable>.AdvPicSyntax.FPTYPE, <variable>.AdvPicSyntax.FPTYPE
	cmp	lr, #3	@ <variable>.AdvPicSyntax.FPTYPE,
	ble	.L495	@,
.L477:
	mov	r0, r6	@, pBs
	add	r1, r4, #496	@, pSyntax,
	bl	VC1_DecBfraction	@
	strb	r0, [r4, #350]	@, <variable>.AdvPicSyntax.BFRACTION
	b	.L478	@
.L468:
	mov	r1, #1	@,
	mov	r0, r6	@, pBs
	bl	BsGet	@
	mov	r1, #1	@,
	strb	r0, [r4, #352]	@, <variable>.AdvPicSyntax.TFF
	mov	r0, r6	@, pBs
	bl	BsGet	@
	ldrb	r3, [r4, #22]	@ zero_extendqisi2	@ <variable>.AdvSeqSyntax.PULLDOWN, <variable>.AdvSeqSyntax.PULLDOWN
	strb	r0, [r4, #353]	@, <variable>.AdvPicSyntax.RFF
	b	.L469	@
.L495:
	mov	r0, r6	@, pBs
	bl	VC1_DecRefdist	@
	strb	r0, [r4, #379]	@, <variable>.AdvPicSyntax.REFDIST
	b	.L476	@
.L463:
	ldr	ip, [r2, #504]	@ <variable>.AdvPicSyntax.FldPicType, <variable>.AdvPicSyntax.FldPicType
	strb	ip, [r2, #349]	@ <variable>.AdvPicSyntax.FldPicType, <variable>.AdvPicSyntax.PTYPE
	ldrb	r1, [r5, #3509]	@ zero_extendqisi2	@ <variable>.SynNew.AdvPicSyntax.PTYPE, <variable>.SynNew.AdvPicSyntax.PTYPE
	strb	r1, [r5, #2]	@ <variable>.SynNew.AdvPicSyntax.PTYPE, <variable>.PicCodingType
	b	.L478	@
	.fnend
	.size	VC1_Vfmw_ParseAdvFieldPicHdr, .-VC1_Vfmw_ParseAdvFieldPicHdr
	.align	2
	.global	VC1_Vfmw_ParseAdvBPicHdr
	.type	VC1_Vfmw_ParseAdvBPicHdr, %function
VC1_Vfmw_ParseAdvBPicHdr:
	.fnstart
.LFB1404:
	@ args = 0, pretend = 0, frame = 0
	@ frame_needed = 1, uses_anonymous_args = 0
	.movsp ip
	mov	ip, sp	@,
	stmfd	sp!, {r3, r4, r5, r6, r7, r8, fp, ip, lr, pc}	@,
	.pad #4
	.save {r3, r4, r5, r6, r7, r8, fp, ip, lr}
	.setfp fp, ip, #-4
	sub	fp, ip, #4	@,,
	push	{lr}
	bl	__gnu_mcount_nc
	mov	r6, r1	@ pCodecInf, pCodecInf
	mov	r1, #1	@,
	mov	r4, r2	@ pSyntax, pSyntax
	mov	r5, r0	@ pBs, pBs
	bl	BsGet	@
	ldrb	r3, [r4, #23]	@ zero_extendqisi2	@ <variable>.AdvSeqSyntax.INTERLACE, <variable>.AdvSeqSyntax.INTERLACE
	cmp	r3, #1	@ <variable>.AdvSeqSyntax.INTERLACE,
	strb	r0, [r4, #348]	@, <variable>.AdvPicSyntax.RNDCTRL
	beq	.L497	@,
	ldr	r3, [r4, #392]	@ prephitmp.2027, <variable>.AdvPicSyntax.FCM
	cmp	r3, #2	@ prephitmp.2027,
	beq	.L497	@,
	ldrb	r1, [r4, #25]	@ zero_extendqisi2	@ <variable>.AdvSeqSyntax.FINTERPFLAG, <variable>.AdvSeqSyntax.FINTERPFLAG
	cmp	r1, #1	@ <variable>.AdvSeqSyntax.FINTERPFLAG,
	beq	.L522	@,
.L499:
	cmp	r3, #0	@ prephitmp.2027,
	bne	.L500	@,
	mov	r0, r5	@, pBs
	add	r1, r4, #496	@, pSyntax,
	bl	VC1_DecBfraction	@
	uxtb	r0, r0	@ D.38217,
	strb	r0, [r4, #350]	@ D.38217, <variable>.AdvPicSyntax.BFRACTION
	cmp	r0, #21	@ D.38217,
	beq	.L501	@,
.L500:
	mov	r0, r5	@, pBs
	mov	r1, #5	@,
	bl	BsGet	@
	uxtb	r7, r0	@ D.38223,
	strb	r7, [r4, #358]	@ D.38223, <variable>.AdvPicSyntax.PQINDEX
	cmp	r7, #0	@ D.38223,
	bne	.L523	@,
.L501:
	mov	r3, #0	@ D.38221,
	mov	r0, r3	@, D.38221
	ldmfd	sp, {r3, r4, r5, r6, r7, r8, fp, sp, pc}	@
.L523:
	ldrb	r8, [r4, #198]	@ zero_extendqisi2	@ <variable>.AdvEntSyntax.QUANTIZER, <variable>.AdvEntSyntax.QUANTIZER
	mov	r1, r7	@, D.38223
	mov	r0, r8	@, <variable>.AdvEntSyntax.QUANTIZER
	bl	VC1_Vfmw_DecPQUANT	@
	cmp	r7, #8	@ D.38223,
	movhi	r3, #0	@ tmp180,
	str	r0, [r4, #464]	@, <variable>.AdvPicSyntax.PQUANT
	strhib	r3, [r4, #351]	@ tmp180, <variable>.AdvPicSyntax.HALFQP
	bls	.L524	@,
.L503:
	cmp	r8, #1	@ <variable>.AdvEntSyntax.QUANTIZER,
	movne	r3, #0	@ tmp184,
	strneb	r3, [r4, #359]	@ tmp184, <variable>.AdvPicSyntax.PQUANTIZER
	beq	.L525	@,
.L505:
	ldrb	r1, [r4, #21]	@ zero_extendqisi2	@ <variable>.AdvSeqSyntax.POSTPROCFLAG, <variable>.AdvSeqSyntax.POSTPROCFLAG
	cmp	r1, #1	@ <variable>.AdvSeqSyntax.POSTPROCFLAG,
	beq	.L526	@,
.L506:
	ldr	r2, [r4, #392]	@ <variable>.AdvPicSyntax.FCM, <variable>.AdvPicSyntax.FCM
	cmp	r2, #2	@ <variable>.AdvPicSyntax.FCM,
	beq	.L527	@,
.L507:
	ldrb	ip, [r4, #194]	@ zero_extendqisi2	@ <variable>.AdvEntSyntax.EXTENDED_MV, <variable>.AdvEntSyntax.EXTENDED_MV
	cmp	ip, #1	@ <variable>.AdvEntSyntax.EXTENDED_MV,
	beq	.L528	@,
.L508:
	ldr	lr, [r4, #392]	@ <variable>.AdvPicSyntax.FCM, <variable>.AdvPicSyntax.FCM
	cmp	lr, #0	@ <variable>.AdvPicSyntax.FCM,
	beq	.L529	@,
	ldrb	r3, [r4, #200]	@ zero_extendqisi2	@ <variable>.AdvEntSyntax.EXTENDED_DMV, <variable>.AdvEntSyntax.EXTENDED_DMV
	cmp	r3, #1	@ <variable>.AdvEntSyntax.EXTENDED_DMV,
	beq	.L530	@,
.L513:
	mov	r0, r5	@, pBs
	mov	r1, #1	@,
	bl	BsGet	@
	str	r0, [r4, #468]	@, <variable>.AdvPicSyntax.INTCOMP
.L512:
	mov	r1, r6	@, pCodecInf
	mov	r0, r5	@, pBs
	mov	r2, r4	@, pSyntax
	mov	r3, #0	@,
	bl	BPD_Drv	@
	cmp	r0, #1	@,
	beq	.L501	@,
	ldr	r1, [r4, #392]	@ <variable>.AdvPicSyntax.FCM, <variable>.AdvPicSyntax.FCM
	cmp	r1, #2	@ <variable>.AdvPicSyntax.FCM,
	beq	.L531	@,
.L514:
	mov	r1, #2	@,
	mov	r0, r5	@, pBs
	bl	BsGet	@
	ldr	r6, [r4, #392]	@ <variable>.AdvPicSyntax.FCM, <variable>.AdvPicSyntax.FCM
	cmp	r6, #0	@ <variable>.AdvPicSyntax.FCM,
	moveq	r1, #2	@,
	movne	r1, #3	@,
	strb	r0, [r4, #366]	@, <variable>.AdvPicSyntax.MVTAB
	mov	r0, r5	@, pBs
	bl	BsGet	@
	ldr	r6, [r4, #392]	@ <variable>.AdvPicSyntax.FCM, <variable>.AdvPicSyntax.FCM
	cmp	r6, #2	@ <variable>.AdvPicSyntax.FCM,
	uxtb	r0, r0	@ iftmp.539,
	strb	r0, [r4, #367]	@ iftmp.539, <variable>.AdvPicSyntax.CBPTAB
	beq	.L532	@,
.L517:
	ldrb	r1, [r4, #195]	@ zero_extendqisi2	@ D.38290, <variable>.AdvEntSyntax.DQUANT
	cmp	r1, #0	@ D.38290,
	bne	.L533	@,
.L518:
	ldrb	r1, [r4, #196]	@ zero_extendqisi2	@ <variable>.AdvEntSyntax.VSTRANSFORM, <variable>.AdvEntSyntax.VSTRANSFORM
	cmp	r1, #1	@ <variable>.AdvEntSyntax.VSTRANSFORM,
	beq	.L534	@,
.L519:
	mov	r0, r5	@, pBs
	bl	VC1_DecTransacfrm	@
	mov	r1, #1	@,
	strb	r0, [r4, #370]	@, <variable>.AdvPicSyntax.TRANSACFRM
	mov	r0, r5	@, pBs
	bl	BsGet	@
	mov	r3, #1	@ D.38221,
	strb	r0, [r4, #372]	@, <variable>.AdvPicSyntax.TRANSDCTAB
	mov	r0, r3	@, D.38221
	ldmfd	sp, {r3, r4, r5, r6, r7, r8, fp, sp, pc}	@
.L497:
	mov	r1, #1	@,
	mov	r0, r5	@, pBs
	bl	BsGet	@
	ldrb	r1, [r4, #25]	@ zero_extendqisi2	@ <variable>.AdvSeqSyntax.FINTERPFLAG, <variable>.AdvSeqSyntax.FINTERPFLAG
	ldr	r3, [r4, #392]	@ prephitmp.2027, <variable>.AdvPicSyntax.FCM
	cmp	r1, #1	@ <variable>.AdvSeqSyntax.FINTERPFLAG,
	strb	r0, [r4, #356]	@, <variable>.AdvPicSyntax.UVSAMP
	bne	.L499	@,
.L522:
	cmp	r3, #0	@ prephitmp.2027,
	bne	.L500	@,
	mov	r0, r5	@, pBs
	bl	BsGet	@
	ldr	r3, [r4, #392]	@ prephitmp.2027, <variable>.AdvPicSyntax.FCM
	strb	r0, [r4, #357]	@, <variable>.AdvPicSyntax.INTERPFRM
	b	.L499	@
.L533:
	mov	r0, r5	@, pBs
	ldrb	r2, [r4, #464]	@ zero_extendqisi2	@, <variable>.AdvPicSyntax.PQUANT
	add	r3, r4, #508	@, pSyntax,
	bl	VC1_VopDQuant	@
	b	.L518	@
.L524:
	mov	r0, r5	@, pBs
	mov	r1, #1	@,
	bl	BsGet	@
	ldrb	r8, [r4, #198]	@ zero_extendqisi2	@ <variable>.AdvEntSyntax.QUANTIZER, <variable>.AdvEntSyntax.QUANTIZER
	strb	r0, [r4, #351]	@, <variable>.AdvPicSyntax.HALFQP
	b	.L503	@
.L529:
	mov	r0, r5	@, pBs
	mov	r1, #1	@,
	bl	BsGet	@
	cmp	r0, #0	@,
	moveq	r0, #3	@ iftmp.538,
	movne	r0, #1	@ iftmp.538,
	strb	r0, [r4, #362]	@ iftmp.538, <variable>.AdvPicSyntax.MVMODE
	b	.L512	@
.L525:
	mov	r1, r8	@, <variable>.AdvEntSyntax.QUANTIZER
	mov	r0, r5	@, pBs
	bl	BsGet	@
	strb	r0, [r4, #359]	@, <variable>.AdvPicSyntax.PQUANTIZER
	b	.L505	@
.L526:
	mov	r0, r5	@, pBs
	mov	r1, #2	@,
	bl	BsGet	@
	strb	r0, [r4, #360]	@, <variable>.AdvPicSyntax.POSTPROC
	b	.L506	@
.L527:
	mov	r0, r5	@, pBs
	add	r1, r4, #496	@, pSyntax,
	bl	VC1_DecBfraction	@
	strb	r0, [r4, #350]	@, <variable>.AdvPicSyntax.BFRACTION
	b	.L507	@
.L528:
	mov	r0, r5	@, pBs
	bl	VC1_DecMvrange	@
	strb	r0, [r4, #361]	@, <variable>.AdvPicSyntax.MVRANGE
	b	.L508	@
.L534:
	mov	r0, r5	@, pBs
	bl	BsGet	@
	uxtb	r1, r0	@ D.38300,
	strb	r1, [r4, #368]	@ D.38300, <variable>.AdvPicSyntax.TTMBF
	cmp	r1, #1	@ D.38300,
	bne	.L519	@,
	mov	r0, r5	@, pBs
	mov	r1, #2	@,
	bl	BsGet	@
	strb	r0, [r4, #369]	@, <variable>.AdvPicSyntax.TTFRM
	b	.L519	@
.L532:
	mov	r1, r6	@, <variable>.AdvPicSyntax.FCM
	mov	r0, r5	@, pBs
	bl	BsGet	@
	mov	r1, r6	@, <variable>.AdvPicSyntax.FCM
	strb	r0, [r4, #376]	@, <variable>.AdvPicSyntax.BMVBPTAB
	mov	r0, r5	@, pBs
	bl	BsGet	@
	strb	r0, [r4, #377]	@, <variable>.AdvPicSyntax.QMVBPTAB
	b	.L517	@
.L531:
	mov	r0, r5	@, pBs
	bl	BsGet	@
	strb	r0, [r4, #375]	@, <variable>.AdvPicSyntax.MBMODETAB
	b	.L514	@
.L530:
	mov	r0, r5	@, pBs
	bl	VC1_DecMvrange	@
	strb	r0, [r4, #373]	@, <variable>.AdvPicSyntax.DMVRANGE
	b	.L513	@
	.fnend
	.size	VC1_Vfmw_ParseAdvBPicHdr, .-VC1_Vfmw_ParseAdvBPicHdr
	.align	2
	.global	VC1_Vfmw_ParseAdvPPicHdr
	.type	VC1_Vfmw_ParseAdvPPicHdr, %function
VC1_Vfmw_ParseAdvPPicHdr:
	.fnstart
.LFB1403:
	@ args = 0, pretend = 0, frame = 0
	@ frame_needed = 1, uses_anonymous_args = 0
	.movsp ip
	mov	ip, sp	@,
	stmfd	sp!, {r3, r4, r5, r6, r7, r8, fp, ip, lr, pc}	@,
	.pad #4
	.save {r3, r4, r5, r6, r7, r8, fp, ip, lr}
	.setfp fp, ip, #-4
	sub	fp, ip, #4	@,,
	push	{lr}
	bl	__gnu_mcount_nc
	mov	r6, r1	@ pCodecInf, pCodecInf
	mov	r1, #1	@,
	mov	r4, r2	@ pSyntax, pSyntax
	mov	r5, r0	@ pBs, pBs
	bl	BsGet	@
	ldrb	r3, [r4, #23]	@ zero_extendqisi2	@ <variable>.AdvSeqSyntax.INTERLACE, <variable>.AdvSeqSyntax.INTERLACE
	cmp	r3, #1	@ <variable>.AdvSeqSyntax.INTERLACE,
	strb	r0, [r4, #348]	@, <variable>.AdvPicSyntax.RNDCTRL
	beq	.L536	@,
	ldr	r0, [r4, #392]	@ <variable>.AdvPicSyntax.FCM, <variable>.AdvPicSyntax.FCM
	cmp	r0, #2	@ <variable>.AdvPicSyntax.FCM,
	beq	.L536	@,
	ldrb	r1, [r4, #25]	@ zero_extendqisi2	@ <variable>.AdvSeqSyntax.FINTERPFLAG, <variable>.AdvSeqSyntax.FINTERPFLAG
	cmp	r1, #1	@ <variable>.AdvSeqSyntax.FINTERPFLAG,
	beq	.L561	@,
.L538:
	mov	r0, r5	@, pBs
	mov	r1, #5	@,
	bl	BsGet	@
	uxtb	r7, r0	@ D.38085,
	strb	r7, [r4, #358]	@ D.38085, <variable>.AdvPicSyntax.PQINDEX
	cmp	r7, #0	@ D.38085,
	bne	.L562	@,
.L539:
	mov	r3, #0	@ D.38089,
	mov	r0, r3	@, D.38089
	ldmfd	sp, {r3, r4, r5, r6, r7, r8, fp, sp, pc}	@
.L562:
	ldrb	r8, [r4, #198]	@ zero_extendqisi2	@ <variable>.AdvEntSyntax.QUANTIZER, <variable>.AdvEntSyntax.QUANTIZER
	mov	r1, r7	@, D.38085
	mov	r0, r8	@, <variable>.AdvEntSyntax.QUANTIZER
	bl	VC1_Vfmw_DecPQUANT	@
	cmp	r7, #8	@ D.38085,
	movhi	r3, #0	@ tmp183,
	str	r0, [r4, #464]	@, <variable>.AdvPicSyntax.PQUANT
	strhib	r3, [r4, #351]	@ tmp183, <variable>.AdvPicSyntax.HALFQP
	bls	.L563	@,
.L541:
	cmp	r8, #1	@ <variable>.AdvEntSyntax.QUANTIZER,
	movne	r3, #0	@ tmp187,
	strneb	r3, [r4, #359]	@ tmp187, <variable>.AdvPicSyntax.PQUANTIZER
	beq	.L564	@,
.L543:
	ldrb	r1, [r4, #21]	@ zero_extendqisi2	@ <variable>.AdvSeqSyntax.POSTPROCFLAG, <variable>.AdvSeqSyntax.POSTPROCFLAG
	cmp	r1, #1	@ <variable>.AdvSeqSyntax.POSTPROCFLAG,
	beq	.L565	@,
.L544:
	ldrb	ip, [r4, #194]	@ zero_extendqisi2	@ <variable>.AdvEntSyntax.EXTENDED_MV, <variable>.AdvEntSyntax.EXTENDED_MV
	cmp	ip, #1	@ <variable>.AdvEntSyntax.EXTENDED_MV,
	beq	.L566	@,
.L545:
	ldr	lr, [r4, #392]	@ <variable>.AdvPicSyntax.FCM, <variable>.AdvPicSyntax.FCM
	cmp	lr, #0	@ <variable>.AdvPicSyntax.FCM,
	beq	.L567	@,
	ldrb	r0, [r4, #200]	@ zero_extendqisi2	@ <variable>.AdvEntSyntax.EXTENDED_DMV, <variable>.AdvEntSyntax.EXTENDED_DMV
	cmp	r0, #1	@ <variable>.AdvEntSyntax.EXTENDED_DMV,
	movne	r0, #0	@ tmp204,
	strneb	r0, [r4, #373]	@ tmp204, <variable>.AdvPicSyntax.DMVRANGE
	beq	.L568	@,
.L549:
	mov	r1, #1	@,
	mov	r0, r5	@, pBs
	bl	BsGet	@
	mov	r1, #1	@,
	strb	r0, [r4, #374]	@, <variable>.AdvPicSyntax.QMVSWITCH
	mov	r0, r5	@, pBs
	bl	BsGet	@
	cmp	r0, #1	@ D.38138,
	str	r0, [r4, #468]	@ D.38138, <variable>.AdvPicSyntax.INTCOMP
	beq	.L569	@,
.L550:
	mov	r2, #0	@ tmp209,
	strb	r2, [r4, #382]	@ tmp209, <variable>.AdvPicSyntax.MVTYPEMBMode
.L547:
	mov	r1, r6	@, pCodecInf
	mov	r0, r5	@, pBs
	mov	r2, r4	@, pSyntax
	mov	r3, #0	@,
	bl	BPD_Drv	@
	cmp	r0, #1	@,
	beq	.L539	@,
	ldr	r1, [r4, #392]	@ <variable>.AdvPicSyntax.FCM, <variable>.AdvPicSyntax.FCM
	cmp	r1, #2	@ <variable>.AdvPicSyntax.FCM,
	beq	.L570	@,
.L551:
	mov	r1, #2	@,
	mov	r0, r5	@, pBs
	bl	BsGet	@
	ldr	r6, [r4, #392]	@ <variable>.AdvPicSyntax.FCM, <variable>.AdvPicSyntax.FCM
	cmp	r6, #0	@ <variable>.AdvPicSyntax.FCM,
	moveq	r1, #2	@,
	movne	r1, #3	@,
	strb	r0, [r4, #366]	@, <variable>.AdvPicSyntax.MVTAB
	mov	r0, r5	@, pBs
	bl	BsGet	@
	ldr	r6, [r4, #392]	@ <variable>.AdvPicSyntax.FCM, <variable>.AdvPicSyntax.FCM
	cmp	r6, #2	@ <variable>.AdvPicSyntax.FCM,
	uxtb	r1, r0	@ iftmp.536,
	strb	r1, [r4, #367]	@ iftmp.536, <variable>.AdvPicSyntax.CBPTAB
	beq	.L571	@,
.L554:
	ldrb	r1, [r4, #195]	@ zero_extendqisi2	@ D.38171, <variable>.AdvEntSyntax.DQUANT
	cmp	r1, #0	@ D.38171,
	bne	.L572	@,
.L557:
	ldrb	r1, [r4, #196]	@ zero_extendqisi2	@ <variable>.AdvEntSyntax.VSTRANSFORM, <variable>.AdvEntSyntax.VSTRANSFORM
	cmp	r1, #1	@ <variable>.AdvEntSyntax.VSTRANSFORM,
	beq	.L573	@,
.L558:
	mov	r0, r5	@, pBs
	bl	VC1_DecTransacfrm	@
	mov	r1, #1	@,
	strb	r0, [r4, #370]	@, <variable>.AdvPicSyntax.TRANSACFRM
	mov	r0, r5	@, pBs
	bl	BsGet	@
	mov	r3, #1	@ D.38089,
	strb	r0, [r4, #372]	@, <variable>.AdvPicSyntax.TRANSDCTAB
	mov	r0, r3	@, D.38089
	ldmfd	sp, {r3, r4, r5, r6, r7, r8, fp, sp, pc}	@
.L536:
	mov	r1, #1	@,
	mov	r0, r5	@, pBs
	bl	BsGet	@
	ldrb	r1, [r4, #25]	@ zero_extendqisi2	@ <variable>.AdvSeqSyntax.FINTERPFLAG, <variable>.AdvSeqSyntax.FINTERPFLAG
	cmp	r1, #1	@ <variable>.AdvSeqSyntax.FINTERPFLAG,
	strb	r0, [r4, #356]	@, <variable>.AdvPicSyntax.UVSAMP
	bne	.L538	@,
.L561:
	ldr	r2, [r4, #392]	@ <variable>.AdvPicSyntax.FCM, <variable>.AdvPicSyntax.FCM
	cmp	r2, #0	@ <variable>.AdvPicSyntax.FCM,
	bne	.L538	@,
	mov	r0, r5	@, pBs
	bl	BsGet	@
	strb	r0, [r4, #357]	@, <variable>.AdvPicSyntax.INTERPFRM
	b	.L538	@
.L567:
	mov	r0, r5	@, pBs
	ldrb	r1, [r4, #464]	@ zero_extendqisi2	@, <variable>.AdvPicSyntax.PQUANT
	bl	VC1_DecMvmodeProgrP	@
	uxtb	r3, r0	@ D.38119,
	strb	r3, [r4, #362]	@ D.38119, <variable>.AdvPicSyntax.MVMODE
	cmp	r3, #4	@ D.38119,
	bne	.L547	@,
	ldrb	r1, [r4, #464]	@ zero_extendqisi2	@, <variable>.AdvPicSyntax.PQUANT
	mov	r0, r5	@, pBs
	bl	VC1_DecMvmode2	@
	mov	r1, #6	@,
	strb	r0, [r4, #363]	@, <variable>.AdvPicSyntax.MVMODE2
	mov	r0, r5	@, pBs
	bl	BsGet	@
	mov	r1, #6	@,
	strb	r0, [r4, #364]	@, <variable>.AdvPicSyntax.LUMSCALE
	mov	r0, r5	@, pBs
	bl	BsGet	@
	strb	r0, [r4, #365]	@, <variable>.AdvPicSyntax.LUMSHIFT
	b	.L547	@
.L563:
	mov	r0, r5	@, pBs
	mov	r1, #1	@,
	bl	BsGet	@
	ldrb	r8, [r4, #198]	@ zero_extendqisi2	@ <variable>.AdvEntSyntax.QUANTIZER, <variable>.AdvEntSyntax.QUANTIZER
	strb	r0, [r4, #351]	@, <variable>.AdvPicSyntax.HALFQP
	b	.L541	@
.L572:
	mov	r0, r5	@, pBs
	ldrb	r2, [r4, #464]	@ zero_extendqisi2	@, <variable>.AdvPicSyntax.PQUANT
	add	r3, r4, #508	@, pSyntax,
	bl	VC1_VopDQuant	@
	b	.L557	@
.L564:
	mov	r1, r8	@, <variable>.AdvEntSyntax.QUANTIZER
	mov	r0, r5	@, pBs
	bl	BsGet	@
	strb	r0, [r4, #359]	@, <variable>.AdvPicSyntax.PQUANTIZER
	b	.L543	@
.L566:
	mov	r0, r5	@, pBs
	bl	VC1_DecMvrange	@
	strb	r0, [r4, #361]	@, <variable>.AdvPicSyntax.MVRANGE
	b	.L545	@
.L565:
	mov	r0, r5	@, pBs
	mov	r1, #2	@,
	bl	BsGet	@
	strb	r0, [r4, #360]	@, <variable>.AdvPicSyntax.POSTPROC
	b	.L544	@
.L570:
	mov	r0, r5	@, pBs
	bl	BsGet	@
	strb	r0, [r4, #375]	@, <variable>.AdvPicSyntax.MBMODETAB
	b	.L551	@
.L573:
	mov	r0, r5	@, pBs
	bl	BsGet	@
	uxtb	r3, r0	@ D.38179,
	strb	r3, [r4, #368]	@ D.38179, <variable>.AdvPicSyntax.TTMBF
	cmp	r3, #1	@ D.38179,
	bne	.L558	@,
	mov	r0, r5	@, pBs
	mov	r1, #2	@,
	bl	BsGet	@
	strb	r0, [r4, #369]	@, <variable>.AdvPicSyntax.TTFRM
	b	.L558	@
.L571:
	mov	r0, r5	@, pBs
	mov	r1, r6	@, <variable>.AdvPicSyntax.FCM
	bl	BsGet	@
	ldrb	ip, [r4, #374]	@ zero_extendqisi2	@ <variable>.AdvPicSyntax.QMVSWITCH, <variable>.AdvPicSyntax.QMVSWITCH
	cmp	ip, #1	@ <variable>.AdvPicSyntax.QMVSWITCH,
	strb	r0, [r4, #376]	@, <variable>.AdvPicSyntax.BMVBPTAB
	movne	r0, #0	@ iftmp.537,
	strneb	r0, [r4, #377]	@ iftmp.537, <variable>.AdvPicSyntax.QMVBPTAB
	bne	.L554	@
.L574:
	mov	r1, r6	@, <variable>.AdvPicSyntax.FCM
	mov	r0, r5	@, pBs
	bl	BsGet	@
	uxtb	r0, r0	@ iftmp.537,
	strb	r0, [r4, #377]	@ iftmp.537, <variable>.AdvPicSyntax.QMVBPTAB
	b	.L554	@
.L569:
	mov	r1, #6	@,
	mov	r0, r5	@, pBs
	bl	BsGet	@
	mov	r1, #6	@,
	strb	r0, [r4, #364]	@, <variable>.AdvPicSyntax.LUMSCALE
	mov	r0, r5	@, pBs
	bl	BsGet	@
	strb	r0, [r4, #365]	@, <variable>.AdvPicSyntax.LUMSHIFT
	b	.L550	@
.L568:
	mov	r0, r5	@, pBs
	bl	VC1_DecMvrange	@
	strb	r0, [r4, #373]	@, <variable>.AdvPicSyntax.DMVRANGE
	b	.L549	@
	.fnend
	.size	VC1_Vfmw_ParseAdvPPicHdr, .-VC1_Vfmw_ParseAdvPPicHdr
	.align	2
	.global	VC1_Vfmw_ParseAdvIPicHdr
	.type	VC1_Vfmw_ParseAdvIPicHdr, %function
VC1_Vfmw_ParseAdvIPicHdr:
	.fnstart
.LFB1402:
	@ args = 0, pretend = 0, frame = 0
	@ frame_needed = 1, uses_anonymous_args = 0
	.movsp ip
	mov	ip, sp	@,
	stmfd	sp!, {r3, r4, r5, r6, r7, r8, fp, ip, lr, pc}	@,
	.pad #4
	.save {r3, r4, r5, r6, r7, r8, fp, ip, lr}
	.setfp fp, ip, #-4
	sub	fp, ip, #4	@,,
	push	{lr}
	bl	__gnu_mcount_nc
	mov	r6, r1	@ pCodecInf, pCodecInf
	mov	r1, #1	@,
	mov	r4, r2	@ pSyntax, pSyntax
	mov	r5, r0	@ pBs, pBs
	bl	BsGet	@
	ldrb	r1, [r4, #23]	@ zero_extendqisi2	@ <variable>.AdvSeqSyntax.INTERLACE, <variable>.AdvSeqSyntax.INTERLACE
	cmp	r1, #1	@ <variable>.AdvSeqSyntax.INTERLACE,
	strb	r0, [r4, #348]	@, <variable>.AdvPicSyntax.RNDCTRL
	beq	.L588	@,
.L576:
	ldr	r3, [r4, #392]	@ <variable>.AdvPicSyntax.FCM, <variable>.AdvPicSyntax.FCM
	cmp	r3, #0	@ <variable>.AdvPicSyntax.FCM,
	bne	.L577	@,
	ldrb	r1, [r4, #25]	@ zero_extendqisi2	@ <variable>.AdvSeqSyntax.FINTERPFLAG, <variable>.AdvSeqSyntax.FINTERPFLAG
	cmp	r1, #1	@ <variable>.AdvSeqSyntax.FINTERPFLAG,
	beq	.L589	@,
.L577:
	mov	r0, r5	@, pBs
	mov	r1, #5	@,
	bl	BsGet	@
	uxtb	r7, r0	@ D.38021,
	strb	r7, [r4, #358]	@ D.38021, <variable>.AdvPicSyntax.PQINDEX
	cmp	r7, #0	@ D.38021,
	bne	.L590	@,
.L578:
	mov	r0, #0	@ D.38025,
	ldmfd	sp, {r3, r4, r5, r6, r7, r8, fp, sp, pc}	@
.L590:
	ldrb	r8, [r4, #198]	@ zero_extendqisi2	@ <variable>.AdvEntSyntax.QUANTIZER, <variable>.AdvEntSyntax.QUANTIZER
	mov	r1, r7	@, D.38021
	mov	r0, r8	@, <variable>.AdvEntSyntax.QUANTIZER
	bl	VC1_Vfmw_DecPQUANT	@
	cmp	r7, #8	@ D.38021,
	movhi	r3, #0	@ tmp161,
	str	r0, [r4, #464]	@, <variable>.AdvPicSyntax.PQUANT
	strhib	r3, [r4, #351]	@ tmp161, <variable>.AdvPicSyntax.HALFQP
	bls	.L591	@,
.L580:
	cmp	r8, #1	@ <variable>.AdvEntSyntax.QUANTIZER,
	movne	r3, #0	@ tmp165,
	strneb	r3, [r4, #359]	@ tmp165, <variable>.AdvPicSyntax.PQUANTIZER
	beq	.L592	@,
.L582:
	ldrb	r0, [r4, #21]	@ zero_extendqisi2	@ <variable>.AdvSeqSyntax.POSTPROCFLAG, <variable>.AdvSeqSyntax.POSTPROCFLAG
	cmp	r0, #1	@ <variable>.AdvSeqSyntax.POSTPROCFLAG,
	beq	.L593	@,
.L583:
	mov	r1, r6	@, pCodecInf
	mov	r0, r5	@, pBs
	mov	r2, r4	@, pSyntax
	mov	r3, #0	@,
	bl	BPD_Drv	@
	cmp	r0, #1	@,
	beq	.L578	@,
	mov	r0, r5	@, pBs
	bl	VC1_DecTransacfrm	@
	strb	r0, [r4, #370]	@, <variable>.AdvPicSyntax.TRANSACFRM
	mov	r0, r5	@, pBs
	bl	VC1_DecTransacfrm	@
	mov	r1, #1	@,
	strb	r0, [r4, #371]	@, <variable>.AdvPicSyntax.TRANSACFRM2
	mov	r0, r5	@, pBs
	bl	BsGet	@
	ldrb	r1, [r4, #195]	@ zero_extendqisi2	@ D.38054, <variable>.AdvEntSyntax.DQUANT
	cmp	r1, #0	@ D.38054,
	strb	r0, [r4, #372]	@, <variable>.AdvPicSyntax.TRANSDCTAB
	bne	.L584	@,
.L587:
	mov	r0, #1	@ D.38025,
	ldmfd	sp, {r3, r4, r5, r6, r7, r8, fp, sp, pc}	@
.L584:
	mov	r0, r5	@, pBs
	add	r3, r4, #508	@, pSyntax,
	ldrb	r2, [r4, #464]	@ zero_extendqisi2	@, <variable>.AdvPicSyntax.PQUANT
	bl	VC1_VopDQuant	@
	b	.L587	@
.L589:
	mov	r0, r5	@, pBs
	bl	BsGet	@
	strb	r0, [r4, #357]	@, <variable>.AdvPicSyntax.INTERPFRM
	b	.L577	@
.L588:
	mov	r0, r5	@, pBs
	bl	BsGet	@
	strb	r0, [r4, #356]	@, <variable>.AdvPicSyntax.UVSAMP
	b	.L576	@
.L591:
	mov	r0, r5	@, pBs
	mov	r1, #1	@,
	bl	BsGet	@
	ldrb	r8, [r4, #198]	@ zero_extendqisi2	@ <variable>.AdvEntSyntax.QUANTIZER, <variable>.AdvEntSyntax.QUANTIZER
	strb	r0, [r4, #351]	@, <variable>.AdvPicSyntax.HALFQP
	b	.L580	@
.L593:
	mov	r0, r5	@, pBs
	mov	r1, #2	@,
	bl	BsGet	@
	strb	r0, [r4, #360]	@, <variable>.AdvPicSyntax.POSTPROC
	b	.L583	@
.L592:
	mov	r1, r8	@, <variable>.AdvEntSyntax.QUANTIZER
	mov	r0, r5	@, pBs
	bl	BsGet	@
	strb	r0, [r4, #359]	@, <variable>.AdvPicSyntax.PQUANTIZER
	b	.L582	@
	.fnend
	.size	VC1_Vfmw_ParseAdvIPicHdr, .-VC1_Vfmw_ParseAdvIPicHdr
	.align	2
	.global	VC1_Vfmw_ParseAdvFramePicHdr
	.type	VC1_Vfmw_ParseAdvFramePicHdr, %function
VC1_Vfmw_ParseAdvFramePicHdr:
	.fnstart
.LFB1405:
	@ args = 0, pretend = 0, frame = 0
	@ frame_needed = 1, uses_anonymous_args = 0
	.movsp ip
	mov	ip, sp	@,
	stmfd	sp!, {r3, r4, r5, r6, r7, r8, fp, ip, lr, pc}	@,
	.pad #4
	.save {r3, r4, r5, r6, r7, r8, fp, ip, lr}
	.setfp fp, ip, #-4
	sub	fp, ip, #4	@,,
	push	{lr}
	bl	__gnu_mcount_nc
	mov	r4, r1	@ pCodecInf, pCodecInf
	mov	r1, #4	@,
	mov	r5, r2	@ pSyntax, pSyntax
	mov	r6, r0	@ pBs, pBs
	bl	BsShow	@
	cmp	r0, #7	@ Code,
	movle	r7, #1	@ prephitmp.2114,
	movle	r1, r7	@ Len, prephitmp.2114
	ble	.L596	@,
	cmp	r0, #11	@ Code,
	movle	r7, #2	@ prephitmp.2114,
	movle	r1, r7	@ Len, prephitmp.2114
	bgt	.L620	@,
.L596:
	mov	r0, r6	@, pBs
	bl	BsSkip	@
	strb	r7, [r5, #349]	@ prephitmp.2114, <variable>.AdvPicSyntax.PTYPE
	ldrb	r0, [r4, #3509]	@ zero_extendqisi2	@ <variable>.SynNew.AdvPicSyntax.PTYPE, <variable>.SynNew.AdvPicSyntax.PTYPE
	strb	r0, [r4, #2]	@ <variable>.SynNew.AdvPicSyntax.PTYPE, <variable>.PicCodingType
	ldrb	r3, [r5, #24]	@ zero_extendqisi2	@ <variable>.AdvSeqSyntax.TFCNTRFLAG, <variable>.AdvSeqSyntax.TFCNTRFLAG
	cmp	r3, #0	@ <variable>.AdvSeqSyntax.TFCNTRFLAG,
	bne	.L621	@,
.L600:
	ldrb	r3, [r5, #22]	@ zero_extendqisi2	@ <variable>.AdvSeqSyntax.PULLDOWN, <variable>.AdvSeqSyntax.PULLDOWN
	cmp	r3, #0	@ <variable>.AdvSeqSyntax.PULLDOWN,
	moveq	r2, #1	@ tmp162,
	streqb	r2, [r5, #352]	@ tmp162, <variable>.AdvPicSyntax.TFF
	beq	.L603	@,
	ldrb	r1, [r5, #23]	@ zero_extendqisi2	@ <variable>.AdvSeqSyntax.INTERLACE, <variable>.AdvSeqSyntax.INTERLACE
	cmp	r1, #0	@ <variable>.AdvSeqSyntax.INTERLACE,
	bne	.L602	@,
	mov	r0, r6	@, pBs
	mov	r1, #2	@,
	bl	BsGet	@
	ldrb	r3, [r5, #22]	@ zero_extendqisi2	@ <variable>.AdvSeqSyntax.PULLDOWN, <variable>.AdvSeqSyntax.PULLDOWN
	strb	r0, [r5, #354]	@, <variable>.AdvPicSyntax.RPTFRM
.L603:
	ldrb	r2, [r5, #23]	@ zero_extendqisi2	@ <variable>.AdvSeqSyntax.INTERLACE, <variable>.AdvSeqSyntax.INTERLACE
	cmp	r2, #1	@ <variable>.AdvSeqSyntax.INTERLACE,
	beq	.L622	@,
.L604:
	cmp	r3, #1	@ <variable>.AdvSeqSyntax.PULLDOWN,
	ldrb	r1, [r5, #190]	@ zero_extendqisi2	@ <variable>.AdvEntSyntax.PANSCAN_FLAG, <variable>.AdvEntSyntax.PANSCAN_FLAG
	ldreqb	r3, [r5, #354]	@ zero_extendqisi2	@ <variable>.AdvPicSyntax.RPTFRM, <variable>.AdvPicSyntax.RPTFRM
	movne	r3, #1	@ tmp172,
	addeq	r3, r3, #1	@ tmp171, <variable>.AdvPicSyntax.RPTFRM,
	cmp	r1, #1	@ <variable>.AdvEntSyntax.PANSCAN_FLAG,
	str	r3, [r5, #492]	@ tmp172, <variable>.AdvPicSyntax.NumOfPanScanWindows
	beq	.L623	@,
.L608:
	ldrb	r0, [r5, #349]	@ zero_extendqisi2	@ <variable>.AdvPicSyntax.PTYPE, <variable>.AdvPicSyntax.PTYPE
	cmp	r0, #5	@ <variable>.AdvPicSyntax.PTYPE,
	ldrls	pc, [pc, r0, asl #2]	@ <variable>.AdvPicSyntax.PTYPE
	b	.L610	@
.L616:
	.word	.L611
	.word	.L612
	.word	.L613
	.word	.L610
	.word	.L614
	.word	.L615
.L602:
	mov	r1, #1	@,
	mov	r0, r6	@, pBs
	bl	BsGet	@
	mov	r1, #1	@,
	strb	r0, [r5, #352]	@, <variable>.AdvPicSyntax.TFF
	mov	r0, r6	@, pBs
	bl	BsGet	@
	ldrb	r2, [r5, #23]	@ zero_extendqisi2	@ <variable>.AdvSeqSyntax.INTERLACE, <variable>.AdvSeqSyntax.INTERLACE
	ldrb	r3, [r5, #22]	@ zero_extendqisi2	@ <variable>.AdvSeqSyntax.PULLDOWN, <variable>.AdvSeqSyntax.PULLDOWN
	cmp	r2, #1	@ <variable>.AdvSeqSyntax.INTERLACE,
	strb	r0, [r5, #353]	@, <variable>.AdvPicSyntax.RFF
	bne	.L604	@,
.L622:
	cmp	r3, #1	@ <variable>.AdvSeqSyntax.PULLDOWN,
	ldrb	r1, [r5, #190]	@ zero_extendqisi2	@ <variable>.AdvEntSyntax.PANSCAN_FLAG, <variable>.AdvEntSyntax.PANSCAN_FLAG
	ldreqb	r3, [r5, #353]	@ zero_extendqisi2	@ <variable>.AdvPicSyntax.RFF, <variable>.AdvPicSyntax.RFF
	movne	r3, #2	@ tmp168,
	addeq	r3, r3, #2	@ tmp167, <variable>.AdvPicSyntax.RFF,
	cmp	r1, #1	@ <variable>.AdvEntSyntax.PANSCAN_FLAG,
	str	r3, [r5, #492]	@ tmp168, <variable>.AdvPicSyntax.NumOfPanScanWindows
	bne	.L608	@,
.L623:
	mov	r0, r6	@, pBs
	bl	BsGet	@
	uxtb	ip, r0	@ D.38370,
	strb	ip, [r5, #355]	@ D.38370, <variable>.AdvPicSyntax.PS_PRESENT
	cmp	ip, #1	@ D.38370,
	bne	.L608	@,
	ldr	lr, [r5, #492]	@ <variable>.AdvPicSyntax.NumOfPanScanWindows, <variable>.AdvPicSyntax.NumOfPanScanWindows
	cmp	lr, #0	@ <variable>.AdvPicSyntax.NumOfPanScanWindows,
	ble	.L608	@,
	mov	r7, r5	@ ivtmp.2130, pSyntax
	mov	r8, #0	@ i,
.L609:
	mov	r1, #18	@,
	mov	r0, r6	@, pBs
	bl	BsGet	@
	mov	r1, #18	@,
	add	r8, r8, #1	@ i, i,
	str	r0, [r7, #400]	@, <variable>.AdvPicSyntax.PS_HOFFSET
	mov	r0, r6	@, pBs
	bl	BsGet	@
	mov	r1, #14	@,
	str	r0, [r7, #416]	@, <variable>.AdvPicSyntax.PS_VOFFSET
	mov	r0, r6	@, pBs
	bl	BsGet	@
	mov	r1, #14	@,
	str	r0, [r7, #432]	@, <variable>.AdvPicSyntax.PS_WIDTH
	mov	r0, r6	@, pBs
	bl	BsGet	@
	ldr	r3, [r5, #492]	@ <variable>.AdvPicSyntax.NumOfPanScanWindows, <variable>.AdvPicSyntax.NumOfPanScanWindows
	cmp	r3, r8	@ <variable>.AdvPicSyntax.NumOfPanScanWindows, i
	str	r0, [r7, #448]	@, <variable>.AdvPicSyntax.PS_HEIGHT
	add	r7, r7, #4	@ ivtmp.2130, ivtmp.2130,
	bgt	.L609	@,
	b	.L608	@
.L620:
	cmp	r0, #13	@ Code,
	movle	r7, #0	@ prephitmp.2114,
	movle	r1, #3	@ Len,
	ble	.L596	@,
	cmp	r0, #14	@ Code,
	mov	r0, r6	@, pBs
	moveq	r7, #4	@ prephitmp.2114,
	movne	r1, #4	@ Len,
	moveq	r1, r7	@ Len, prephitmp.2114
	movne	r7, #5	@ prephitmp.2114,
	bl	BsSkip	@
	strb	r7, [r5, #349]	@ prephitmp.2114, <variable>.AdvPicSyntax.PTYPE
	ldrb	r0, [r4, #3509]	@ zero_extendqisi2	@ <variable>.SynNew.AdvPicSyntax.PTYPE, <variable>.SynNew.AdvPicSyntax.PTYPE
	strb	r0, [r4, #2]	@ <variable>.SynNew.AdvPicSyntax.PTYPE, <variable>.PicCodingType
	ldrb	r3, [r5, #24]	@ zero_extendqisi2	@ <variable>.AdvSeqSyntax.TFCNTRFLAG, <variable>.AdvSeqSyntax.TFCNTRFLAG
	cmp	r3, #0	@ <variable>.AdvSeqSyntax.TFCNTRFLAG,
	beq	.L600	@,
.L621:
	mov	r0, r6	@, pBs
	mov	r1, #8	@,
	bl	BsGet	@
	str	r0, [r5, #396]	@, <variable>.AdvPicSyntax.TFCNTR
	b	.L600	@
.L615:
	mov	r0, #1	@ Ret,
	ldmfd	sp, {r3, r4, r5, r6, r7, r8, fp, sp, pc}	@
.L610:
	mov	r0, #0	@ Ret,
	ldmfd	sp, {r3, r4, r5, r6, r7, r8, fp, sp, pc}	@
.L611:
	mov	r0, r6	@, pBs
	mov	r1, r4	@, pCodecInf
	mov	r2, r5	@, pSyntax
	bl	VC1_Vfmw_ParseAdvIPicHdr	@
	ldmfd	sp, {r3, r4, r5, r6, r7, r8, fp, sp, pc}	@
.L612:
	mov	r0, r6	@, pBs
	mov	r1, r4	@, pCodecInf
	mov	r2, r5	@, pSyntax
	bl	VC1_Vfmw_ParseAdvPPicHdr	@
	ldmfd	sp, {r3, r4, r5, r6, r7, r8, fp, sp, pc}	@
.L613:
	mov	r0, r6	@, pBs
	mov	r1, r4	@, pCodecInf
	mov	r2, r5	@, pSyntax
	bl	VC1_Vfmw_ParseAdvBPicHdr	@
	ldmfd	sp, {r3, r4, r5, r6, r7, r8, fp, sp, pc}	@
.L614:
	mov	r0, r6	@, pBs
	mov	r1, r4	@, pCodecInf
	mov	r2, r5	@, pSyntax
	bl	VC1_Vfmw_ParseAdvIPicHdr	@
	ldmfd	sp, {r3, r4, r5, r6, r7, r8, fp, sp, pc}	@
	.fnend
	.size	VC1_Vfmw_ParseAdvFramePicHdr, .-VC1_Vfmw_ParseAdvFramePicHdr
	.align	2
	.global	VC1_Vfmw_ParseAdvPicHdr
	.type	VC1_Vfmw_ParseAdvPicHdr, %function
VC1_Vfmw_ParseAdvPicHdr:
	.fnstart
.LFB1412:
	@ args = 0, pretend = 0, frame = 0
	@ frame_needed = 1, uses_anonymous_args = 0
	.movsp ip
	mov	ip, sp	@,
	stmfd	sp!, {r3, r4, r5, r6, r7, r8, fp, ip, lr, pc}	@,
	.pad #4
	.save {r3, r4, r5, r6, r7, r8, fp, ip, lr}
	.setfp fp, ip, #-4
	sub	fp, ip, #4	@,,
	push	{lr}
	bl	__gnu_mcount_nc
	mov	r4, r1	@ pCodecInf, pCodecInf
	mov	r5, r0	@ pBs, pBs
	mov	r1, #0	@,
	mov	r0, r4	@, pCodecInf
	mov	r6, r2	@ pSyntax, pSyntax
	bl	VC1_SetCurPicResolutionInfo	@
	ldrb	r3, [r4, #8]	@ zero_extendqisi2	@ <variable>.Is2ndFld, <variable>.Is2ndFld
	cmp	r3, #0	@ <variable>.Is2ndFld,
	beq	.L625	@,
	movw	r1, #23028	@ tmp142,
	ldr	r0, [r4, r1]	@ <variable>.SlcNum, <variable>.SlcNum
	cmp	r0, #0	@ <variable>.SlcNum,
	ble	.L633	@,
.L625:
	ldrb	r8, [r6, #23]	@ zero_extendqisi2	@ <variable>.AdvSeqSyntax.INTERLACE, <variable>.AdvSeqSyntax.INTERLACE
	cmp	r8, #1	@ <variable>.AdvSeqSyntax.INTERLACE,
	movne	r8, #1	@ prephitmp.2157,
	movne	r7, #0	@ Code,
	beq	.L634	@,
.L628:
	str	r7, [r6, #392]	@ Code, <variable>.AdvPicSyntax.FCM
.L626:
	cmp	r8, #0	@ prephitmp.2157,
	bne	.L635	@,
	mov	r0, r5	@, pBs
	mov	r1, r4	@, pCodecInf
	mov	r2, r6	@, pSyntax
	bl	VC1_Vfmw_ParseAdvFieldPicHdr	@
	ldmfd	sp, {r3, r4, r5, r6, r7, r8, fp, sp, pc}	@
.L635:
	mov	r0, r5	@, pBs
	mov	r1, r4	@, pCodecInf
	mov	r2, r6	@, pSyntax
	bl	VC1_Vfmw_ParseAdvFramePicHdr	@
	ldmfd	sp, {r3, r4, r5, r6, r7, r8, fp, sp, pc}	@
.L633:
	ldr	r8, [r6, #392]	@ pretmp.2154, <variable>.AdvPicSyntax.FCM
	cmp	r8, #0	@ pretmp.2154,
	cmpne	r8, #2	@, pretmp.2154,
	movne	r8, #0	@, prephitmp.2157
	moveq	r8, #1	@, prephitmp.2157
	b	.L626	@
.L634:
	mov	r0, r5	@, pBs
	mov	r1, #2	@,
	bl	BsShow	@
	cmp	r0, #1	@ Code,
	mov	r7, r0	@ Code,
	ble	.L636	@,
	mov	r0, r5	@, pBs
	mov	r1, #2	@,
	bl	BsSkip	@
	cmp	r7, #2	@ Code,
	movne	r8, #0	@, prephitmp.2157
	moveq	r8, #1	@, prephitmp.2157
	b	.L628	@
.L636:
	mov	r0, r5	@, pBs
	mov	r1, r8	@, <variable>.AdvSeqSyntax.INTERLACE
	bl	BsSkip	@
	mov	r7, #0	@ Code,
	b	.L628	@
	.fnend
	.size	VC1_Vfmw_ParseAdvPicHdr, .-VC1_Vfmw_ParseAdvPicHdr
	.align	2
	.global	VC1_Vfmw_ParseAdvSlcHdr
	.type	VC1_Vfmw_ParseAdvSlcHdr, %function
VC1_Vfmw_ParseAdvSlcHdr:
	.fnstart
.LFB1413:
	@ args = 0, pretend = 0, frame = 0
	@ frame_needed = 1, uses_anonymous_args = 0
	.movsp ip
	mov	ip, sp	@,
	stmfd	sp!, {r4, r5, r6, r7, fp, ip, lr, pc}	@,
	.pad #4
	.save {r4, r5, r6, r7, fp, ip, lr}
	.setfp fp, ip, #-4
	sub	fp, ip, #4	@,,
	push	{lr}
	bl	__gnu_mcount_nc
	movw	r3, #23028	@ tmp142,
	mov	r4, r1	@ pCodecInf, pCodecInf
	mov	r1, #9	@,
	mov	r5, r2	@ pSyntax, pSyntax
	ldr	r7, [r4, r3]	@ D.38800, <variable>.SlcNum
	mov	r6, r0	@ pBs, pBs
	bl	BsGet	@
	mov	r1, #1	@,
	add	r7, r7, r7, asl #1	@, tmp146, D.38800, D.38800,
	add	r7, r5, r7, asl #2	@, tmp148, pSyntax, tmp146,
	str	r0, [r7, #528]	@, <variable>.SLICE_ADDR
	mov	r0, r6	@, pBs
	bl	BsGet	@
	uxtb	r0, r0	@ D.38804,
	strb	r0, [r7, #524]	@ D.38804, <variable>.PIC_HEADER_FLAG
	cmp	r0, #1	@ D.38804,
	movne	r0, #1	@ Ret,
	ldmnefd	sp, {r4, r5, r6, r7, fp, sp, pc}	@
	add	lr, r5, #188	@ tmp161, pSyntax,
	add	r1, r4, #6912	@ tmp160, pCodecInf,
	add	ip, r1, #32	@ tmp160, tmp160,
	ldmia	lr!, {r0, r1, r2, r3}	@ tmp175,,,,
	mov	r7, ip	@ tmp176, tmp160
	stmia	r7!, {r0, r1, r2, r3}	@ tmp176,,,,
	mov	ip, r7	@ tmp178, tmp176
	ldmia	lr!, {r0, r1, r2, r3}	@ tmp177,,,,
	stmia	ip!, {r0, r1, r2, r3}	@ tmp178,,,,
	ldmia	lr!, {r0, r1, r2, r3}	@ tmp179,,,,
	stmia	ip!, {r0, r1, r2, r3}	@ tmp178,,,,
	ldmia	lr, {r0, r1, r2}	@ tmp179,,,
	stmia	ip, {r0, r1, r2}	@ tmp180,,,
	add	r0, r4, #6720	@, pCodecInf,
	add	r1, r5, #16	@, pSyntax,
	mov	r2, #172	@,
	add	r0, r0, #52	@,,
	bl	memcpy	@
	add	r1, r5, #348	@, pSyntax,
	mov	r2, #176	@,
	add	r0, r4, #7104	@, pCodecInf,
	bl	memcpy	@
	add	r2, r4, #6720	@, tmp1,
	mov	r0, r6	@, pBs
	mov	r1, r4	@, pCodecInf
	add	r2, r2, #36	@,,
	bl	VC1_Vfmw_ParseAdvPicHdr	@
	ldmfd	sp, {r4, r5, r6, r7, fp, sp, pc}	@
	.fnend
	.size	VC1_Vfmw_ParseAdvSlcHdr, .-VC1_Vfmw_ParseAdvSlcHdr
	.align	2
	.global	VC1_Vfmw_ParseAdvHdr
	.type	VC1_Vfmw_ParseAdvHdr, %function
VC1_Vfmw_ParseAdvHdr:
	.fnstart
.LFB1418:
	@ args = 0, pretend = 0, frame = 16
	@ frame_needed = 1, uses_anonymous_args = 0
	.movsp ip
	mov	ip, sp	@,
	stmfd	sp!, {r4, r5, r6, r7, r8, r9, sl, fp, ip, lr, pc}	@,
	.pad #4
	.save {r4, r5, r6, r7, r8, r9, sl, fp, ip, lr}
	.setfp fp, ip, #-4
	sub	fp, ip, #4	@,,
	.pad #28
	sub	sp, sp, #28	@,,
	push	{lr}
	bl	__gnu_mcount_nc
	str	r1, [fp, #-48]	@ pSyntax, %sfp
	ldr	r6, [r0, #3128]	@ pBs, <variable>.pBs
	mov	r4, r0	@ pCodecInf, pCodecInf
	mov	r1, #32	@,
	mov	r8, #0	@ tmp171,
	add	r7, r0, #35072	@ pVc1Packet, pCodecInf,
	strb	r8, [r0, #6]	@ tmp171, <variable>.IsWaitToDec
	mov	r0, r6	@, pBs
	mov	r9, r2	@ ChanID, ChanID
	bl	BsGet	@
	ldr	r5, [r6, #24]	@ <variable>.TotalPos, <variable>.TotalPos
	movw	r2, #35324	@ tmp177,
	movw	r1, #35344	@ tmp179,
	cmp	r5, r8	@ <variable>.TotalPos,
	add	ip, r5, #7	@ tmp175, <variable>.TotalPos,
	ldr	sl, [r4, r2]	@ <variable>.stCurPacket.BsVirAddr, <variable>.stCurPacket.BsVirAddr
	add	r7, r7, #252	@ pVc1Packet, pVc1Packet,
	movlt	r5, ip	@ <variable>.TotalPos, tmp175
	ldr	r2, [r4, r1]	@ <variable>.stCurPacket.BsLength, <variable>.stCurPacket.BsLength
	mov	r3, r5, asr #3	@ tmp176, <variable>.TotalPos,
	add	sl, r3, sl	@ pTmp, tmp176, <variable>.stCurPacket.BsVirAddr
	rsb	r2, r3, r2	@, tmp176, <variable>.stCurPacket.BsLength
	mov	r1, sl	@, pTmp
	uxtb	r5, r0	@ Code,
	mov	r0, r6	@, pBs
	bl	BsInit	@
	sub	r3, r5, #10	@ tmp182, Code,
	cmp	r3, #5	@ tmp182,
	bhi	.L642	@,
	cmp	r5, #11	@ Code,
	beq	.L687	@,
	ldrb	r2, [r4, #0]	@ zero_extendqisi2	@ <variable>.CodecStatus, <variable>.CodecStatus
	and	r5, r2, #7	@ tmp440, <variable>.CodecStatus,
	cmp	r5, #7	@ tmp440,
	beq	.L688	@,
	movw	ip, #23028	@ tmp447,
	strb	r8, [r4, #8]	@ tmp171, <variable>.Is2ndFld
	str	r8, [r4, ip]	@ tmp171, <variable>.SlcNum
	cmp	r3, #5	@ tmp182,
	ldrls	pc, [pc, r3, asl #2]	@ tmp182
	b	.L678	@
.L663:
	.word	.L658
	.word	.L678
	.word	.L659
	.word	.L660
	.word	.L661
	.word	.L662
.L642:
	sub	lr, r5, #27	@ tmp733, Code,
	cmp	lr, #4	@ tmp733,
	bls	.L689	@,
	cmp	r5, #254	@ Code,
	beq	.L690	@,
.L678:
	mov	r0, r9	@, ChanID
	mov	r1, r7	@, pVc1Packet
	bl	VC1_ClearCurPacket	@
	mov	r5, #0	@ Ret,
.L647:
	mov	r0, r5	@, Ret
	sub	sp, fp, #40
	ldmfd	sp, {r4, r5, r6, r7, r8, r9, sl, fp, sp, pc}
.L689:
	mov	r0, r9	@, ChanID
	mov	r1, r7	@, pVc1Packet
	bl	VC1_ClearCurPacket	@
	mov	r5, #1	@ Ret,
	b	.L647	@
.L687:
	ldrb	lr, [r4, #0]	@ zero_extendqisi2	@ <variable>.CodecStatus, <variable>.CodecStatus
	and	r0, lr, #7	@ tmp184, <variable>.CodecStatus,
	cmp	r0, #7	@ tmp184,
	beq	.L691	@,
	mov	r0, r9	@, ChanID
	mov	r1, r7	@, pVc1Packet
	bl	VC1_ClearCurPacket	@
	mov	r5, r8	@ Ret, tmp171
	b	.L647	@
.L690:
	mov	r1, #32	@,
	mov	r0, r6	@, pBs
	bl	BsGet	@
	mov	r1, #32	@,
	mov	r5, r0	@ D.39049,
	mov	r0, r6	@, pBs
	bl	BsGet	@
	movw	ip, #:lower16:1128615492	@ tmp735,
	movw	r1, #:lower16:1213419593	@ tmp738,
	movt	ip, #:upper16:1128615492	@ tmp735,
	movt	r1, #:upper16:1213419593	@ tmp738,
	cmp	r0, ip	@, tmp735
	cmpeq	r5, r1	@, D.39049, tmp738
	bne	.L678	@,
	ldrb	r2, [r4, #0]	@ zero_extendqisi2	@ <variable>.CodecStatus, <variable>.CodecStatus
	mov	r3, #1	@ tmp743,
	mov	r5, r3	@ Ret, tmp743
	strb	r3, [r4, #6]	@ tmp743, <variable>.IsWaitToDec
	orr	r0, r2, #16	@ tmp747, <variable>.CodecStatus,
	strb	r3, [r4, #7]	@ tmp743, <variable>.IsStreamEndFlag
	strb	r0, [r4, #0]	@ tmp747, <variable>.CodecStatus
	b	.L647	@
.L688:
	mov	r5, #1	@ tmp443,
	orr	lr, r2, #16	@ tmp441, <variable>.CodecStatus,
	strb	r5, [r4, #6]	@ tmp443, <variable>.IsWaitToDec
	strb	lr, [r4, #0]	@ tmp441, <variable>.CodecStatus
	b	.L647	@
.L659:
	mov	r0, #1	@ tmp454,
	strb	r0, [r4, #8]	@ tmp454, <variable>.Is2ndFld
	ldr	r3, [fp, #-48]	@, %sfp
	mov	r1, #16	@,
	add	r0, r3, #508	@,,
	bl	__memzero	@
	ldrb	r1, [r4, #8]	@ zero_extendqisi2	@ <variable>.Is2ndFld, <variable>.Is2ndFld
	cmp	r1, #0	@ <variable>.Is2ndFld,
	beq	.L660	@,
.L664:
	add	r2, r4, #22784	@, pCodecInf,
	mov	r1, #12288	@,
	add	r0, r2, #248	@,,
	bl	__memzero	@
	mov	r0, r6	@, pBs
	bl	BsPos	@
	ldr	r2, [fp, #-48]	@, %sfp
	mov	r1, r4	@, pCodecInf
	str	r0, [r2, #488]	@, <variable>.AdvPicSyntax.HdrLen
	mov	r0, r6	@, pBs
	bl	VC1_Vfmw_ParseAdvPicHdr	@
	cmp	r0, #1	@ Ret,
	mov	r5, r0	@ Ret,
	beq	.L692	@,
	mov	r0, r9	@, ChanID
	mov	r1, r7	@, pVc1Packet
	bl	VC1_ClearCurPacket	@
	movw	r1, #:lower16:.LC12	@,
	movw	r2, #5571	@,
	movt	r1, #:upper16:.LC12	@,
	mov	r0, #1	@,
	bl	dprint_vfmw	@
	b	.L647	@
.L661:
	mov	r0, r6	@, pBs
	mov	r1, r4	@, pCodecInf
	ldr	r2, [fp, #-48]	@, %sfp
	bl	VC1_Vfmw_ParseAdvEntptHdr	@
	cmp	r0, #1	@ Ret,
	mov	r5, r0	@ Ret,
	beq	.L693	@,
.L676:
	mov	r0, r9	@, ChanID
	mov	r1, r7	@, pVc1Packet
	bl	VC1_ClearCurPacket	@
	b	.L647	@
.L662:
	mov	r0, r6	@, pBs
	ldr	r2, [fp, #-48]	@, %sfp
	mov	r1, r4	@, pCodecInf
	bl	VC1_Vfmw_ParseAdvSeqHdr	@
	cmp	r0, #1	@ Ret,
	mov	r5, r0	@ Ret,
	ldreqb	r3, [r4, #0]	@ zero_extendqisi2	@ <variable>.CodecStatus, <variable>.CodecStatus
	orreq	r3, r3, #1	@ tmp731, <variable>.CodecStatus,
	streqb	r3, [r4, #0]	@ tmp731, <variable>.CodecStatus
	b	.L676	@
.L658:
	orr	r2, r2, #32	@ tmp452, <variable>.CodecStatus,
	mov	r0, r9	@, ChanID
	strb	r2, [r4, #0]	@ tmp452, <variable>.CodecStatus
	mov	r1, r7	@, pVc1Packet
	bl	VC1_ClearCurPacket	@
	mov	r5, #1	@ Ret,
	b	.L647	@
.L660:
	ldr	lr, [fp, #-48]	@, %sfp
	mov	r1, #176	@,
	add	r0, lr, #348	@,,
	ldrb	r5, [lr, #379]	@ zero_extendqisi2	@ D.39005, <variable>.AdvPicSyntax.REFDIST
	bl	__memzero	@
	ldr	ip, [fp, #-48]	@, %sfp
	strb	r5, [ip, #379]	@ D.39005, <variable>.AdvPicSyntax.REFDIST
	b	.L664	@
.L691:
	mov	r0, r6	@, pBs
	mov	r1, r4	@, pCodecInf
	ldr	r2, [fp, #-48]	@, %sfp
	bl	VC1_Vfmw_ParseAdvSlcHdr	@
	cmp	r0, #1	@ Ret,
	mov	r5, r0	@ Ret,
	bne	.L645	@,
	movw	r6, #23028	@ tmp185,
	ldr	r7, [r4, r6]	@ D.38983, <variable>.SlcNum
	cmp	r7, #255	@ D.38983,
	bgt	.L694	@,
	mov	r9, r7, asl #1	@ tmp752, D.38983,
	ldr	r3, [r4, #3128]	@ pBs, <variable>.pBs
	add	r6, r9, r7	@ tmp192, tmp752, D.38983
	movw	lr, #23032	@ tmp197,
	add	r1, r6, #1	@ tmp213, tmp192,
	add	r6, r4, r6, asl #4	@, tmp194, pCodecInf, tmp192,
	add	r0, r6, #23040	@, tmp194,
	str	r0, [fp, #-56]	@, %sfp
	add	ip, r6, #22784	@, tmp194,
	add	r1, r4, r1, asl #4	@, tmp216, pCodecInf, tmp213,
	strb	r7, [r0, #0]	@ D.38983, <variable>.SlcNo
	add	ip, ip, #248	@,,
	ldr	r0, [r3, #24]	@ <variable>.TotalPos, <variable>.TotalPos
	add	r2, r1, #22784	@ tmp217, tmp216,
	str	ip, [fp, #-52]	@, %sfp
	add	r2, r2, #248	@ tmp217, tmp217,
	cmp	r0, #0	@ <variable>.TotalPos,
	add	ip, r0, #7	@ tmp207, <variable>.TotalPos,
	movlt	r0, ip	@ <variable>.TotalPos, tmp207
	add	r0, sl, r0, asr #3	@, tmp209, pTmp, <variable>.TotalPos,
	str	r0, [r6, lr]	@ tmp209, <variable>.pStream
	ldr	ip, [r3, #24]	@ <variable>.TotalPos, <variable>.TotalPos
	and	ip, ip, #7	@ tmp219, <variable>.TotalPos,
	str	ip, [r1, lr]	@ tmp219, <variable>.BitOffset
	ldr	r1, [r3, #16]	@ <variable>.BsLen, <variable>.BsLen
	ldr	ip, [r3, #24]	@ <variable>.TotalPos, <variable>.TotalPos
	rsb	lr, ip, r1, asl #3	@, tmp231, <variable>.TotalPos, <variable>.BsLen,
	str	lr, [r2, #4]	@ tmp231, <variable>.Len
	bl	MEM_Vir2Phy	@
	ldr	r1, [fp, #-56]	@, %sfp
	movw	r2, #23072	@ tmp247,
	add	r3, r6, #23040	@ tmp253, tmp194,
	add	r3, r3, #32	@ tmp253, tmp253,
	str	r0, [r1, #4]	@, <variable>.Phy_addr
	movw	r0, #35352	@ tmp254,
	ldr	ip, [r4, r0]	@ <variable>.stCurPacket.StreamID, <variable>.stCurPacket.StreamID
	mov	r1, #35328	@ tmp256,
	str	ip, [r6, r2]	@ <variable>.stCurPacket.StreamID, <variable>.StreamID
	ldr	r2, [r4, r1]	@ D.39323, <variable>.stCurPacket.BsVirAddr
	cmp	r2, #0	@ D.39323,
	beq	.L648	@,
	movw	r1, #35340	@ tmp257,
	ldr	ip, [r4, r1]	@ <variable>.stCurPacket.BsPhyAddr, <variable>.stCurPacket.BsPhyAddr
	cmp	ip, #0	@ <variable>.stCurPacket.BsPhyAddr,
	beq	.L648	@,
	ldr	r0, [fp, #-52]	@, %sfp
	movw	ip, #23064	@ tmp266,
	str	r8, [r6, ip]	@ tmp171, <variable>.BitOffset2
	str	r2, [r0, #4]	@ D.39323, <variable>.pStream2
	movw	r0, #35348	@ tmp281,
	ldr	ip, [r4, r0]	@ <variable>.stCurPacket.BsLength, <variable>.stCurPacket.BsLength
	add	r2, r6, #23040	@ tmp272, tmp194,
	add	r2, r2, #24	@ tmp272, tmp272,
	add	r6, r6, #23040	@ tmp290, tmp194,
	add	r6, r6, #16	@ tmp290, tmp290,
	mov	r0, ip, asl #3	@ tmp283, <variable>.stCurPacket.BsLength,
	str	r0, [r2, #4]	@ tmp283, <variable>.Len2
	ldr	ip, [r4, r1]	@ <variable>.stCurPacket.BsPhyAddr, <variable>.stCurPacket.BsPhyAddr
	movw	r0, #35356	@ tmp300,
	str	ip, [r6, #4]	@ <variable>.stCurPacket.BsPhyAddr, <variable>.Phy_addr2
	ldr	r2, [r4, r0]	@ <variable>.stCurPacket.StreamID, <variable>.stCurPacket.StreamID
	str	r2, [r3, #4]	@ <variable>.stCurPacket.StreamID, <variable>.StreamID2
.L649:
	movw	r3, #22944	@ tmp351,
	movw	r1, #22948	@ tmp350,
	ldr	r6, [r4, r3]	@ <variable>.MbWidth, <variable>.MbWidth
	ldr	r3, [r4, r1]	@ D.39313, <variable>.MbHeight
	ldrb	ip, [r4, #8]	@ zero_extendqisi2	@ <variable>.Is2ndFld, <variable>.Is2ndFld
	mul	r0, r6, r3	@ tmp352, <variable>.MbWidth, D.39313
	cmp	ip, #0	@ <variable>.Is2ndFld,
	sub	r6, r0, #1	@ totalMbMin1, tmp352,
	beq	.L652	@,
	ldr	ip, [fp, #-48]	@, %sfp
	add	r2, r9, r7	@ tmp358, tmp752, D.38983
	add	r3, r3, #1	@ tmp362, D.39313,
	add	r0, ip, r2, asl #2	@, tmp360,, tmp358,
	add	r2, r4, r2, asl #4	@, tmp373, pCodecInf, tmp358,
	add	r3, r3, r3, lsr #31	@, tmp365, tmp362, tmp362,
	ldr	ip, [r0, #528]	@ <variable>.SLICE_ADDR, <variable>.SLICE_ADDR
	sub	r3, ip, r3, asr #1	@ D.39305, <variable>.SLICE_ADDR, tmp365,
	movw	ip, #23056	@ tmp368,
	cmp	r3, #0	@ D.39305,
	str	r3, [r2, ip]	@ D.39305, <variable>.SlcEndMbn
	ble	.L653	@,
	cmp	r6, r3	@ totalMbMin1, D.39305
	bcc	.L681	@,
.L653:
	add	r7, r9, r7	@ tmp411, tmp752, D.38983
.L686:
	add	r0, r7, #1	@ tmp696, tmp695,
	add	r3, r4, r0, asl #4	@, tmp699, pCodecInf, tmp696,
	add	r1, r3, #22784	@ tmp700, tmp699,
	add	ip, r1, #248	@ tmp700, tmp700,
	ldr	r2, [ip, #4]	@ <variable>.Len, <variable>.Len
	cmp	r2, #0	@ <variable>.Len,
	ble	.L673	@,
	add	r7, r4, r7, asl #4	@, tmp707, pCodecInf, tmp695,
	add	r1, r7, #22784	@ tmp708, tmp707,
	add	ip, r1, #248	@ tmp708, tmp708,
	ldr	r2, [ip, #4]	@ <variable>.pStream2, <variable>.pStream2
	cmp	r2, #0	@ <variable>.pStream2,
	beq	.L674	@,
	add	r2, r7, #23040	@ tmp716, tmp707,
	add	r0, r2, #24	@ tmp716, tmp716,
	ldr	r3, [r0, #4]	@ <variable>.Len2, <variable>.Len2
	cmp	r3, #0	@ <variable>.Len2,
	ble	.L673	@,
.L674:
	movw	r1, #23028	@ tmp719,
	ldr	r3, [r4, r1]	@ <variable>.SlcNum, <variable>.SlcNum
	add	ip, r3, #1	@ tmp722, <variable>.SlcNum,
	str	ip, [r4, r1]	@ tmp722, <variable>.SlcNum
	b	.L647	@
.L692:
	mov	r0, r6	@, pBs
	bl	BsPos	@
	ldr	ip, [fp, #-48]	@, %sfp
	ldr	r2, [ip, #488]	@ <variable>.AdvPicSyntax.HdrLen, <variable>.AdvPicSyntax.HdrLen
	rsb	r3, r2, r0	@ tmp463, <variable>.AdvPicSyntax.HdrLen,
	str	r3, [ip, #488]	@ tmp463, <variable>.AdvPicSyntax.HdrLen
	ldrb	r1, [r4, #0]	@ zero_extendqisi2	@ <variable>.CodecStatus, <variable>.CodecStatus
	mov	r0, r6	@, pBs
	orr	r2, r1, #4	@ tmp466, <variable>.CodecStatus,
	strb	r2, [r4, #0]	@ tmp466, <variable>.CodecStatus
	bl	BsPos	@
	movw	ip, #35344	@ tmp469,
	ldr	r3, [r4, ip]	@ <variable>.stCurPacket.BsLength, <variable>.stCurPacket.BsLength
	add	r1, r0, #32	@ tmp468,,
	cmp	r1, r3, asl #3	@ tmp468, <variable>.stCurPacket.BsLength,
	bge	.L666	@,
	movw	r8, #23028	@ tmp472,
	ldr	r3, [r4, #3128]	@ pBs, <variable>.pBs
	ldr	r7, [r4, r8]	@ D.39395, <variable>.SlcNum
	movw	lr, #23032	@ tmp481,
	mov	r8, r7, asl #1	@ tmp754, D.39395,
	add	r6, r8, r7	@ tmp476, tmp754, D.39395
	add	r1, r6, #1	@ tmp497, tmp476,
	add	r6, r4, r6, asl #4	@, tmp478, pCodecInf, tmp476,
	add	r0, r6, #23040	@, tmp478,
	str	r0, [fp, #-52]	@, %sfp
	add	r1, r4, r1, asl #4	@, tmp500, pCodecInf, tmp497,
	add	r9, r6, #22784	@ tmp487, tmp478,
	strb	r7, [r0, #0]	@ D.39395, <variable>.SlcNo
	add	r2, r1, #22784	@ tmp501, tmp500,
	ldr	r0, [r3, #24]	@ <variable>.TotalPos, <variable>.TotalPos
	add	r2, r2, #248	@ tmp501, tmp501,
	add	r9, r9, #248	@ tmp487, tmp487,
	cmp	r0, #0	@ <variable>.TotalPos,
	add	ip, r0, #7	@ tmp491, <variable>.TotalPos,
	movlt	r0, ip	@ <variable>.TotalPos, tmp491
	add	r0, sl, r0, asr #3	@, tmp493, pTmp, <variable>.TotalPos,
	str	r0, [r6, lr]	@ tmp493, <variable>.pStream
	ldr	ip, [r3, #24]	@ <variable>.TotalPos, <variable>.TotalPos
	and	ip, ip, #7	@ tmp503, <variable>.TotalPos,
	str	ip, [r1, lr]	@ tmp503, <variable>.BitOffset
	ldr	r1, [r3, #16]	@ <variable>.BsLen, <variable>.BsLen
	ldr	ip, [r3, #24]	@ <variable>.TotalPos, <variable>.TotalPos
	rsb	lr, ip, r1, asl #3	@, tmp515, <variable>.TotalPos, <variable>.BsLen,
	str	lr, [r2, #4]	@ tmp515, <variable>.Len
	bl	MEM_Vir2Phy	@
	ldr	r1, [fp, #-52]	@, %sfp
	movw	r2, #35352	@ tmp538,
	movw	ip, #23072	@ tmp531,
	add	r3, r6, #23040	@ tmp537, tmp478,
	add	r3, r3, #32	@ tmp537, tmp537,
	str	r0, [r1, #4]	@, <variable>.Phy_addr
	mov	r0, #35328	@ tmp540,
	ldr	r1, [r4, r2]	@ <variable>.stCurPacket.StreamID, <variable>.stCurPacket.StreamID
	str	r1, [r6, ip]	@ <variable>.stCurPacket.StreamID, <variable>.StreamID
	ldr	r2, [r4, r0]	@ D.39378, <variable>.stCurPacket.BsVirAddr
	cmp	r2, #0	@ D.39378,
	beq	.L667	@,
	movw	r1, #35340	@ tmp541,
	ldr	ip, [r4, r1]	@ <variable>.stCurPacket.BsPhyAddr, <variable>.stCurPacket.BsPhyAddr
	cmp	ip, #0	@ <variable>.stCurPacket.BsPhyAddr,
	beq	.L667	@,
	movw	r0, #23064	@ tmp550,
	mov	ip, #0	@ tmp557,
	str	ip, [r6, r0]	@ tmp557, <variable>.BitOffset2
	movw	r0, #35348	@ tmp565,
	str	r2, [r9, #4]	@ D.39378, <variable>.pStream2
	add	r2, r6, #23040	@ tmp556, tmp478,
	ldr	ip, [r4, r0]	@ <variable>.stCurPacket.BsLength, <variable>.stCurPacket.BsLength
	add	r2, r2, #24	@ tmp556, tmp556,
	add	r6, r6, #23040	@ tmp574, tmp478,
	add	r6, r6, #16	@ tmp574, tmp574,
	mov	r0, ip, asl #3	@ tmp567, <variable>.stCurPacket.BsLength,
	str	r0, [r2, #4]	@ tmp567, <variable>.Len2
	ldr	ip, [r4, r1]	@ <variable>.stCurPacket.BsPhyAddr, <variable>.stCurPacket.BsPhyAddr
	movw	r0, #35356	@ tmp584,
	str	ip, [r6, #4]	@ <variable>.stCurPacket.BsPhyAddr, <variable>.Phy_addr2
	ldr	r2, [r4, r0]	@ <variable>.stCurPacket.StreamID, <variable>.stCurPacket.StreamID
	str	r2, [r3, #4]	@ <variable>.stCurPacket.StreamID, <variable>.StreamID2
.L668:
	movw	r3, #22944	@ tmp635,
	movw	r1, #22948	@ tmp634,
	ldr	r6, [r4, r3]	@ <variable>.MbWidth, <variable>.MbWidth
	ldr	r3, [r4, r1]	@ D.39368, <variable>.MbHeight
	ldrb	ip, [r4, #8]	@ zero_extendqisi2	@ <variable>.Is2ndFld, <variable>.Is2ndFld
	mul	r0, r6, r3	@ tmp636, <variable>.MbWidth, D.39368
	cmp	ip, #0	@ <variable>.Is2ndFld,
	sub	r6, r0, #1	@ totalMbMin1, tmp636,
	beq	.L671	@,
	ldr	ip, [fp, #-48]	@, %sfp
	add	r2, r8, r7	@ tmp642, tmp754, D.39395
	add	r3, r3, #1	@ tmp646, D.39368,
	add	r0, ip, r2, asl #2	@, tmp644,, tmp642,
	add	r2, r4, r2, asl #4	@, tmp657, pCodecInf, tmp642,
	add	r3, r3, r3, lsr #31	@, tmp649, tmp646, tmp646,
	ldr	ip, [r0, #528]	@ <variable>.SLICE_ADDR, <variable>.SLICE_ADDR
	sub	r3, ip, r3, asr #1	@ D.39360, <variable>.SLICE_ADDR, tmp649,
	movw	ip, #23056	@ tmp652,
	cmp	r3, #0	@ D.39360,
	str	r3, [r2, ip]	@ D.39360, <variable>.SlcEndMbn
	ble	.L672	@,
	cmp	r6, r3	@ totalMbMin1, D.39360
	bcs	.L672	@,
.L681:
	ldr	lr, [r4, r1]	@ <variable>.MbHeight, <variable>.MbHeight
	movw	r1, #:lower16:.LC7	@,
	ldr	r2, [r0, #528]	@ <variable>.SLICE_ADDR, <variable>.SLICE_ADDR
	movt	r1, #:upper16:.LC7	@,
	mov	r0, #1	@,
	mov	r5, #0	@ Ret,
	str	lr, [sp, #0]	@ <variable>.MbHeight,
	bl	dprint_vfmw	@
	b	.L647	@
.L672:
	add	r7, r8, r7	@ tmp695, tmp754, D.39395
	b	.L686	@
.L645:
	mov	r0, r9	@, ChanID
	mov	r1, r7	@, pVc1Packet
	bl	VC1_ClearCurPacket	@
	movw	r1, #:lower16:.LC11	@,
	movw	r2, #5494	@,
	movt	r1, #:upper16:.LC11	@,
	mov	r0, #1	@,
	bl	dprint_vfmw	@
	b	.L647	@
.L666:
	mov	r1, r7	@, pVc1Packet
	mov	r0, r9	@, ChanID
	bl	VC1_ClearCurPacket	@
	mov	r0, r5	@, Ret
	movw	r1, #:lower16:.LC12	@,
	movw	r2, #5565	@,
	movt	r1, #:upper16:.LC12	@,
	bl	dprint_vfmw	@
	b	.L647	@
.L667:
	add	r2, r8, r7	@ tmp589, tmp754, D.39395
	mov	r3, #0	@ tmp593,
	add	r2, r4, r2, asl #4	@, tmp591, pCodecInf, tmp589,
	add	r6, r2, #22784	@ tmp592, tmp591,
	add	ip, r2, #23040	@ tmp624, tmp591,
	add	r6, r6, #248	@ tmp592, tmp592,
	add	r0, ip, #24	@ tmp600, tmp600,
	add	r1, ip, #16	@ tmp616, tmp616,
	add	ip, ip, #32	@ tmp624, tmp624,
	str	r3, [r6, #4]	@ tmp593, <variable>.pStream2
	movw	r6, #23064	@ tmp594,
	str	r3, [ip, #4]	@ tmp593, <variable>.StreamID2
	str	r3, [r2, r6]	@ tmp593, <variable>.BitOffset2
	str	r3, [r0, #4]	@ tmp593, <variable>.Len2
	str	r3, [r1, #4]	@ tmp593, <variable>.Phy_addr2
	b	.L668	@
.L694:
	mov	r1, r9	@, ChanID
	mov	r0, r4	@, pCodecInf
	bl	VC1_ClearCurPic	@
	mov	r0, r5	@, Ret
	ldr	r2, [r4, r6]	@, <variable>.SlcNum
	movw	r1, #:lower16:.LC10	@,
	movt	r1, #:upper16:.LC10	@,
	mov	r5, r8	@ Ret, tmp171
	bl	dprint_vfmw	@
	b	.L647	@
.L648:
	add	r2, r9, r7	@ tmp305, tmp752, D.38983
	mov	r3, #0	@ tmp309,
	add	r2, r4, r2, asl #4	@, tmp307, pCodecInf, tmp305,
	add	r6, r2, #22784	@ tmp308, tmp307,
	add	ip, r2, #23040	@ tmp340, tmp307,
	add	r6, r6, #248	@ tmp308, tmp308,
	add	r0, ip, #24	@ tmp316, tmp316,
	add	r1, ip, #16	@ tmp332, tmp332,
	add	ip, ip, #32	@ tmp340, tmp340,
	str	r3, [r6, #4]	@ tmp309, <variable>.pStream2
	movw	r6, #23064	@ tmp310,
	str	r3, [ip, #4]	@ tmp309, <variable>.StreamID2
	str	r3, [r2, r6]	@ tmp309, <variable>.BitOffset2
	str	r3, [r0, #4]	@ tmp309, <variable>.Len2
	str	r3, [r1, #4]	@ tmp309, <variable>.Phy_addr2
	b	.L649	@
.L671:
	add	r3, r8, r7	@ tmp673, tmp754, D.39395
	ldr	r0, [fp, #-48]	@, %sfp
	movw	r1, #23056	@ tmp677,
	add	r2, r0, r3, asl #2	@, tmp675,, tmp673,
	add	r0, r4, r3, asl #4	@, tmp682, pCodecInf, tmp673,
	ldr	r3, [r2, #528]	@ temp.2263, <variable>.SLICE_ADDR
	cmp	r6, r3	@ totalMbMin1, temp.2263
	str	r3, [r0, r1]	@ temp.2263, <variable>.SlcEndMbn
	bcs	.L672	@,
.L680:
	ldr	r2, [r2, #528]	@ <variable>.SLICE_ADDR, <variable>.SLICE_ADDR
	movw	r1, #:lower16:.LC8	@,
	mov	r0, #1	@,
	movt	r1, #:upper16:.LC8	@,
	str	r6, [sp, #0]	@ totalMbMin1,
	mov	r5, ip	@ Ret, <variable>.Is2ndFld
	bl	dprint_vfmw	@
	b	.L647	@
.L693:
	ldr	r1, [fp, #-48]	@, %sfp
	mov	r0, r4	@, pCodecInf
	bl	VC1_Vfmw_UpdateAdvSPS	@
	ldrb	r2, [r4, #0]	@ zero_extendqisi2	@ <variable>.CodecStatus, <variable>.CodecStatus
	orr	r0, r2, #2	@ tmp727, <variable>.CodecStatus,
	strb	r0, [r4, #0]	@ tmp727, <variable>.CodecStatus
	b	.L676	@
.L673:
	movw	r1, #:lower16:.LC9	@,
	mov	r0, #1	@,
	movt	r1, #:upper16:.LC9	@,
	mov	r5, #0	@ Ret,
	bl	dprint_vfmw	@
	b	.L647	@
.L652:
	add	r3, r9, r7	@ tmp389, tmp752, D.38983
	ldr	r0, [fp, #-48]	@, %sfp
	movw	r1, #23056	@ tmp393,
	add	r2, r0, r3, asl #2	@, tmp391,, tmp389,
	add	r0, r4, r3, asl #4	@, tmp398, pCodecInf, tmp389,
	ldr	r3, [r2, #528]	@ temp.2252, <variable>.SLICE_ADDR
	cmp	r6, r3	@ totalMbMin1, temp.2252
	str	r3, [r0, r1]	@ temp.2252, <variable>.SlcEndMbn
	bcs	.L653	@,
	b	.L680	@
	.fnend
	.size	VC1_Vfmw_ParseAdvHdr, .-VC1_Vfmw_ParseAdvHdr
	.align	2
	.global	VC1_Vfmw_ParseMPBPicHdr
	.type	VC1_Vfmw_ParseMPBPicHdr, %function
VC1_Vfmw_ParseMPBPicHdr:
	.fnstart
.LFB1396:
	@ args = 0, pretend = 0, frame = 0
	@ frame_needed = 1, uses_anonymous_args = 0
	.movsp ip
	mov	ip, sp	@,
	stmfd	sp!, {r3, r4, r5, r6, r7, r8, fp, ip, lr, pc}	@,
	.pad #4
	.save {r3, r4, r5, r6, r7, r8, fp, ip, lr}
	.setfp fp, ip, #-4
	sub	fp, ip, #4	@,,
	push	{lr}
	bl	__gnu_mcount_nc
	mov	r6, r1	@ pCodecInf, pCodecInf
	mov	r1, #5	@,
	mov	r4, r2	@ pSyntax, pSyntax
	mov	r5, r0	@ pBs, pBs
	bl	BsGet	@
	uxtb	r7, r0	@ D.37582,
	strb	r7, [r4, #254]	@ D.37582, <variable>.SMPPicSyntax.PQINDEX
	cmp	r7, #0	@ D.37582,
	bne	.L709	@,
.L696:
	mov	r3, #0	@ D.37586,
	mov	r0, r3	@, D.37586
	ldmfd	sp, {r3, r4, r5, r6, r7, r8, fp, sp, pc}	@
.L709:
	ldrb	r8, [r4, #14]	@ zero_extendqisi2	@ <variable>.SMPSeqSyntax.QUANTIZER, <variable>.SMPSeqSyntax.QUANTIZER
	mov	r1, r7	@, D.37582
	mov	r0, r8	@, <variable>.SMPSeqSyntax.QUANTIZER
	bl	VC1_Vfmw_DecPQUANT	@
	cmp	r7, #8	@ D.37582,
	movhi	r3, #0	@ tmp158,
	str	r0, [r4, #340]	@, <variable>.SMPPicSyntax.PQUANT
	strhib	r3, [r4, #255]	@ tmp158, <variable>.SMPPicSyntax.HALFQP
	bls	.L710	@,
.L698:
	cmp	r8, #1	@ <variable>.SMPSeqSyntax.QUANTIZER,
	movne	r3, #0	@ tmp162,
	strneb	r3, [r4, #256]	@ tmp162, <variable>.SMPPicSyntax.PQUANTIZER
	beq	.L711	@,
.L700:
	ldrb	r3, [r4, #7]	@ zero_extendqisi2	@ <variable>.SMPSeqSyntax.EXTENDED_MV, <variable>.SMPSeqSyntax.EXTENDED_MV
	cmp	r3, #1	@ <variable>.SMPSeqSyntax.EXTENDED_MV,
	movne	r3, #0	@ tmp166,
	strneb	r3, [r4, #257]	@ tmp166, <variable>.SMPPicSyntax.MVRANGE
	beq	.L712	@,
.L702:
	mov	r1, #1	@,
	mov	r0, r5	@, pBs
	bl	BsGet	@
	mov	r3, #0	@,
	mov	r1, r6	@, pCodecInf
	mov	r2, r4	@, pSyntax
	cmp	r0, r3	@,
	moveq	r0, #3	@ iftmp.525,
	movne	r0, #1	@ iftmp.525,
	strb	r0, [r4, #259]	@ iftmp.525, <variable>.SMPPicSyntax.MVMODE
	mov	r0, r5	@, pBs
	bl	BPD_Drv	@
	cmp	r0, #1	@,
	beq	.L696	@,
	mov	r1, #2	@,
	mov	r0, r5	@, pBs
	bl	BsGet	@
	mov	r1, #2	@,
	strb	r0, [r4, #263]	@, <variable>.SMPPicSyntax.MVTAB
	mov	r0, r5	@, pBs
	bl	BsGet	@
	ldrb	r1, [r4, #8]	@ zero_extendqisi2	@ D.37619, <variable>.SMPSeqSyntax.DQUANT
	cmp	r1, #0	@ D.37619,
	strb	r0, [r4, #264]	@, <variable>.SMPPicSyntax.CBPTAB
	bne	.L713	@,
.L705:
	ldrb	r1, [r4, #9]	@ zero_extendqisi2	@ <variable>.SMPSeqSyntax.VSTRANSFORM, <variable>.SMPSeqSyntax.VSTRANSFORM
	cmp	r1, #1	@ <variable>.SMPSeqSyntax.VSTRANSFORM,
	beq	.L714	@,
.L706:
	mov	r0, r5	@, pBs
	bl	VC1_DecTransacfrm	@
	mov	r1, #1	@,
	strb	r0, [r4, #267]	@, <variable>.SMPPicSyntax.TRANSACFRM
	mov	r0, r5	@, pBs
	bl	BsGet	@
	mov	r3, #1	@ D.37586,
	strb	r0, [r4, #269]	@, <variable>.SMPPicSyntax.TRANSDCTAB
	mov	r0, r3	@, D.37586
	ldmfd	sp, {r3, r4, r5, r6, r7, r8, fp, sp, pc}	@
.L713:
	mov	r0, r5	@, pBs
	ldrb	r2, [r4, #340]	@ zero_extendqisi2	@, <variable>.SMPPicSyntax.PQUANT
	add	r3, r4, #272	@, pSyntax,
	bl	VC1_VopDQuant	@
	b	.L705	@
.L710:
	mov	r0, r5	@, pBs
	mov	r1, #1	@,
	bl	BsGet	@
	ldrb	r8, [r4, #14]	@ zero_extendqisi2	@ <variable>.SMPSeqSyntax.QUANTIZER, <variable>.SMPSeqSyntax.QUANTIZER
	strb	r0, [r4, #255]	@, <variable>.SMPPicSyntax.HALFQP
	b	.L698	@
.L712:
	mov	r0, r5	@, pBs
	bl	VC1_DecMvrange	@
	strb	r0, [r4, #257]	@, <variable>.SMPPicSyntax.MVRANGE
	b	.L702	@
.L711:
	mov	r1, r8	@, <variable>.SMPSeqSyntax.QUANTIZER
	mov	r0, r5	@, pBs
	bl	BsGet	@
	strb	r0, [r4, #256]	@, <variable>.SMPPicSyntax.PQUANTIZER
	b	.L700	@
.L714:
	mov	r0, r5	@, pBs
	bl	BsGet	@
	uxtb	r0, r0	@ D.37629,
	strb	r0, [r4, #265]	@ D.37629, <variable>.SMPPicSyntax.TTMBF
	cmp	r0, #1	@ D.37629,
	bne	.L706	@,
	mov	r0, r5	@, pBs
	mov	r1, #2	@,
	bl	BsGet	@
	strb	r0, [r4, #266]	@, <variable>.SMPPicSyntax.TTFRM
	b	.L706	@
	.fnend
	.size	VC1_Vfmw_ParseMPBPicHdr, .-VC1_Vfmw_ParseMPBPicHdr
	.align	2
	.global	VC1_Vfmw_ParseSMPPPicHdr
	.type	VC1_Vfmw_ParseSMPPPicHdr, %function
VC1_Vfmw_ParseSMPPPicHdr:
	.fnstart
.LFB1395:
	@ args = 0, pretend = 0, frame = 0
	@ frame_needed = 1, uses_anonymous_args = 0
	.movsp ip
	mov	ip, sp	@,
	stmfd	sp!, {r3, r4, r5, r6, r7, r8, fp, ip, lr, pc}	@,
	.pad #4
	.save {r3, r4, r5, r6, r7, r8, fp, ip, lr}
	.setfp fp, ip, #-4
	sub	fp, ip, #4	@,,
	push	{lr}
	bl	__gnu_mcount_nc
	mov	r6, r1	@ pCodecInf, pCodecInf
	mov	r1, #5	@,
	mov	r4, r2	@ pSyntax, pSyntax
	mov	r5, r0	@ pBs, pBs
	bl	BsGet	@
	uxtb	r7, r0	@ D.37500,
	strb	r7, [r4, #254]	@ D.37500, <variable>.SMPPicSyntax.PQINDEX
	cmp	r7, #0	@ D.37500,
	bne	.L730	@,
.L716:
	mov	r3, #0	@ D.37504,
	mov	r0, r3	@, D.37504
	ldmfd	sp, {r3, r4, r5, r6, r7, r8, fp, sp, pc}	@
.L730:
	ldrb	r8, [r4, #14]	@ zero_extendqisi2	@ <variable>.SMPSeqSyntax.QUANTIZER, <variable>.SMPSeqSyntax.QUANTIZER
	mov	r1, r7	@, D.37500
	mov	r0, r8	@, <variable>.SMPSeqSyntax.QUANTIZER
	bl	VC1_Vfmw_DecPQUANT	@
	cmp	r7, #8	@ D.37500,
	movhi	r3, #0	@ tmp165,
	str	r0, [r4, #340]	@, <variable>.SMPPicSyntax.PQUANT
	strhib	r3, [r4, #255]	@ tmp165, <variable>.SMPPicSyntax.HALFQP
	bls	.L731	@,
.L718:
	cmp	r8, #1	@ <variable>.SMPSeqSyntax.QUANTIZER,
	movne	r3, #0	@ tmp169,
	strneb	r3, [r4, #256]	@ tmp169, <variable>.SMPPicSyntax.PQUANTIZER
	beq	.L732	@,
.L720:
	ldrb	r3, [r4, #7]	@ zero_extendqisi2	@ <variable>.SMPSeqSyntax.EXTENDED_MV, <variable>.SMPSeqSyntax.EXTENDED_MV
	cmp	r3, #1	@ <variable>.SMPSeqSyntax.EXTENDED_MV,
	movne	r3, #0	@ tmp173,
	strneb	r3, [r4, #257]	@ tmp173, <variable>.SMPPicSyntax.MVRANGE
	beq	.L733	@,
.L722:
	ldrb	r0, [r4, #4]	@ zero_extendqisi2	@ <variable>.SMPSeqSyntax.MULTIRES, <variable>.SMPSeqSyntax.MULTIRES
	cmp	r0, #1	@ <variable>.SMPSeqSyntax.MULTIRES,
	ldrneb	r1, [r4, #258]	@ zero_extendqisi2	@ prephitmp.2308, <variable>.SMPPicSyntax.RESPIC
	beq	.L734	@,
.L724:
	mov	r0, r6	@, pCodecInf
	bl	VC1_SetCurPicResolutionInfo	@
	mov	r0, r5	@, pBs
	bl	BsPos	@
	movw	r1, #:lower16:.LC13	@,
	movt	r1, #:upper16:.LC13	@,
	mov	r2, r0	@ D.37533,
	mov	r0, #18	@,
	bl	dprint_vfmw	@
	ldrb	r1, [r4, #340]	@ zero_extendqisi2	@, <variable>.SMPPicSyntax.PQUANT
	mov	r0, r5	@, pBs
	bl	VC1_DecMvmodeProgrP	@
	uxtb	r1, r0	@ D.37537,
	strb	r1, [r4, #259]	@ D.37537, <variable>.SMPPicSyntax.MVMODE
	cmp	r1, #4	@ D.37537,
	beq	.L735	@,
.L725:
	mov	r1, r6	@, pCodecInf
	mov	r0, r5	@, pBs
	mov	r2, r4	@, pSyntax
	mov	r3, #0	@,
	bl	BPD_Drv	@
	cmp	r0, #1	@,
	beq	.L716	@,
	mov	r1, #2	@,
	mov	r0, r5	@, pBs
	bl	BsGet	@
	mov	r1, #2	@,
	strb	r0, [r4, #263]	@, <variable>.SMPPicSyntax.MVTAB
	mov	r0, r5	@, pBs
	bl	BsGet	@
	ldrb	r1, [r4, #8]	@ zero_extendqisi2	@ D.37554, <variable>.SMPSeqSyntax.DQUANT
	cmp	r1, #0	@ D.37554,
	strb	r0, [r4, #264]	@, <variable>.SMPPicSyntax.CBPTAB
	bne	.L736	@,
.L726:
	mov	r0, r5	@, pBs
	bl	BsPos	@
	movw	r1, #:lower16:.LC14	@,
	movt	r1, #:upper16:.LC14	@,
	mov	r2, r0	@ D.37559,
	mov	r0, #18	@,
	bl	dprint_vfmw	@
	ldrb	r1, [r4, #9]	@ zero_extendqisi2	@ <variable>.SMPSeqSyntax.VSTRANSFORM, <variable>.SMPSeqSyntax.VSTRANSFORM
	cmp	r1, #1	@ <variable>.SMPSeqSyntax.VSTRANSFORM,
	beq	.L737	@,
.L727:
	mov	r0, r5	@, pBs
	bl	VC1_DecTransacfrm	@
	mov	r1, #1	@,
	strb	r0, [r4, #267]	@, <variable>.SMPPicSyntax.TRANSACFRM
	mov	r0, r5	@, pBs
	bl	BsGet	@
	mov	r3, #1	@ D.37504,
	strb	r0, [r4, #269]	@, <variable>.SMPPicSyntax.TRANSDCTAB
	mov	r0, r3	@, D.37504
	ldmfd	sp, {r3, r4, r5, r6, r7, r8, fp, sp, pc}	@
.L736:
	mov	r0, r5	@, pBs
	ldrb	r2, [r4, #340]	@ zero_extendqisi2	@, <variable>.SMPPicSyntax.PQUANT
	add	r3, r4, #272	@, pSyntax,
	bl	VC1_VopDQuant	@
	b	.L726	@
.L731:
	mov	r0, r5	@, pBs
	mov	r1, #1	@,
	bl	BsGet	@
	ldrb	r8, [r4, #14]	@ zero_extendqisi2	@ <variable>.SMPSeqSyntax.QUANTIZER, <variable>.SMPSeqSyntax.QUANTIZER
	strb	r0, [r4, #255]	@, <variable>.SMPPicSyntax.HALFQP
	b	.L718	@
.L735:
	ldrb	r1, [r4, #340]	@ zero_extendqisi2	@, <variable>.SMPPicSyntax.PQUANT
	mov	r0, r5	@, pBs
	bl	VC1_DecMvmode2	@
	mov	r1, #6	@,
	strb	r0, [r4, #260]	@, <variable>.SMPPicSyntax.MVMODE2
	mov	r0, r5	@, pBs
	bl	BsGet	@
	mov	r1, #6	@,
	strb	r0, [r4, #261]	@, <variable>.SMPPicSyntax.LUMSCALE
	mov	r0, r5	@, pBs
	bl	BsGet	@
	strb	r0, [r4, #262]	@, <variable>.SMPPicSyntax.LUMSHIFT
	b	.L725	@
.L734:
	mov	r1, #2	@,
	mov	r0, r5	@, pBs
	bl	BsGet	@
	uxtb	r1, r0	@ prephitmp.2308,
	strb	r1, [r4, #258]	@ prephitmp.2308, <variable>.SMPPicSyntax.RESPIC
	b	.L724	@
.L733:
	mov	r0, r5	@, pBs
	bl	VC1_DecMvrange	@
	strb	r0, [r4, #257]	@, <variable>.SMPPicSyntax.MVRANGE
	b	.L722	@
.L732:
	mov	r1, r8	@, <variable>.SMPSeqSyntax.QUANTIZER
	mov	r0, r5	@, pBs
	bl	BsGet	@
	strb	r0, [r4, #256]	@, <variable>.SMPPicSyntax.PQUANTIZER
	b	.L720	@
.L737:
	mov	r0, r5	@, pBs
	bl	BsGet	@
	uxtb	r2, r0	@ D.37564,
	strb	r2, [r4, #265]	@ D.37564, <variable>.SMPPicSyntax.TTMBF
	cmp	r2, #1	@ D.37564,
	bne	.L727	@,
	mov	r0, r5	@, pBs
	mov	r1, #2	@,
	bl	BsGet	@
	strb	r0, [r4, #266]	@, <variable>.SMPPicSyntax.TTFRM
	b	.L727	@
	.fnend
	.size	VC1_Vfmw_ParseSMPPPicHdr, .-VC1_Vfmw_ParseSMPPPicHdr
	.align	2
	.global	VC1_Vfmw_ParseSMPPicHdr
	.type	VC1_Vfmw_ParseSMPPicHdr, %function
VC1_Vfmw_ParseSMPPicHdr:
	.fnstart
.LFB1397:
	@ args = 0, pretend = 0, frame = 0
	@ frame_needed = 1, uses_anonymous_args = 0
	.movsp ip
	mov	ip, sp	@,
	stmfd	sp!, {r4, r5, r6, r7, fp, ip, lr, pc}	@,
	.pad #4
	.save {r4, r5, r6, r7, fp, ip, lr}
	.setfp fp, ip, #-4
	sub	fp, ip, #4	@,,
	push	{lr}
	bl	__gnu_mcount_nc
	ldrb	r7, [r2, #258]	@ zero_extendqisi2	@ RESPIC, <variable>.SMPPicSyntax.RESPIC
	mov	r6, r0	@ pBs, pBs
	mov	r5, r1	@ pCodecInf, pCodecInf
	mov	r0, r1	@, pCodecInf
	mov	r4, r2	@ pSyntax, pSyntax
	mov	r1, r7	@, RESPIC
	bl	VC1_SetCurPicResolutionInfo	@
	ldr	r3, [r6, #16]	@ <variable>.BsLen, <variable>.BsLen
	cmp	r3, #1	@ <variable>.BsLen,
	ble	.L762	@,
	add	r0, r4, #248	@, pSyntax,
	mov	r1, #100	@,
	bl	__memzero	@
	add	r2, r5, #22784	@, pCodecInf,
	add	r0, r2, #248	@,,
	strb	r7, [r4, #258]	@ RESPIC, <variable>.SMPPicSyntax.RESPIC
	mov	r1, #12288	@,
	movw	r7, #35320	@ tmp163,
	bl	__memzero	@
	ldr	r2, [r5, r7]	@ D.37678, <variable>.PicCnt
	mov	r0, #18	@,
	movw	r1, #:lower16:.LC15	@,
	movt	r1, #:upper16:.LC15	@,
	bl	dprint_vfmw	@
	mov	r0, r6	@, pBs
	bl	BsPos	@
	ldrb	r1, [r4, #15]	@ zero_extendqisi2	@ <variable>.SMPSeqSyntax.FINTERPFLAG, <variable>.SMPSeqSyntax.FINTERPFLAG
	cmp	r1, #0	@ <variable>.SMPSeqSyntax.FINTERPFLAG,
	ldreqb	r2, [r4, #248]	@ zero_extendqisi2	@ prephitmp.2338, <variable>.SMPPicSyntax.INTERPFRM
	str	r0, [r4, #324]	@, <variable>.SMPPicSyntax.HdrLen
	bne	.L763	@,
.L743:
	mov	r0, #18	@,
	movw	r1, #:lower16:.LC16	@,
	movt	r1, #:upper16:.LC16	@,
	bl	dprint_vfmw	@
	mov	r0, r6	@, pBs
	mov	r1, #2	@,
	bl	BsGet	@
	ldrb	ip, [r4, #12]	@ zero_extendqisi2	@ <variable>.SMPSeqSyntax.RANGERED, <variable>.SMPSeqSyntax.RANGERED
	cmp	ip, #0	@ <variable>.SMPSeqSyntax.RANGERED,
	strb	r0, [r4, #249]	@, <variable>.SMPPicSyntax.FRMCNT
	bne	.L764	@,
	ldrb	lr, [r4, #13]	@ zero_extendqisi2	@ <variable>.SMPSeqSyntax.MAXBFRAMES, <variable>.SMPSeqSyntax.MAXBFRAMES
	cmp	lr, #0	@ <variable>.SMPSeqSyntax.MAXBFRAMES,
	bne	.L745	@,
.L768:
	mov	r0, r6	@, pBs
	mov	r1, #1	@,
	bl	BsGet	@
	subs	r0, r0, #0	@ prephitmp.2349,,
	movne	r0, #1	@ prephitmp.2349
	strb	r0, [r4, #251]	@ prephitmp.2349, <variable>.SMPPicSyntax.PTYPE
.L746:
	strb	r0, [r5, #2]	@ prephitmp.2349, <variable>.PicCodingType
	mov	r0, #0	@ tmp183,
	strb	r0, [r5, #4]	@ tmp183, <variable>.PicStructure
	ldrb	r3, [r4, #251]	@ zero_extendqisi2	@ <variable>.SMPPicSyntax.PTYPE, <variable>.SMPPicSyntax.PTYPE
	cmp	r3, #4	@ <variable>.SMPPicSyntax.PTYPE,
	ldrls	pc, [pc, r3, asl #2]	@ <variable>.SMPPicSyntax.PTYPE
	b	.L749	@
.L754:
	.word	.L761
	.word	.L751
	.word	.L752
	.word	.L749
	.word	.L753
.L745:
	mov	r0, r6	@, pBs
	mov	r1, #1	@,
	bl	BsGet	@
	cmp	r0, #1	@ D.37704,
	beq	.L760	@,
	mov	r0, r6	@, pBs
	mov	r1, #1	@,
	bl	BsGet	@
	cmp	r0, #1	@,
	beq	.L765	@,
	mov	lr, #2	@ tmp195,
	mov	r0, r6	@, pBs
	strb	lr, [r4, #251]	@ tmp195, <variable>.SMPPicSyntax.PTYPE
	add	r1, r4, #344	@, pSyntax,
	add	r2, r4, #251	@, pSyntax,
	bl	VC1_DecBfractionSMP	@
	uxtb	r0, r0	@ D.37718,
	strb	r0, [r4, #252]	@ D.37718, <variable>.SMPPicSyntax.BFRACTION
	cmp	r0, #22	@ D.37718,
	mov	r3, r0	@ D.37718, D.37718
	beq	.L766	@,
	cmp	r0, #21	@ D.37718,
	beq	.L749	@,
	ldrb	r0, [r4, #251]	@ zero_extendqisi2	@ prephitmp.2349, <variable>.SMPPicSyntax.PTYPE
	b	.L746	@
.L752:
	ldrb	r1, [r5, #3099]	@ zero_extendqisi2	@ <variable>.PreParseInfo.SMPSeqSyntax.PROFILE, <variable>.PreParseInfo.SMPSeqSyntax.PROFILE
	cmp	r1, #1	@ <variable>.PreParseInfo.SMPSeqSyntax.PROFILE,
	beq	.L767	@,
.L749:
	mov	r7, #0	@ Ret,
.L740:
	mov	r0, r7	@, Ret
	ldmfd	sp, {r4, r5, r6, r7, fp, sp, pc}	@
.L762:
	mov	r7, #1	@ Ret,
	mov	r0, #5	@ tmp155,
	strb	r0, [r4, #251]	@ tmp155, <variable>.SMPPicSyntax.PTYPE
	strb	r0, [r5, #2]	@ tmp155, <variable>.PicCodingType
	mov	r0, r7	@, Ret
	ldmfd	sp, {r4, r5, r6, r7, fp, sp, pc}	@
.L764:
	mov	r0, r6	@, pBs
	mov	r1, #1	@,
	bl	BsGet	@
	ldrb	lr, [r4, #13]	@ zero_extendqisi2	@ <variable>.SMPSeqSyntax.MAXBFRAMES, <variable>.SMPSeqSyntax.MAXBFRAMES
	cmp	lr, #0	@ <variable>.SMPSeqSyntax.MAXBFRAMES,
	strb	r0, [r4, #250]	@, <variable>.SMPPicSyntax.RANGEREDFRM
	bne	.L745	@,
	b	.L768	@
.L763:
	mov	r0, r6	@, pBs
	mov	r1, #1	@,
	bl	BsGet	@
	uxtb	r2, r0	@ prephitmp.2338,
	strb	r2, [r4, #248]	@ prephitmp.2338, <variable>.SMPPicSyntax.INTERPFRM
	b	.L743	@
.L765:
	mov	r0, #0	@ tmp178,
.L760:
	strb	r0, [r4, #251]	@ tmp178, <variable>.SMPPicSyntax.PTYPE
	b	.L746	@
.L753:
	ldrb	r7, [r5, #3099]	@ zero_extendqisi2	@ <variable>.PreParseInfo.SMPSeqSyntax.PROFILE, <variable>.PreParseInfo.SMPSeqSyntax.PROFILE
	cmp	r7, #1	@ <variable>.PreParseInfo.SMPSeqSyntax.PROFILE,
	bne	.L749	@,
.L761:
	mov	r0, r6	@, pBs
	mov	r1, r5	@, pCodecInf
	mov	r2, r4	@, pSyntax
	bl	VC1_Vfmw_ParseSMPIPicHdr	@
	mov	r7, r0	@ Ret,
.L755:
	mov	r0, r6	@, pBs
	bl	BsPos	@
	ldr	r1, [r4, #324]	@ <variable>.SMPPicSyntax.HdrLen, <variable>.SMPPicSyntax.HdrLen
	movw	ip, #35344	@ tmp190,
	rsb	r3, r1, r0	@ tmp189, <variable>.SMPPicSyntax.HdrLen,
	mov	r0, r6	@, pBs
	str	r3, [r4, #324]	@ tmp189, <variable>.SMPPicSyntax.HdrLen
	ldr	r4, [r5, ip]	@ <variable>.stCurPacket.BsLength, <variable>.stCurPacket.BsLength
	bl	BsPos	@
	mov	r4, r4, asl #3	@ D.37738, <variable>.stCurPacket.BsLength,
	rsb	r2, r0, r4	@ tmp192,, D.37738
	cmp	r2, #0	@ tmp192,
	bgt	.L740	@,
	movw	r1, #:lower16:.LC17	@,
	mov	r0, #1	@,
	movt	r1, #:upper16:.LC17	@,
	mov	r7, #0	@ Ret,
	bl	dprint_vfmw	@
	b	.L740	@
.L751:
	mov	r0, r6	@, pBs
	mov	r1, r5	@, pCodecInf
	mov	r2, r4	@, pSyntax
	bl	VC1_Vfmw_ParseSMPPPicHdr	@
	mov	r7, r0	@ Ret,
	b	.L755	@
.L767:
	mov	r0, r6	@, pBs
	mov	r1, r5	@, pCodecInf
	mov	r2, r4	@, pSyntax
	bl	VC1_Vfmw_ParseMPBPicHdr	@
	mov	r7, r0	@ Ret,
	b	.L755	@
.L766:
	strb	r3, [r4, #252]	@ D.37718, <variable>.SMPPicSyntax.BFRACTION
	ldrb	r0, [r4, #251]	@ zero_extendqisi2	@ prephitmp.2349, <variable>.SMPPicSyntax.PTYPE
	b	.L746	@
	.fnend
	.size	VC1_Vfmw_ParseSMPPicHdr, .-VC1_Vfmw_ParseSMPPicHdr
	.align	2
	.global	VC1_Vfmw_ParseHeader
	.type	VC1_Vfmw_ParseHeader, %function
VC1_Vfmw_ParseHeader:
	.fnstart
.LFB1419:
	@ args = 0, pretend = 0, frame = 0
	@ frame_needed = 1, uses_anonymous_args = 0
	.movsp ip
	mov	ip, sp	@,
	stmfd	sp!, {r3, r4, fp, ip, lr, pc}	@,
	.pad #4
	.save {r3, r4, fp, ip, lr}
	.setfp fp, ip, #-4
	sub	fp, ip, #4	@,,
	push	{lr}
	bl	__gnu_mcount_nc
	ldrb	r3, [r0, #3096]	@ zero_extendqisi2	@, <variable>.PreParseInfo.IsAdvProfile
	mov	r4, r0	@ pCodecInf, pCodecInf
	cmp	r3, #0	@ <variable>.PreParseInfo.IsAdvProfile,
	bne	.L770	@,
	ldrb	lr, [r0, #0]	@ zero_extendqisi2	@ <variable>.CodecStatus, <variable>.CodecStatus
	mov	r2, r1	@, pSyntax
	ldr	r0, [r0, #3128]	@, <variable>.pBs
	mov	r1, r4	@, pCodecInf
	orr	ip, lr, #3	@ tmp143, <variable>.CodecStatus,
	strb	ip, [r4, #0]	@ tmp143, <variable>.CodecStatus
	bl	VC1_Vfmw_ParseSMPPicHdr	@
	cmp	r0, #1	@ Ret,
	ldreqb	r3, [r4, #0]	@ zero_extendqisi2	@ <variable>.CodecStatus, <variable>.CodecStatus
	orreq	r3, r3, #20	@ tmp148, <variable>.CodecStatus,
	streqb	r3, [r4, #0]	@ tmp148, <variable>.CodecStatus
	ldmfd	sp, {r3, r4, fp, sp, pc}	@
.L770:
	bl	VC1_Vfmw_ParseAdvHdr	@
	ldmfd	sp, {r3, r4, fp, sp, pc}	@
	.fnend
	.size	VC1_Vfmw_ParseHeader, .-VC1_Vfmw_ParseHeader
	.align	2
	.global	VC1_Vfmw_MemMove
	.type	VC1_Vfmw_MemMove, %function
VC1_Vfmw_MemMove:
	.fnstart
.LFB1379:
	@ args = 0, pretend = 0, frame = 0
	@ frame_needed = 1, uses_anonymous_args = 0
	.movsp ip
	mov	ip, sp	@,
	stmfd	sp!, {fp, ip, lr, pc}	@,
	.pad #4
	.save {fp, ip, lr}
	.setfp fp, ip, #-4
	sub	fp, ip, #4	@,,
	push	{lr}
	bl	__gnu_mcount_nc
	movw	r2, #22948	@ tmp143,
	ldr	ip, [r0, r2]	@ <variable>.MbHeight, <variable>.MbHeight
	movw	r3, #22968	@ tmp137,
	ldr	lr, [r0, r3]	@ <variable>.DDR_Stride, <variable>.DDR_Stride
	movw	r1, #22932	@ tmp156,
	add	r2, ip, #1	@ tmp144, <variable>.MbHeight,
	movw	r3, #22928	@ tmp135,
	ldr	r3, [r0, r3]	@ <variable>.pCurFrm, <variable>.pCurFrm
	add	ip, lr, lr, asl #1	@, tmp141, <variable>.DDR_Stride, <variable>.DDR_Stride,
	add	lr, r2, r2, lsr #31	@, tmp148, tmp144, tmp144,
	ldr	r1, [r0, r1]	@ <variable>.pRef, <variable>.pRef
	mov	r0, ip, asl #5	@ tmp142, tmp141,
	mov	ip, lr, asr #1	@ tmp149, tmp148,
	mul	r2, ip, r0	@ tmp150, tmp149, tmp142
	ldr	r1, [r1, #1064]	@, <variable>.img.luma_vir_addr
	ldr	r0, [r3, #1064]	@, <variable>.img.luma_vir_addr
	mov	r2, r2, asr #1	@, tmp150,
	bl	memcpy	@
	ldmfd	sp, {fp, sp, pc}	@
	.fnend
	.size	VC1_Vfmw_MemMove, .-VC1_Vfmw_MemMove
	.align	2
	.global	VC1_WriteSliceMsg
	.type	VC1_WriteSliceMsg, %function
VC1_WriteSliceMsg:
	.fnstart
.LFB1371:
	@ args = 0, pretend = 0, frame = 0
	@ frame_needed = 1, uses_anonymous_args = 0
	.movsp ip
	mov	ip, sp	@,
	stmfd	sp!, {fp, ip, lr, pc}	@,
	.pad #4
	.save {fp, ip, lr}
	.setfp fp, ip, #-4
	sub	fp, ip, #4	@,,
	push	{lr}
	bl	__gnu_mcount_nc
	movw	r2, #23028	@ tmp135,
	ldr	lr, [r0, r2]	@ <variable>.SlcNum, <variable>.SlcNum
	mov	ip, r1	@ pVc1DecParam, pVc1DecParam
	mov	r3, r0	@ pCodecInf, pCodecInf
	add	r1, r0, #22784	@, pCodecInf,
	add	r0, ip, #84	@, pVc1DecParam,
	add	r1, r1, #248	@,,
	strb	lr, [ip, #70]	@ <variable>.SlcNum, <variable>.SlcNum
	ldr	ip, [r3, r2]	@ <variable>.SlcNum, <variable>.SlcNum
	add	r2, ip, ip, asl #1	@, tmp143, <variable>.SlcNum, <variable>.SlcNum,
	mov	r2, r2, asl #4	@, tmp143,
	bl	memcpy	@
	ldmfd	sp, {fp, sp, pc}	@
	.fnend
	.size	VC1_WriteSliceMsg, .-VC1_WriteSliceMsg
	.align	2
	.global	VC1_Vfmw_DecodeArbiter
	.type	VC1_Vfmw_DecodeArbiter, %function
VC1_Vfmw_DecodeArbiter:
	.fnstart
.LFB1378:
	@ args = 0, pretend = 0, frame = 0
	@ frame_needed = 1, uses_anonymous_args = 0
	.movsp ip
	mov	ip, sp	@,
	stmfd	sp!, {r4, r5, r6, r7, r8, sl, fp, ip, lr, pc}	@,
	.pad #4
	.save {r4, r5, r6, r7, r8, sl, fp, ip, lr}
	.setfp fp, ip, #-4
	sub	fp, ip, #4	@,,
	push	{lr}
	bl	__gnu_mcount_nc
	movw	r3, #:lower16:78240	@ tmp149,
	movt	r3, #:upper16:78240	@ tmp149,
	mov	r4, r0	@ pVC1_CTX_S, pVC1_CTX_S
	ldrb	r2, [r0, r3]	@ zero_extendqisi2	@ D.36688, <variable>.CodecInfo.CodecStatus
	tst	r2, #16	@ D.36688,
	beq	.L778	@,
	movw	r1, #:lower16:113676	@ tmp154,
	movt	r1, #:upper16:113676	@ tmp154,
	bic	r2, r2, #20	@ tmp152, D.36688,
	strb	r2, [r0, r3]	@ tmp152, <variable>.CodecInfo.CodecStatus
	ldr	r0, [r0, r1]	@ <variable>.CodecInfo.UsedDecMode, <variable>.CodecInfo.UsedDecMode
	sub	r3, r0, #2	@ tmp155, <variable>.CodecInfo.UsedDecMode,
	cmp	r3, #1	@ tmp155,
	bls	.L779	@,
.L802:
	ldr	r3, [r4, #0]	@ <variable>.pstExtraData, <variable>.pstExtraData
	ldr	r1, [r3, #8]	@ prephitmp.2453, <variable>.s32DecMode
.L780:
	movw	r0, #:lower16:113676	@ tmp225,
	movt	r0, #:upper16:113676	@ tmp225,
	sub	r2, r1, #1	@ tmp226, prephitmp.2453,
	str	r1, [r4, r0]	@ prephitmp.2453, <variable>.CodecInfo.UsedDecMode
	cmp	r2, #3	@ tmp226,
	ldrls	pc, [pc, r2, asl #2]	@ tmp226
	b	.L784	@
.L789:
	.word	.L785
	.word	.L786
	.word	.L787
	.word	.L788
.L785:
	movw	lr, #:lower16:78242	@ tmp227,
	movt	lr, #:upper16:78242	@ tmp227,
	ldrb	r1, [r4, lr]	@ zero_extendqisi2	@ D.36727, <variable>.CodecInfo.PicCodingType
	cmp	r1, #4	@ D.36727,
	cmpne	r1, #2	@, D.36727,
	beq	.L787	@,
.L784:
	mov	r2, #1	@ ret,
.L792:
	movw	ip, #:lower16:101248	@ tmp252,
	movt	ip, #:upper16:101248	@ tmp252,
	ldr	r3, [r4, ip]	@ D.36752, <variable>.CodecInfo.RefNum
	cmp	r3, #0	@ D.36752,
	bne	.L793	@,
.L804:
	movw	r3, #:lower16:78242	@ tmp253,
	movt	r3, #:upper16:78242	@ tmp253,
	ldrb	r3, [r4, r3]	@ zero_extendqisi2	@ D.36754, <variable>.CodecInfo.PicCodingType
	cmp	r3, #1	@ D.36754,
	cmpne	r3, #5	@, D.36754,
	beq	.L794	@,
	cmp	r3, #4	@ D.36754,
	beq	.L794	@,
	cmp	r3, #2	@ D.36754,
	bne	.L795	@,
.L794:
	movw	r1, #:lower16:.LC19	@,
	mov	r0, #1	@,
	movt	r1, #:upper16:.LC19	@,
	bl	dprint_vfmw	@
.L796:
	movw	r5, #:lower16:114064	@ tmp273,
	movt	r5, #:upper16:114064	@ tmp273,
	add	lr, r4, #77824	@, pVC1_CTX_S,
	add	r0, lr, #416	@,,
	ldr	r1, [r4, r5]	@, <variable>.ChanID
	bl	VC1_ClearCurPic	@
	movw	r2, #:lower16:g_event_report	@ tmp275,
	movt	r2, #:upper16:g_event_report	@ tmp275,
	ldr	r3, [r2, #0]	@ g_event_report.469, g_event_report
	cmp	r3, #0	@ g_event_report.469,
	beq	.L778	@,
	ldr	r0, [r4, r5]	@, <variable>.ChanID
	mov	r1, #113	@,
	mov	r2, #0	@,
	blx	r3	@ g_event_report.469
	mov	r0, #0	@ ret.2475,
	ldmfd	sp, {r4, r5, r6, r7, r8, sl, fp, sp, pc}	@
.L806:
	cmp	r3, #2	@ prephitmp.2455,
	bne	.L791	@,
	movw	r1, #:lower16:113608	@ tmp241,
	movt	r1, #:upper16:113608	@ tmp241,
	ldr	r0, [r4, r1]	@ <variable>.CodecInfo.PPicFound, <variable>.CodecInfo.PPicFound
	cmp	r0, #0	@ <variable>.CodecInfo.PPicFound,
	bne	.L784	@,
.L787:
	mov	r2, #0	@ ret,
.L807:
	movw	ip, #:lower16:101248	@ tmp252,
	movt	ip, #:upper16:101248	@ tmp252,
	ldr	r3, [r4, ip]	@ D.36752, <variable>.CodecInfo.RefNum
	cmp	r3, #0	@ D.36752,
	beq	.L804	@,
.L793:
	cmp	r3, #1	@ D.36752,
	bls	.L805	@,
.L795:
	cmp	r2, #0	@ ret,
	beq	.L796	@,
	movw	r3, #:lower16:81336	@ tmp278,
	movt	r3, #:upper16:81336	@ tmp278,
	ldrsb	ip, [r4, r3]	@ <variable>.CodecInfo.PreParseInfo.IsAdvProfile, <variable>.CodecInfo.PreParseInfo.IsAdvProfile
	cmp	ip, #0	@ <variable>.CodecInfo.PreParseInfo.IsAdvProfile,
	bne	.L799	@,
	add	ip, r4, #80896	@ tmp283, pVC1_CTX_S,
	add	r2, r4, #88064	@ tmp282, pVC1_CTX_S,
	add	r3, ip, #504	@ tmp283, tmp283,
	add	lr, r2, #528	@ tmp282, tmp282,
	ldmia	r3, {r0, r1, r2, r3}	@ tmp283,,,,
	stmia	lr, {r0, r1, r2, r3}	@ tmp282,,,,
	add	r1, r4, #80896	@, pVC1_CTX_S,
	add	r0, r4, #88064	@, pVC1_CTX_S,
	add	r1, r1, #752	@,,
	add	r0, r0, #776	@,,
	mov	r2, #100	@,
	bl	memcpy	@
	mov	r0, #1	@ ret.2475,
	ldmfd	sp, {r4, r5, r6, r7, r8, sl, fp, sp, pc}	@
.L778:
	mov	r0, #0	@ ret.2475,
	ldmfd	sp, {r4, r5, r6, r7, r8, sl, fp, sp, pc}	@
.L779:
	ldr	ip, [r4, #0]	@ <variable>.pstExtraData, <variable>.pstExtraData
	ldr	r2, [ip, #8]	@ D.36700, <variable>.s32DecMode
	cmp	r2, #4	@ D.36700,
	cmpne	r2, #1	@, D.36700,
	mov	r1, r2	@ prephitmp.2453, D.36700
	bhi	.L780	@,
	movw	r5, #:lower16:114064	@ tmp167,
	movw	r7, #:lower16:101256	@ tmp169,
	movt	r5, #:upper16:114064	@ tmp167,
	movt	r7, #:upper16:101256	@ tmp169,
	mov	r0, #2	@,
	movw	r1, #:lower16:.LC18	@,
	movt	r1, #:upper16:.LC18	@,
	bl	dprint_vfmw	@
	ldr	r0, [r4, r5]	@, <variable>.ChanID
	ldr	r1, [r4, r7]	@, <variable>.CodecInfo.BwdFsID
	bl	FSP_GetFsImagePtr	@
	subs	r6, r0, #0	@ pImg,
	beq	.L781	@,
	ldr	r0, [r4, r5]	@, <variable>.ChanID
	movw	sl, #:lower16:101252	@ tmp193,
	ldr	r1, [r6, #192]	@, <variable>.p_usrdat
	movt	sl, #:upper16:101252	@ tmp193,
	bl	FreeUsdByDec	@
	ldr	r0, [r4, r5]	@, <variable>.ChanID
	ldr	r1, [r6, #196]	@, <variable>.p_usrdat
	mov	r8, #0	@ tmp183,
	bl	FreeUsdByDec	@
	ldr	r0, [r4, r5]	@, <variable>.ChanID
	ldr	r1, [r6, #200]	@, <variable>.p_usrdat
	bl	FreeUsdByDec	@
	ldr	r0, [r4, r5]	@, <variable>.ChanID
	ldr	r1, [r6, #204]	@, <variable>.p_usrdat
	bl	FreeUsdByDec	@
	str	r8, [r6, #204]	@ tmp183, <variable>.p_usrdat
	str	r8, [r6, #192]	@ tmp183, <variable>.p_usrdat
	mov	r2, #1	@,
	str	r8, [r6, #196]	@ tmp183, <variable>.p_usrdat
	str	r8, [r6, #200]	@ tmp183, <variable>.p_usrdat
	ldr	r0, [r4, r5]	@, <variable>.ChanID
	ldr	r1, [r4, r7]	@, <variable>.CodecInfo.BwdFsID
	bl	FSP_ClearLogicFs	@
	ldr	r0, [r4, r5]	@, <variable>.ChanID
	ldr	r1, [r4, sl]	@, <variable>.CodecInfo.FwdFsID
	mov	r2, #1	@,
	bl	FSP_ClearLogicFs	@
	str	r8, [r4, r7]	@ tmp183, <variable>.CodecInfo.BwdFsID
	str	r8, [r4, sl]	@ tmp183, <variable>.CodecInfo.FwdFsID
	ldr	r0, [r4, r5]	@, <variable>.ChanID
	bl	FSP_GetNullLogicFs	@
	str	r0, [r4, sl]	@ D.36719, <variable>.CodecInfo.FwdFsID
	str	r0, [r4, r7]	@ D.36719, <variable>.CodecInfo.BwdFsID
.L781:
	movw	r1, #:lower16:101172	@ tmp205,
	movt	r1, #:upper16:101172	@ tmp205,
	mov	r3, #0	@ tmp204,
	movw	lr, #:lower16:101248	@ tmp203,
	ldr	r0, [r4, r1]	@ D.36720, <variable>.CodecInfo.pRef
	movt	lr, #:upper16:101248	@ tmp203,
	cmp	r0, r3	@ D.36720,
	str	r3, [r4, lr]	@ tmp204, <variable>.CodecInfo.RefNum
	beq	.L802	@,
	movw	r2, #:lower16:101176	@ tmp207,
	movt	r2, #:upper16:101176	@ tmp207,
	ldr	ip, [r4, r2]	@ <variable>.CodecInfo.pRef, <variable>.CodecInfo.pRef
	cmp	ip, #0	@ <variable>.CodecInfo.pRef,
	strneb	r3, [r0, #1]	@ tmp204, <variable>.is_to_display
	ldrne	r0, [r4, r2]	@ <variable>.CodecInfo.pRef, <variable>.CodecInfo.pRef
	strneb	r3, [r0, #1]	@ tmp204, <variable>.is_to_display
	ldrne	r1, [r4, r1]	@ <variable>.CodecInfo.pRef, <variable>.CodecInfo.pRef
	strneb	r3, [r1, #0]	@ tmp204, <variable>.is_to_ref
	ldrne	r2, [r4, r2]	@ <variable>.CodecInfo.pRef, <variable>.CodecInfo.pRef
	strneb	r3, [r2, #0]	@ tmp204, <variable>.is_to_ref
	b	.L802	@
.L788:
	movw	r3, #:lower16:78242	@ tmp237,
	movt	r3, #:upper16:78242	@ tmp237,
	ldrb	r3, [r4, r3]	@ zero_extendqisi2	@ prephitmp.2455, <variable>.CodecInfo.PicCodingType
	cmp	r3, #0	@ prephitmp.2455,
	movweq	r2, #:lower16:113608	@ tmp238,
	movteq	r2, #:upper16:113608	@ tmp238,
	streq	r3, [r4, r2]	@ prephitmp.2455, <variable>.CodecInfo.PPicFound
	bne	.L806	@,
.L791:
	cmp	r3, #1	@ prephitmp.2455,
	cmpne	r3, #5	@, prephitmp.2455,
	bne	.L784	@,
	movw	lr, #:lower16:113608	@ tmp250,
	movt	lr, #:upper16:113608	@ tmp250,
	mov	r2, #1	@ tmp251,
	str	r2, [r4, lr]	@ tmp251, <variable>.CodecInfo.PPicFound
	b	.L792	@
.L786:
	movw	ip, #:lower16:78242	@ tmp235,
	movt	ip, #:upper16:78242	@ tmp235,
	ldrb	r2, [r4, ip]	@ zero_extendqisi2	@ <variable>.CodecInfo.PicCodingType, <variable>.CodecInfo.PicCodingType
	cmp	r2, #0	@ <variable>.CodecInfo.PicCodingType,
	beq	.L784	@,
	mov	r2, #0	@ ret,
	b	.L807	@
.L799:
	add	r0, r4, #88064	@, pVC1_CTX_S,
	add	r1, r4, #80896	@, pVC1_CTX_S,
	add	r1, r1, #520	@,,
	mov	r2, #172	@,
	add	r0, r0, #544	@,,
	add	r5, r4, #88064	@ tmp298, pVC1_CTX_S,
	bl	memcpy	@
	add	r2, r4, #80896	@ tmp299, pVC1_CTX_S,
	add	lr, r2, #692	@ tmp299, tmp299,
	add	ip, r5, #716	@ tmp298, tmp298,
	ldmia	lr!, {r0, r1, r2, r3}	@ tmp328,,,,
	mov	r5, ip	@ tmp329, tmp298
	stmia	r5!, {r0, r1, r2, r3}	@ tmp329,,,,
	mov	ip, r5	@ tmp331, tmp329
	ldmia	lr!, {r0, r1, r2, r3}	@ tmp330,,,,
	stmia	ip!, {r0, r1, r2, r3}	@ tmp331,,,,
	ldmia	lr!, {r0, r1, r2, r3}	@ tmp332,,,,
	stmia	ip!, {r0, r1, r2, r3}	@ tmp331,,,,
	add	r3, r4, #88064	@, pVC1_CTX_S,
	ldmia	lr, {r0, r1, r2}	@ tmp332,,,
	add	lr, r4, #80896	@, pVC1_CTX_S,
	stmia	ip, {r0, r1, r2}	@ tmp333,,,
	add	r1, lr, #852	@,,
	add	r0, r3, #876	@,,
	mov	r2, #176	@,
	bl	memcpy	@
	movw	ip, #:lower16:101268	@ tmp312,
	movt	ip, #:upper16:101268	@ tmp312,
	movw	r0, #:lower16:81792	@ tmp307,
	movt	r0, #:upper16:81792	@ tmp307,
	movw	r3, #:lower16:78244	@ tmp306,
	ldr	r2, [r4, ip]	@ <variable>.CodecInfo.SlcNum, <variable>.CodecInfo.SlcNum
	movt	r3, #:upper16:78244	@ tmp306,
	ldr	ip, [r4, r0]	@ <variable>.CodecInfo.SynNew.AdvPicSyntax.FCM, <variable>.CodecInfo.SynNew.AdvPicSyntax.FCM
	add	r1, r4, #81920	@, pVC1_CTX_S,
	add	r0, r4, #89088	@, pVC1_CTX_S,
	add	r1, r1, #4	@,,
	add	r2, r2, r2, asl #1	@, tmp316, <variable>.CodecInfo.SlcNum, <variable>.CodecInfo.SlcNum,
	add	r0, r0, #28	@,,
	strb	ip, [r4, r3]	@ <variable>.CodecInfo.SynNew.AdvPicSyntax.FCM, <variable>.CodecInfo.PicStructure
	mov	r2, r2, asl #2	@, tmp316,
	bl	memcpy	@
	mov	r0, #1	@ ret.2475,
	ldmfd	sp, {r4, r5, r6, r7, r8, sl, fp, sp, pc}	@
.L805:
	movw	r1, #:lower16:78242	@ tmp262,
	movt	r1, #:upper16:78242	@ tmp262,
	ldrb	r0, [r4, r1]	@ zero_extendqisi2	@ D.36763, <variable>.CodecInfo.PicCodingType
	cmp	r0, #4	@ D.36763,
	cmpne	r0, #2	@, D.36763,
	bne	.L795	@,
	movw	r1, #:lower16:.LC20	@,
	mov	r0, #1	@,
	movt	r1, #:upper16:.LC20	@,
	bl	dprint_vfmw	@
	b	.L796	@
	.fnend
	.size	VC1_Vfmw_DecodeArbiter, .-VC1_Vfmw_DecodeArbiter
	.align	2
	.global	VC1_WritePicMsg
	.type	VC1_WritePicMsg, %function
VC1_WritePicMsg:
	.fnstart
.LFB1370:
	@ args = 0, pretend = 0, frame = 96
	@ frame_needed = 1, uses_anonymous_args = 0
	.movsp ip
	mov	ip, sp	@,
	stmfd	sp!, {r4, r5, r6, r7, r8, r9, sl, fp, ip, lr, pc}	@,
	.pad #4
	.save {r4, r5, r6, r7, r8, r9, sl, fp, ip, lr}
	.setfp fp, ip, #-4
	sub	fp, ip, #4	@,,
	.pad #100
	sub	sp, sp, #100	@,,
	push	{lr}
	bl	__gnu_mcount_nc
	movw	r2, #:lower16:114064	@ tmp149,
	movw	r3, #:lower16:101260	@ tmp151,
	movt	r2, #:upper16:114064	@ tmp149,
	movt	r3, #:upper16:101260	@ tmp151,
	mov	r4, r0	@ pCtx, pCtx
	mov	r5, r1	@ pVc1DecParam, pVc1DecParam
	ldr	r0, [r0, r2]	@, <variable>.ChanID
	ldr	r1, [r4, r3]	@, <variable>.CodecInfo.CurFsID
	bl	FSP_GetLogicFs	@
	cmp	r0, #0	@
	str	r0, [fp, #-52]	@, %sfp
	beq	.L833	@,
	movw	r0, #:lower16:81336	@ tmp154,
	movt	r0, #:upper16:81336	@ tmp154,
	ldrsb	r3, [r4, r0]	@ <variable>.CodecInfo.PreParseInfo.IsAdvProfile, <variable>.CodecInfo.PreParseInfo.IsAdvProfile
	cmp	r3, #0	@ <variable>.CodecInfo.PreParseInfo.IsAdvProfile,
	bne	.L834	@,
	movw	r0, #:lower16:88592	@ tmp440,
	movt	r0, #:upper16:88592	@ tmp440,
	strb	r3, [r5, #5]	@ <variable>.CodecInfo.PreParseInfo.IsAdvProfile, <variable>.fcm
	movw	r2, #:lower16:88843	@ tmp443,
	ldrb	lr, [r4, r0]	@ zero_extendqisi2	@ <variable>.CodecInfo.SMPSeqSyntax.PROFILE, <variable>.CodecInfo.SMPSeqSyntax.PROFILE
	movt	r2, #:upper16:88843	@ tmp443,
	movw	r8, #:lower16:113628	@ tmp445,
	movt	r8, #:upper16:113628	@ tmp445,
	movw	r7, #:lower16:113624	@ tmp449,
	movt	r7, #:upper16:113624	@ tmp449,
	strb	lr, [r5, #4]	@ <variable>.CodecInfo.SMPSeqSyntax.PROFILE, <variable>.profile
	movw	r0, #:lower16:88595	@ tmp455,
	ldrb	r9, [r4, r2]	@ zero_extendqisi2	@ iftmp.445, <variable>.CodecInfo.SMPPicSyntax.PTYPE
	movt	r0, #:upper16:88595	@ tmp455,
	movw	r2, #:lower16:78248	@ tmp460,
	movt	r2, #:upper16:78248	@ tmp460,
	cmp	r9, #4	@ iftmp.445,
	moveq	r9, #3	@ iftmp.445,
	strb	r9, [r5, #3]	@ iftmp.445, <variable>.ptype
	ldr	sl, [r4, r8]	@ <variable>.CodecInfo.CurPicMbHeight, <variable>.CodecInfo.CurPicMbHeight
	movw	r9, #:lower16:88598	@ tmp467,
	movt	r9, #:upper16:88598	@ tmp467,
	movw	r8, #:lower16:88602	@ tmp470,
	sub	r1, sl, #1	@ tmp448, <variable>.CodecInfo.CurPicMbHeight,
	strh	r1, [r5, #80]	@ movhi	@ tmp448, <variable>.mbheight
	ldr	r6, [r4, r7]	@ <variable>.CodecInfo.CurPicMbWidth, <variable>.CodecInfo.CurPicMbWidth
	movt	r8, #:upper16:88602	@ tmp470,
	strb	r3, [r5, #8]	@ <variable>.CodecInfo.PreParseInfo.IsAdvProfile, <variable>.curparity
	movw	r7, #:lower16:88862	@ tmp473,
	sub	ip, r6, #1	@ tmp452, <variable>.CodecInfo.CurPicMbWidth,
	strh	ip, [r5, #78]	@ movhi	@ tmp452, <variable>.mbwidth
	ldrb	lr, [r4, r0]	@ zero_extendqisi2	@ <variable>.CodecInfo.SMPSeqSyntax.LOOPFILTER, <variable>.CodecInfo.SMPSeqSyntax.LOOPFILTER
	movt	r7, #:upper16:88862	@ tmp473,
	strb	r3, [r5, #9]	@ <variable>.CodecInfo.PreParseInfo.IsAdvProfile, <variable>.numref
	movw	r6, #:lower16:88872	@ tmp476,
	movt	r6, #:upper16:88872	@ tmp476,
	movw	ip, #:lower16:88847	@ tmp479,
	strb	lr, [r5, #6]	@ <variable>.CodecInfo.SMPSeqSyntax.LOOPFILTER, <variable>.loopfilter
	movt	ip, #:upper16:88847	@ tmp479,
	ldrb	sl, [r4, r2]	@ zero_extendqisi2	@ <variable>.CodecInfo.Is2ndFld, <variable>.CodecInfo.Is2ndFld
	movw	r2, #:lower16:88846	@ tmp482,
	strb	r3, [r5, #10]	@ <variable>.CodecInfo.PreParseInfo.IsAdvProfile, <variable>.fwd_fcm
	movt	r2, #:upper16:88846	@ tmp482,
	strb	r3, [r5, #11]	@ <variable>.CodecInfo.PreParseInfo.IsAdvProfile, <variable>.bwd_fcm
	movw	lr, #:lower16:88932	@ tmp485,
	strb	sl, [r5, #7]	@ <variable>.CodecInfo.Is2ndFld, <variable>.issecondfld
	movt	lr, #:upper16:88932	@ tmp485,
	ldrb	r0, [r4, r9]	@ zero_extendqisi2	@ <variable>.CodecInfo.SMPSeqSyntax.FASTUVMC, <variable>.CodecInfo.SMPSeqSyntax.FASTUVMC
	movw	r9, #:lower16:88606	@ tmp488,
	movt	r9, #:upper16:88606	@ tmp488,
	strb	r0, [r5, #13]	@ <variable>.CodecInfo.SMPSeqSyntax.FASTUVMC, <variable>.fastuvmc
	ldrb	r1, [r4, r8]	@ zero_extendqisi2	@ <variable>.CodecInfo.SMPSeqSyntax.OVERLAP, <variable>.CodecInfo.SMPSeqSyntax.OVERLAP
	strb	r1, [r5, #14]	@ <variable>.CodecInfo.SMPSeqSyntax.OVERLAP, <variable>.overlap
	ldrb	r8, [r4, r7]	@ zero_extendqisi2	@ <variable>.CodecInfo.SMPPicSyntax.RNDCTRL, <variable>.CodecInfo.SMPPicSyntax.RNDCTRL
	strb	r8, [r5, #12]	@ <variable>.CodecInfo.SMPPicSyntax.RNDCTRL, <variable>.rndctrl
	ldrb	r7, [r4, r6]	@ zero_extendqisi2	@ <variable>.CodecInfo.SMPPicSyntax.VOPDQUANT.ALTPQUANT, <variable>.CodecInfo.SMPPicSyntax.VOPDQUANT.ALTPQUANT
	strb	r7, [r5, #18]	@ <variable>.CodecInfo.SMPPicSyntax.VOPDQUANT.ALTPQUANT, <variable>.altpquant
	ldrb	r6, [r4, ip]	@ zero_extendqisi2	@ <variable>.CodecInfo.SMPPicSyntax.HALFQP, <variable>.CodecInfo.SMPPicSyntax.HALFQP
	strb	r6, [r5, #19]	@ <variable>.CodecInfo.SMPPicSyntax.HALFQP, <variable>.halfqp
	ldrb	ip, [r4, r2]	@ zero_extendqisi2	@ <variable>.CodecInfo.SMPPicSyntax.PQINDEX, <variable>.CodecInfo.SMPPicSyntax.PQINDEX
	strb	ip, [r5, #17]	@ <variable>.CodecInfo.SMPPicSyntax.PQINDEX, <variable>.pqindex
	ldr	sl, [r4, lr]	@ <variable>.CodecInfo.SMPPicSyntax.PQUANT, <variable>.CodecInfo.SMPPicSyntax.PQUANT
	strb	sl, [r5, #16]	@ <variable>.CodecInfo.SMPPicSyntax.PQUANT, <variable>.pquant
	ldrb	r1, [r4, r9]	@ zero_extendqisi2	@ D.36111, <variable>.CodecInfo.SMPSeqSyntax.QUANTIZER
	cmp	r1, #0	@ D.36111,
	bne	.L824	@,
	ldrb	ip, [r4, r2]	@ zero_extendqisi2	@ <variable>.CodecInfo.SMPPicSyntax.PQINDEX, <variable>.CodecInfo.SMPPicSyntax.PQINDEX
	cmp	ip, #8	@ <variable>.CodecInfo.SMPPicSyntax.PQINDEX,
	movhi	r3, #0	@, tmp491
	movls	r3, #1	@, tmp491
	strb	r3, [r5, #20]	@ tmp491, <variable>.buniform
.L825:
	movw	r2, #:lower16:88866	@ tmp501,
	movt	r2, #:upper16:88866	@ tmp501,
	movw	sl, #:lower16:88865	@ tmp504,
	movt	sl, #:upper16:88865	@ tmp504,
	ldrb	lr, [r4, r2]	@ zero_extendqisi2	@ <variable>.CodecInfo.SMPPicSyntax.VOPDQUANT.DQBILEVEL, <variable>.CodecInfo.SMPPicSyntax.VOPDQUANT.DQBILEVEL
	movw	r8, #:lower16:88600	@ tmp507,
	movt	r8, #:upper16:88600	@ tmp507,
	movw	r1, #:lower16:88864	@ tmp510,
	movt	r1, #:upper16:88864	@ tmp510,
	movw	r0, #:lower16:88876	@ tmp513,
	strb	lr, [r5, #24]	@ <variable>.CodecInfo.SMPPicSyntax.VOPDQUANT.DQBILEVEL, <variable>.dqbilevel
	movt	r0, #:upper16:88876	@ tmp513,
	ldrb	r7, [r4, sl]	@ zero_extendqisi2	@ <variable>.CodecInfo.SMPPicSyntax.VOPDQUANT.DQPROFILE, <variable>.CodecInfo.SMPPicSyntax.VOPDQUANT.DQPROFILE
	movw	r9, #:lower16:88861	@,
	movt	r9, #:upper16:88861	@,
	movw	r3, #:lower16:88867	@ tmp516,
	movt	r3, #:upper16:88867	@ tmp516,
	movw	r2, #:lower16:88851	@ tmp519,
	strb	r7, [r5, #23]	@ <variable>.CodecInfo.SMPPicSyntax.VOPDQUANT.DQPROFILE, <variable>.dqprofile
	movt	r2, #:upper16:88851	@ tmp519,
	ldrb	r6, [r4, r8]	@ zero_extendqisi2	@ <variable>.CodecInfo.SMPSeqSyntax.DQUANT, <variable>.CodecInfo.SMPSeqSyntax.DQUANT
	movw	lr, #:lower16:88852	@ tmp522,
	movt	lr, #:upper16:88852	@ tmp522,
	movw	sl, #:lower16:101172	@ tmp526,
	movt	sl, #:upper16:101172	@ tmp526,
	movw	r8, #:lower16:101168	@ tmp530,
	strb	r6, [r5, #22]	@ <variable>.CodecInfo.SMPSeqSyntax.DQUANT, <variable>.dquant
	movt	r8, #:upper16:101168	@ tmp530,
	ldrb	ip, [r4, r1]	@ zero_extendqisi2	@ <variable>.CodecInfo.SMPPicSyntax.VOPDQUANT.DQUANTFRM, <variable>.CodecInfo.SMPPicSyntax.VOPDQUANT.DQUANTFRM
	movw	r1, #:lower16:88601	@,
	str	r9, [fp, #-48]	@, %sfp
	movt	r1, #:upper16:88601	@,
	movw	r9, #:lower16:88859	@,
	movt	r9, #:upper16:88859	@,
	strb	ip, [r5, #25]	@ <variable>.CodecInfo.SMPPicSyntax.VOPDQUANT.DQUANTFRM, <variable>.dquantfrm
	movw	ip, #:lower16:88857	@,
	str	r1, [fp, #-56]	@, %sfp
	movt	ip, #:upper16:88857	@,
	ldr	r1, [r4, r0]	@ <variable>.CodecInfo.SMPPicSyntax.VOPDQUANT.QuantMode, <variable>.CodecInfo.SMPPicSyntax.VOPDQUANT.QuantMode
	movw	r0, #:lower16:88858	@,
	str	ip, [fp, #-60]	@, %sfp
	movw	ip, #:lower16:88860	@,
	str	r9, [fp, #-64]	@, %sfp
	movt	ip, #:upper16:88860	@,
	strb	r1, [r5, #26]	@ <variable>.CodecInfo.SMPPicSyntax.VOPDQUANT.QuantMode, <variable>.quantmode
	movt	r0, #:upper16:88858	@,
	str	ip, [fp, #-68]	@, %sfp
	movw	r9, #:lower16:88920	@,
	ldrb	r1, [r4, r3]	@ zero_extendqisi2	@ <variable>.CodecInfo.SMPPicSyntax.VOPDQUANT.UseAltQp, <variable>.CodecInfo.SMPPicSyntax.VOPDQUANT.UseAltQp
	movt	r9, #:upper16:88920	@,
	str	r0, [fp, #-88]	@, %sfp
	movw	r3, #:lower16:88856	@,
	movt	r3, #:upper16:88856	@,
	movw	r7, #:lower16:88849	@ tmp533,
	strb	r1, [r5, #21]	@ <variable>.CodecInfo.SMPPicSyntax.VOPDQUANT.UseAltQp, <variable>.usealtqp
	movt	r7, #:upper16:88849	@ tmp533,
	str	r9, [fp, #-72]	@, %sfp
	movw	r6, #:lower16:88971	@ tmp536,
	ldrb	ip, [r4, r2]	@ zero_extendqisi2	@ <variable>.CodecInfo.SMPPicSyntax.MVMODE, <variable>.CodecInfo.SMPPicSyntax.MVMODE
	movt	r6, #:upper16:88971	@ tmp536,
	movw	r0, #:lower16:88924	@ tmp557,
	movt	r0, #:upper16:88924	@ tmp557,
	movw	r1, #:lower16:88928	@ tmp565,
	movt	r1, #:upper16:88928	@ tmp565,
	strb	ip, [r5, #27]	@ <variable>.CodecInfo.SMPPicSyntax.MVMODE, <variable>.mvmode
	movw	r2, #:lower16:88844	@ tmp569,
	str	r3, [fp, #-76]	@, %sfp
	movw	r3, #:lower16:88604	@,
	ldrb	r9, [r4, lr]	@ zero_extendqisi2	@, <variable>.CodecInfo.SMPPicSyntax.MVMODE2
	movt	r2, #:upper16:88844	@ tmp569,
	str	r3, [fp, #-80]	@, %sfp
	movw	lr, #:lower16:88855	@ tmp575,
	movt	lr, #:upper16:88855	@ tmp575,
	str	r9, [fp, #-84]	@, %sfp
	movw	r9, #:lower16:88936	@ tmp579,
	ldr	ip, [fp, #-84]	@, %sfp
	movt	r9, #:upper16:88936	@ tmp579,
	strb	ip, [r5, #28]	@, <variable>.mvmode2
	ldr	r3, [fp, #-80]	@, %sfp
	movt	r3, #:upper16:88604	@,
	str	r3, [fp, #-80]	@, %sfp
	ldr	ip, [r4, sl]	@ <variable>.CodecInfo.pRef, <variable>.CodecInfo.pRef
	ldrb	sl, [ip, #1029]	@ zero_extendqisi2	@ <variable>.IsHalfPel, <variable>.IsHalfPel
	strb	sl, [r5, #30]	@ <variable>.IsHalfPel, <variable>.colishalfpel
	ldr	r8, [r4, r8]	@ <variable>.CodecInfo.pCurFrm, <variable>.CodecInfo.pCurFrm
	ldrb	r3, [r8, #1029]	@ zero_extendqisi2	@ <variable>.IsHalfPel, <variable>.IsHalfPel
	strb	r3, [r5, #29]	@ <variable>.IsHalfPel, <variable>.curishalfpel
	ldrb	r7, [r4, r7]	@ zero_extendqisi2	@ <variable>.CodecInfo.SMPPicSyntax.MVRANGE, <variable>.CodecInfo.SMPPicSyntax.MVRANGE
	strb	r7, [r5, #31]	@ <variable>.CodecInfo.SMPPicSyntax.MVRANGE, <variable>.mvrange
	ldrb	ip, [r4, r6]	@ zero_extendqisi2	@ <variable>.CodecInfo.AdvPicSyntax.REFDIST, <variable>.CodecInfo.AdvPicSyntax.REFDIST
	strb	ip, [r5, #32]	@ <variable>.CodecInfo.AdvPicSyntax.REFDIST, <variable>.refdist
	ldr	r6, [fp, #-48]	@, %sfp
	ldrb	sl, [r4, r6]	@ zero_extendqisi2	@ <variable>.CodecInfo.SMPPicSyntax.TRANSDCTAB, <variable>.CodecInfo.SMPPicSyntax.TRANSDCTAB
	strb	sl, [r5, #35]	@ <variable>.CodecInfo.SMPPicSyntax.TRANSDCTAB, <variable>.transdctab
	ldr	r8, [fp, #-56]	@, %sfp
	ldrb	r3, [r4, r8]	@ zero_extendqisi2	@ <variable>.CodecInfo.SMPSeqSyntax.VSTRANSFORM, <variable>.CodecInfo.SMPSeqSyntax.VSTRANSFORM
	strb	r3, [r5, #36]	@ <variable>.CodecInfo.SMPSeqSyntax.VSTRANSFORM, <variable>.vstransform
	ldr	r7, [fp, #-60]	@, %sfp
	ldrb	ip, [r4, r7]	@ zero_extendqisi2	@ <variable>.CodecInfo.SMPPicSyntax.TTMBF, <variable>.CodecInfo.SMPPicSyntax.TTMBF
	strb	ip, [r5, #37]	@ <variable>.CodecInfo.SMPPicSyntax.TTMBF, <variable>.ttmbf
	ldr	r6, [fp, #-64]	@, %sfp
	ldrb	sl, [r4, r6]	@ zero_extendqisi2	@ <variable>.CodecInfo.SMPPicSyntax.TRANSACFRM, <variable>.CodecInfo.SMPPicSyntax.TRANSACFRM
	strb	sl, [r5, #38]	@ <variable>.CodecInfo.SMPPicSyntax.TRANSACFRM, <variable>.transacfrm
	ldr	r3, [fp, #-68]	@, %sfp
	ldrb	r8, [r4, r3]	@ zero_extendqisi2	@ <variable>.CodecInfo.SMPPicSyntax.TRANSACFRM2, <variable>.CodecInfo.SMPPicSyntax.TRANSACFRM2
	strb	r8, [r5, #39]	@ <variable>.CodecInfo.SMPPicSyntax.TRANSACFRM2, <variable>.transacfrm2
	ldr	r7, [fp, #-88]	@, %sfp
	ldrb	ip, [r4, r7]	@ zero_extendqisi2	@ <variable>.CodecInfo.SMPPicSyntax.TTFRM, <variable>.CodecInfo.SMPPicSyntax.TTFRM
	strb	ip, [r5, #40]	@ <variable>.CodecInfo.SMPPicSyntax.TTFRM, <variable>.ttfrm
	ldr	r6, [r4, r0]	@ <variable>.CodecInfo.SMPPicSyntax.DIRECTMBMode, <variable>.CodecInfo.SMPPicSyntax.DIRECTMBMode
	rsbs	sl, r6, #1	@ tmp559, <variable>.CodecInfo.SMPPicSyntax.DIRECTMBMode
	movcc	sl, #0	@ tmp559
	strb	sl, [r5, #42]	@ tmp559, <variable>.directmbmodeisskipraw
	ldr	sl, [fp, #-72]	@, %sfp
	ldr	r3, [r4, sl]	@ <variable>.CodecInfo.SMPPicSyntax.MVTYPEMBMode, <variable>.CodecInfo.SMPPicSyntax.MVTYPEMBMode
	rsbs	r0, r3, #1	@ tmp563, <variable>.CodecInfo.SMPPicSyntax.MVTYPEMBMode
	movcc	r0, #0	@ tmp563
	strb	r0, [r5, #43]	@ tmp563, <variable>.mvtypembmodeisskipraw
	ldr	r8, [r4, r1]	@ <variable>.CodecInfo.SMPPicSyntax.SKIPMBMode, <variable>.CodecInfo.SMPPicSyntax.SKIPMBMode
	movw	r0, #12372	@ tmp578,
	rsbs	r1, r8, #1	@ tmp567, <variable>.CodecInfo.SMPPicSyntax.SKIPMBMode
	movcc	r1, #0	@ tmp567
	strb	r1, [r5, #45]	@ tmp567, <variable>.skipmbmodeisskipraw
	ldrb	r7, [r4, r2]	@ zero_extendqisi2	@ <variable>.CodecInfo.SMPPicSyntax.BFRACTION, <variable>.CodecInfo.SMPPicSyntax.BFRACTION
	strb	r7, [r5, #50]	@ <variable>.CodecInfo.SMPPicSyntax.BFRACTION, <variable>.bfraction
	ldr	ip, [fp, #-76]	@, %sfp
	ldrb	r6, [r4, ip]	@ zero_extendqisi2	@ <variable>.CodecInfo.SMPPicSyntax.CBPTAB, <variable>.CodecInfo.SMPPicSyntax.CBPTAB
	strb	r6, [r5, #49]	@ <variable>.CodecInfo.SMPPicSyntax.CBPTAB, <variable>.cbptab
	ldrb	r3, [r4, lr]	@ zero_extendqisi2	@ <variable>.CodecInfo.SMPPicSyntax.MVTAB, <variable>.CodecInfo.SMPPicSyntax.MVTAB
	strb	r3, [r5, #48]	@ <variable>.CodecInfo.SMPPicSyntax.MVTAB, <variable>.mvtab
	ldr	lr, [r4, r9]	@ <variable>.CodecInfo.SMPPicSyntax.ScaleFactor, <variable>.CodecInfo.SMPPicSyntax.ScaleFactor
	str	lr, [r5, r0]	@ <variable>.CodecInfo.SMPPicSyntax.ScaleFactor, <variable>.ScaleFactor
	ldr	r2, [fp, #-80]	@, %sfp
	ldrb	r8, [r4, r2]	@ zero_extendqisi2	@ <variable>.CodecInfo.SMPSeqSyntax.RANGERED, <variable>.CodecInfo.SMPSeqSyntax.RANGERED
	cmp	r8, #1	@ <variable>.CodecInfo.SMPSeqSyntax.RANGERED,
	beq	.L828	@,
	mov	r3, #0	@ prephitmp.2516,
	mov	r0, r3	@ prephitmp.2514, prephitmp.2516
	mov	ip, r3	@ prephitmp.2550, prephitmp.2516
	mov	r1, r3	@ prephitmp.2532, prephitmp.2516
.L829:
	strb	r1, [r5, #59]	@ prephitmp.2532, <variable>.RANGEREDFRM
	movw	r7, #:lower16:88592	@ tmp609,
	strb	ip, [r5, #60]	@ prephitmp.2550, <variable>.RANGEREDFRM0
	movt	r7, #:upper16:88592	@ tmp609,
	strb	r0, [r5, #61]	@ prephitmp.2514, <variable>.RANGEREDFRM1
	ldr	r8, [fp, #-52]	@, %sfp
	str	r3, [r8, #360]	@ prephitmp.2516, <variable>.stDispImg.ImageDnr.Rangedfrm
	ldrb	r3, [r4, r7]	@ zero_extendqisi2	@ <variable>.CodecInfo.SMPSeqSyntax.PROFILE, <variable>.CodecInfo.SMPSeqSyntax.PROFILE
	strb	r3, [r8, #338]	@ <variable>.CodecInfo.SMPSeqSyntax.PROFILE, <variable>.stDispImg.ImageDnr.vc1_profile
.L822:
	movw	r0, #:lower16:101268	@ tmp612,
	movt	r0, #:upper16:101268	@ tmp612,
	movw	lr, #:lower16:101200	@ tmp614,
	movt	lr, #:upper16:101200	@ tmp614,
	ldrh	r2, [r4, r0]	@, <variable>.CodecInfo.SlcNum
	movw	r7, #:lower16:101204	@ tmp616,
	movt	r7, #:upper16:101204	@ tmp616,
	movw	r3, #:lower16:78251	@ tmp618,
	movt	r3, #:upper16:78251	@ tmp618,
	movw	ip, #:lower16:78252	@ tmp621,
	strh	r2, [r5, #72]	@ movhi	@, <variable>.totalslicenum
	movt	ip, #:upper16:78252	@ tmp621,
	ldrh	r1, [r4, lr]	@, <variable>.CodecInfo.DispPicWidth
	movw	lr, #:lower16:101184	@ tmp625,
	movt	lr, #:upper16:101184	@ tmp625,
	strh	r1, [r5, #74]	@ movhi	@, <variable>.DispPicWidth
	ldrh	r8, [r4, r7]	@, <variable>.CodecInfo.DispPicHeight
	strh	r8, [r5, #76]	@ movhi	@, <variable>.DispPicHeight
	ldrb	r6, [r4, r3]	@ zero_extendqisi2	@ <variable>.CodecInfo.CodecVersion, <variable>.CodecInfo.CodecVersion
	movw	r3, #:lower16:113648	@ tmp634,
	movt	r3, #:upper16:113648	@ tmp634,
	strb	r6, [r5, #63]	@ <variable>.CodecInfo.CodecVersion, <variable>.CodecVersion
	movw	r6, #:lower16:113652	@ tmp637,
	ldrb	r0, [r4, ip]	@ zero_extendqisi2	@ <variable>.CodecInfo.PostCresent, <variable>.CodecInfo.PostCresent
	movt	r6, #:upper16:113652	@ tmp637,
	movw	ip, #:lower16:113656	@ tmp640,
	movt	ip, #:upper16:113656	@ tmp640,
	strb	r0, [r5, #62]	@ <variable>.CodecInfo.PostCresent, <variable>.PostCresent
	movw	r0, #:lower16:113660	@ tmp643,
	ldr	r2, [r4, lr]	@ <variable>.CodecInfo.MbWidth, <variable>.CodecInfo.MbWidth
	movt	r0, #:upper16:113660	@ tmp643,
	movw	lr, #:lower16:113668	@ tmp649,
	movt	lr, #:upper16:113668	@ tmp649,
	adds	r1, r2, #127	@ tmp626, <variable>.CodecInfo.MbWidth,
	addmi	r1, r2, #254	@, tmp629, <variable>.CodecInfo.MbWidth,
	movw	r2, #:lower16:113672	@ tmp652,
	movt	r2, #:upper16:113672	@ tmp652,
	mov	r7, r1, asr #7	@ tmp631, tmp629,
	movw	r1, #12404	@ tmp624,
	mov	r8, r7, asl #4	@ tmp632, tmp631,
	str	r8, [r5, r1]	@ tmp632, <variable>.BPD_STRIDE
	ldr	r8, [r4, r3]	@ <variable>.CodecInfo.MVTYPEMB_ADDR, <variable>.CodecInfo.MVTYPEMB_ADDR
	movw	r7, #12408	@ tmp633,
	mov	r1, #12416	@ tmp639,
	movw	r3, #:lower16:78253	@ tmp655,
	movt	r3, #:upper16:78253	@ tmp655,
	str	r8, [r5, r7]	@ <variable>.CodecInfo.MVTYPEMB_ADDR, <variable>.MVTYPEMB_ADDR
	add	r3, r4, r3	@ tmp655, pCtx, tmp655
	ldr	r7, [r4, r6]	@ <variable>.CodecInfo.SKIPMB_ADDR, <variable>.CodecInfo.SKIPMB_ADDR
	movw	r6, #12412	@ tmp636,
	str	r7, [r5, r6]	@ <variable>.CodecInfo.SKIPMB_ADDR, <variable>.SKIPMB_ADDR
	ldr	r6, [r4, ip]	@ <variable>.CodecInfo.DIRECTMB_ADDR, <variable>.CodecInfo.DIRECTMB_ADDR
	str	r6, [r5, r1]	@ <variable>.CodecInfo.DIRECTMB_ADDR, <variable>.DIRECTMB_ADDR
	movw	r1, #12420	@ tmp642,
	ldr	ip, [r4, r0]	@ <variable>.CodecInfo.ACPRED_ADDR, <variable>.CodecInfo.ACPRED_ADDR
	mov	r0, #113664	@ tmp646,
	str	ip, [r5, r1]	@ <variable>.CodecInfo.ACPRED_ADDR, <variable>.ACPRED_ADDR
	movw	r1, #12424	@ tmp645,
	ldr	ip, [r4, r0]	@ <variable>.CodecInfo.OVERFLAGS_ADDR, <variable>.CodecInfo.OVERFLAGS_ADDR
	movw	r0, #12428	@ tmp648,
	str	ip, [r5, r1]	@ <variable>.CodecInfo.OVERFLAGS_ADDR, <variable>.OVERFLAGS_ADDR
	movw	r1, #12432	@ tmp651,
	ldr	ip, [r4, lr]	@ <variable>.CodecInfo.FIELDTX_ADDR, <variable>.CodecInfo.FIELDTX_ADDR
	str	ip, [r5, r0]	@ <variable>.CodecInfo.FIELDTX_ADDR, <variable>.FIELDTX_ADDR
	ldr	lr, [r4, r2]	@ <variable>.CodecInfo.FORWARDMB_ADDR, <variable>.CodecInfo.FORWARDMB_ADDR
	str	r3, [r5, #64]	@ tmp655, <variable>.pIntensityConvertTab
	str	lr, [r5, r1]	@ <variable>.CodecInfo.FORWARDMB_ADDR, <variable>.FORWARDMB_ADDR
.L831:
	sub	sp, fp, #40
	ldmfd	sp, {r4, r5, r6, r7, r8, r9, sl, fp, sp, pc}
.L834:
	movw	r6, #:lower16:88984	@ tmp156,
	movt	r6, #:upper16:88984	@ tmp156,
	movw	sl, #:lower16:88608	@ tmp159,
	movt	sl, #:upper16:88608	@ tmp159,
	ldr	r9, [r4, r6]	@ <variable>.CodecInfo.AdvPicSyntax.FCM, <variable>.CodecInfo.AdvPicSyntax.FCM
	movw	r7, #:lower16:88941	@ tmp162,
	movt	r7, #:upper16:88941	@ tmp162,
	movw	r1, #:lower16:113628	@ tmp166,
	movt	r1, #:upper16:113628	@ tmp166,
	movw	r2, #:lower16:113624	@ tmp179,
	strb	r9, [r5, #5]	@ <variable>.CodecInfo.AdvPicSyntax.FCM, <variable>.fcm
	movt	r2, #:upper16:113624	@ tmp179,
	ldrb	r8, [r4, sl]	@ zero_extendqisi2	@ <variable>.CodecInfo.AdvSeqSyntax.PROFILE, <variable>.CodecInfo.AdvSeqSyntax.PROFILE
	strb	r8, [r5, #4]	@ <variable>.CodecInfo.AdvSeqSyntax.PROFILE, <variable>.profile
	movw	r8, #:lower16:88981	@ tmp183,
	ldrb	r0, [r4, r7]	@ zero_extendqisi2	@ iftmp.444, <variable>.CodecInfo.AdvPicSyntax.PTYPE
	movt	r8, #:upper16:88981	@ tmp183,
	cmp	r0, #4	@ iftmp.444,
	moveq	r0, #3	@ iftmp.444,
	strb	r0, [r5, #3]	@ iftmp.444, <variable>.ptype
	ldr	ip, [r4, r6]	@ <variable>.CodecInfo.AdvPicSyntax.FCM, <variable>.CodecInfo.AdvPicSyntax.FCM
	movw	r6, #:lower16:88784	@ tmp186,
	ldr	lr, [r4, r1]	@ <variable>.CodecInfo.CurPicMbHeight, <variable>.CodecInfo.CurPicMbHeight
	movt	r6, #:upper16:88784	@ tmp186,
	cmp	ip, #3	@ <variable>.CodecInfo.AdvPicSyntax.FCM,
	movw	ip, #:lower16:88972	@ tmp189,
	addeq	lr, lr, #1	@ tmp167, <variable>.CodecInfo.CurPicMbHeight,
	movt	ip, #:upper16:88972	@ tmp189,
	addeq	lr, lr, lr, lsr #31	@, tmp171, tmp167, tmp167,
	moveq	lr, lr, asr #1	@ tmp172, tmp171,
	sub	r3, lr, #1	@ tmp178, <variable>.CodecInfo.CurPicMbHeight,
	strh	r3, [r5, #80]	@ movhi	@ tmp178, <variable>.mbheight
	ldr	r9, [r4, r2]	@ <variable>.CodecInfo.CurPicMbWidth, <variable>.CodecInfo.CurPicMbWidth
	movw	r3, #:lower16:78248	@ tmp192,
	movt	r3, #:upper16:78248	@ tmp192,
	movw	lr, #:lower16:89108	@,
	sub	sl, r9, #1	@ tmp182, <variable>.CodecInfo.CurPicMbWidth,
	strh	sl, [r5, #78]	@ movhi	@ tmp182, <variable>.mbwidth
	ldrb	r7, [r4, r8]	@ zero_extendqisi2	@ <variable>.CodecInfo.AdvPicSyntax.CurParity, <variable>.CodecInfo.AdvPicSyntax.CurParity
	movt	lr, #:upper16:89108	@,
	movw	sl, #:lower16:101224	@ tmp196,
	movt	sl, #:upper16:101224	@ tmp196,
	movw	r9, #:lower16:89056	@,
	movt	r9, #:upper16:89056	@,
	strb	r7, [r5, #8]	@ <variable>.CodecInfo.AdvPicSyntax.CurParity, <variable>.curparity
	movw	r8, #:lower16:101240	@ tmp205,
	ldrb	r0, [r4, r6]	@ zero_extendqisi2	@ <variable>.CodecInfo.AdvEntSyntax.LOOPFILTER, <variable>.CodecInfo.AdvEntSyntax.LOOPFILTER
	movt	r8, #:upper16:101240	@ tmp205,
	movw	r7, #:lower16:88970	@ tmp213,
	movt	r7, #:upper16:88970	@ tmp213,
	movw	r6, #:lower16:88785	@ tmp216,
	movt	r6, #:upper16:88785	@ tmp216,
	strb	r0, [r5, #6]	@ <variable>.CodecInfo.AdvEntSyntax.LOOPFILTER, <variable>.loopfilter
	movw	r0, #:lower16:88940	@ tmp222,
	ldrb	r1, [r4, ip]	@ zero_extendqisi2	@ <variable>.CodecInfo.AdvPicSyntax.NUMREF, <variable>.CodecInfo.AdvPicSyntax.NUMREF
	movw	ip, #:lower16:88789	@ tmp219,
	movt	ip, #:upper16:88789	@ tmp219,
	movt	r0, #:upper16:88940	@ tmp222,
	strb	r1, [r5, #9]	@ <variable>.CodecInfo.AdvPicSyntax.NUMREF, <variable>.numref
	str	lr, [fp, #-60]	@, %sfp
	movw	lr, #:lower16:88943	@ tmp228,
	ldrb	r2, [r4, r3]	@ zero_extendqisi2	@ <variable>.CodecInfo.Is2ndFld, <variable>.CodecInfo.Is2ndFld
	movt	lr, #:upper16:88943	@ tmp228,
	movw	r3, #:lower16:88950	@ tmp231,
	movt	r3, #:upper16:88950	@ tmp231,
	strb	r2, [r5, #7]	@ <variable>.CodecInfo.Is2ndFld, <variable>.issecondfld
	movw	r2, #1496	@,
	str	r9, [fp, #-48]	@, %sfp
	movw	r9, #:lower16:88790	@ tmp237,
	ldr	r1, [r4, sl]	@, <variable>.CodecInfo.RefList0.ImgObj
	movt	r9, #:upper16:88790	@ tmp237,
	mla	sl, r2, r1, r4	@,,, pCtx
	add	r1, sl, #93184	@ tmp201,,
	str	sl, [fp, #-56]	@, %sfp
	add	sl, r1, #32	@ tmp201, tmp201,
	ldrb	r1, [sl, #3]	@ zero_extendqisi2	@ <variable>.PicStruct, <variable>.PicStruct
	strb	r1, [r5, #10]	@ <variable>.PicStruct, <variable>.fwd_fcm
	ldr	sl, [r4, r8]	@ <variable>.CodecInfo.RefList1.ImgObj, <variable>.CodecInfo.RefList1.ImgObj
	mla	r8, r2, sl, r4	@ tmp209,, <variable>.CodecInfo.RefList1.ImgObj, pCtx
	add	r1, r8, #93184	@ tmp210, tmp209,
	add	r2, r1, #32	@ tmp210, tmp210,
	ldrb	sl, [r2, #3]	@ zero_extendqisi2	@ <variable>.PicStruct, <variable>.PicStruct
	strb	sl, [r5, #11]	@ <variable>.PicStruct, <variable>.bwd_fcm
	ldrb	r8, [r4, r7]	@ zero_extendqisi2	@ <variable>.CodecInfo.AdvPicSyntax.CONDOVER, <variable>.CodecInfo.AdvPicSyntax.CONDOVER
	strb	r8, [r5, #15]	@ <variable>.CodecInfo.AdvPicSyntax.CONDOVER, <variable>.condover
	ldrb	r7, [r4, r6]	@ zero_extendqisi2	@ <variable>.CodecInfo.AdvEntSyntax.FASTUVMC, <variable>.CodecInfo.AdvEntSyntax.FASTUVMC
	strb	r7, [r5, #13]	@ <variable>.CodecInfo.AdvEntSyntax.FASTUVMC, <variable>.fastuvmc
	ldrb	r1, [r4, ip]	@ zero_extendqisi2	@ <variable>.CodecInfo.AdvEntSyntax.OVERLAP, <variable>.CodecInfo.AdvEntSyntax.OVERLAP
	strb	r1, [r5, #14]	@ <variable>.CodecInfo.AdvEntSyntax.OVERLAP, <variable>.overlap
	ldrb	r2, [r4, r0]	@ zero_extendqisi2	@ <variable>.CodecInfo.AdvPicSyntax.RNDCTRL, <variable>.CodecInfo.AdvPicSyntax.RNDCTRL
	strb	r2, [r5, #12]	@ <variable>.CodecInfo.AdvPicSyntax.RNDCTRL, <variable>.rndctrl
	ldr	ip, [fp, #-60]	@, %sfp
	ldrb	sl, [r4, ip]	@ zero_extendqisi2	@ <variable>.CodecInfo.AdvPicSyntax.VOPDQUANT.ALTPQUANT, <variable>.CodecInfo.AdvPicSyntax.VOPDQUANT.ALTPQUANT
	strb	sl, [r5, #18]	@ <variable>.CodecInfo.AdvPicSyntax.VOPDQUANT.ALTPQUANT, <variable>.altpquant
	ldrb	r8, [r4, lr]	@ zero_extendqisi2	@ <variable>.CodecInfo.AdvPicSyntax.HALFQP, <variable>.CodecInfo.AdvPicSyntax.HALFQP
	strb	r8, [r5, #19]	@ <variable>.CodecInfo.AdvPicSyntax.HALFQP, <variable>.halfqp
	ldrb	r6, [r4, r3]	@ zero_extendqisi2	@ <variable>.CodecInfo.AdvPicSyntax.PQINDEX, <variable>.CodecInfo.AdvPicSyntax.PQINDEX
	strb	r6, [r5, #17]	@ <variable>.CodecInfo.AdvPicSyntax.PQINDEX, <variable>.pqindex
	ldr	r7, [fp, #-48]	@, %sfp
	ldr	r1, [r4, r7]	@ <variable>.CodecInfo.AdvPicSyntax.PQUANT, <variable>.CodecInfo.AdvPicSyntax.PQUANT
	strb	r1, [r5, #16]	@ <variable>.CodecInfo.AdvPicSyntax.PQUANT, <variable>.pquant
	ldrb	r2, [r4, r9]	@ zero_extendqisi2	@ D.36019, <variable>.CodecInfo.AdvEntSyntax.QUANTIZER
	cmp	r2, #0	@ D.36019,
	bne	.L815	@,
	ldrb	r3, [r4, r3]	@ zero_extendqisi2	@ <variable>.CodecInfo.AdvPicSyntax.PQINDEX, <variable>.CodecInfo.AdvPicSyntax.PQINDEX
	cmp	r3, #8	@ <variable>.CodecInfo.AdvPicSyntax.PQINDEX,
	movhi	r2, #0	@, tmp240
	movls	r2, #1	@, tmp240
	strb	r2, [r5, #20]	@ tmp240, <variable>.buniform
.L816:
	movw	r7, #:lower16:89102	@ tmp250,
	movt	r7, #:upper16:89102	@ tmp250,
	movw	r6, #:lower16:89101	@ tmp253,
	movt	r6, #:upper16:89101	@ tmp253,
	ldrb	r0, [r4, r7]	@ zero_extendqisi2	@ <variable>.CodecInfo.AdvPicSyntax.VOPDQUANT.DQBILEVEL, <variable>.CodecInfo.AdvPicSyntax.VOPDQUANT.DQBILEVEL
	movw	ip, #:lower16:88787	@ tmp256,
	movt	ip, #:upper16:88787	@ tmp256,
	movw	lr, #:lower16:89100	@ tmp259,
	movt	lr, #:upper16:89100	@ tmp259,
	movw	r9, #:lower16:88953	@,
	strb	r0, [r5, #24]	@ <variable>.CodecInfo.AdvPicSyntax.VOPDQUANT.DQBILEVEL, <variable>.dqbilevel
	movw	sl, #:lower16:89112	@ tmp262,
	ldrb	r1, [r4, r6]	@ zero_extendqisi2	@ <variable>.CodecInfo.AdvPicSyntax.VOPDQUANT.DQPROFILE, <variable>.CodecInfo.AdvPicSyntax.VOPDQUANT.DQPROFILE
	movt	sl, #:upper16:89112	@ tmp262,
	movw	r8, #:lower16:89103	@ tmp265,
	movt	r8, #:upper16:89103	@ tmp265,
	movw	r7, #:lower16:88954	@ tmp268,
	movt	r7, #:upper16:88954	@ tmp268,
	strb	r1, [r5, #23]	@ <variable>.CodecInfo.AdvPicSyntax.VOPDQUANT.DQPROFILE, <variable>.dqprofile
	movw	r6, #:lower16:88955	@ tmp271,
	ldrb	r2, [r4, ip]	@ zero_extendqisi2	@ <variable>.CodecInfo.AdvEntSyntax.DQUANT, <variable>.CodecInfo.AdvEntSyntax.DQUANT
	movt	r6, #:upper16:88955	@ tmp271,
	movw	ip, #:lower16:88973	@ tmp274,
	movt	ip, #:upper16:88973	@ tmp274,
	movw	r0, #:lower16:88965	@ tmp277,
	movt	r0, #:upper16:88965	@ tmp277,
	strb	r2, [r5, #22]	@ <variable>.CodecInfo.AdvEntSyntax.DQUANT, <variable>.dquant
	movw	r1, #:lower16:101172	@ tmp281,
	ldrb	r3, [r4, lr]	@ zero_extendqisi2	@, <variable>.CodecInfo.AdvPicSyntax.VOPDQUANT.DQUANTFRM
	movt	r1, #:upper16:101172	@ tmp281,
	str	r9, [fp, #-136]	@, %sfp
	movw	lr, #:lower16:101168	@ tmp290,
	movt	lr, #:upper16:101168	@ tmp290,
	str	r3, [fp, #-48]	@, %sfp
	movw	r3, #:lower16:88981	@ tmp282,
	ldr	r2, [fp, #-48]	@, %sfp
	movt	r3, #:upper16:88981	@ tmp282,
	strb	r2, [r5, #25]	@, <variable>.dquantfrm
	movw	r2, #:lower16:88971	@,
	ldr	r9, [fp, #-136]	@, %sfp
	movt	r2, #:upper16:88971	@,
	movt	r9, #:upper16:88953	@,
	str	r9, [fp, #-136]	@, %sfp
	ldr	sl, [r4, sl]	@ <variable>.CodecInfo.AdvPicSyntax.VOPDQUANT.QuantMode, <variable>.CodecInfo.AdvPicSyntax.VOPDQUANT.QuantMode
	movw	r9, #:lower16:88964	@,
	str	r2, [fp, #-48]	@, %sfp
	movt	r9, #:upper16:88964	@,
	movw	r2, #:lower16:88788	@,
	str	r9, [fp, #-56]	@, %sfp
	movt	r2, #:upper16:88788	@,
	strb	sl, [r5, #26]	@ <variable>.CodecInfo.AdvPicSyntax.VOPDQUANT.QuantMode, <variable>.quantmode
	str	r2, [fp, #-60]	@, %sfp
	movw	sl, #:lower16:88960	@,
	ldrb	r2, [r4, r8]	@ zero_extendqisi2	@ <variable>.CodecInfo.AdvPicSyntax.VOPDQUANT.UseAltQp, <variable>.CodecInfo.AdvPicSyntax.VOPDQUANT.UseAltQp
	movt	sl, #:upper16:88960	@,
	movw	r9, #:lower16:88962	@,
	str	sl, [fp, #-64]	@, %sfp
	movt	r9, #:upper16:88962	@,
	movw	sl, #:lower16:88963	@,
	str	r9, [fp, #-68]	@, %sfp
	movt	sl, #:upper16:88963	@,
	strb	r2, [r5, #21]	@ <variable>.CodecInfo.AdvPicSyntax.VOPDQUANT.UseAltQp, <variable>.usealtqp
	movw	r9, #:lower16:88961	@,
	str	sl, [fp, #-72]	@, %sfp
	movt	r9, #:upper16:88961	@,
	ldrb	r2, [r4, r7]	@ zero_extendqisi2	@ <variable>.CodecInfo.AdvPicSyntax.MVMODE, <variable>.CodecInfo.AdvPicSyntax.MVMODE
	movw	r8, #:lower16:88977	@,
	str	r9, [fp, #-76]	@, %sfp
	movt	r8, #:upper16:88977	@,
	movw	sl, #:lower16:88975	@,
	str	r8, [fp, #-80]	@, %sfp
	movt	sl, #:upper16:88975	@,
	strb	r2, [r5, #27]	@ <variable>.CodecInfo.AdvPicSyntax.MVMODE, <variable>.mvmode
	str	sl, [fp, #-84]	@, %sfp
	movw	r9, #:lower16:88979	@,
	ldrb	r6, [r4, r6]	@ zero_extendqisi2	@ <variable>.CodecInfo.AdvPicSyntax.MVMODE2, <variable>.CodecInfo.AdvPicSyntax.MVMODE2
	movt	r9, #:upper16:88979	@,
	movw	r7, #:lower16:88980	@,
	str	r9, [fp, #-88]	@, %sfp
	movt	r7, #:upper16:88980	@,
	movw	r8, #:lower16:88974	@,
	str	r7, [fp, #-92]	@, %sfp
	movt	r8, #:upper16:88974	@,
	strb	r6, [r5, #28]	@ <variable>.CodecInfo.AdvPicSyntax.MVMODE2, <variable>.mvmode2
	movw	r2, #:lower16:88978	@,
	str	r8, [fp, #-96]	@, %sfp
	movt	r2, #:upper16:88978	@,
	ldrb	r9, [r4, ip]	@ zero_extendqisi2	@ <variable>.CodecInfo.AdvPicSyntax.REFFIELD, <variable>.CodecInfo.AdvPicSyntax.REFFIELD
	movw	sl, #:lower16:88976	@,
	str	r2, [fp, #-100]	@, %sfp
	movt	sl, #:upper16:88976	@,
	movw	r7, #:lower16:88942	@,
	str	sl, [fp, #-104]	@, %sfp
	movt	r7, #:upper16:88942	@,
