	.arch armv7-a
	.fpu softvfp
	.eabi_attribute 20, 1
	.eabi_attribute 21, 1
	.eabi_attribute 23, 3
	.eabi_attribute 24, 1
	.eabi_attribute 25, 1
	.eabi_attribute 26, 2
	.eabi_attribute 30, 2
	.eabi_attribute 18, 4
	.file	"h264.c"
@ GNU C (Hisilicon_v200(gcc4.4-290+glibc-2.11+eabi+nptl)) version 4.4.1 (arm-hisiv200-linux-gnueabi)
@	compiled by GNU C version 4.1.1 20061011 (Red Hat 4.1.1-30), GMP version 4.3.1, MPFR version 2.4.2.
@ GGC heuristics: --param ggc-min-expand=100 --param ggc-min-heapsize=131072
@ options passed:  -nostdinc
@ -I/home/release/HiSTBLinuxV100R002C00SPC011/source/kernel/linux-3.4.y/arch/arm/include
@ -Iarch/arm/include/generated -Iinclude
@ -I/home/release/HiSTBLinuxV100R002C00SPC011/source/kernel/linux-3.4.y/include
@ -I/home/release/HiSTBLinuxV100R002C00SPC011/source/kernel/linux-3.4.y/drivers/msp/vfmw/vfmw_v4.0
@ -Idrivers/msp/vfmw/vfmw_v4.0
@ -I/home/release/HiSTBLinuxV100R002C00SPC011/source/kernel/linux-3.4.y/arch/arm/mach-s40/include
@ -I/home/release/HiSTBLinuxV100R002C00SPC011/source/kernel/linux-3.4.y/../../../source/common/include
@ -I/home/release/HiSTBLinuxV100R002C00SPC011/source/kernel/linux-3.4.y/../../../source/common/drv/include
@ -I/home/release/HiSTBLinuxV100R002C00SPC011/source/kernel/linux-3.4.y/../../../source/msp/drv/vfmw/vfmw_v4.0/drv/memmap
@ -I/home/release/HiSTBLinuxV100R002C00SPC011/source/kernel/linux-3.4.y/../../../source/msp/drv/vfmw/vfmw_v4.0/model/scd
@ -I/home/release/HiSTBLinuxV100R002C00SPC011/source/kernel/linux-3.4.y/../../../source/msp/drv/vfmw/vfmw_v4.0/firmware/common/softlib
@ -I/home/release/HiSTBLinuxV100R002C00SPC011/source/kernel/linux-3.4.y/../../../source/msp/drv/vfmw/vfmw_v4.0/firmware/common
@ -I/home/release/HiSTBLinuxV100R002C00SPC011/source/kernel/linux-3.4.y/../../../source/msp/drv/vfmw/vfmw_v4.0/firmware/common/syntax
@ -I/home/release/HiSTBLinuxV100R002C00SPC011/source/kernel/linux-3.4.y/../../../source/msp/drv/vfmw/vfmw_v4.0/firmware/driver/HiSCDV100
@ -I/home/release/HiSTBLinuxV100R002C00SPC011/source/kernel/linux-3.4.y/../../../source/msp/drv/vfmw/vfmw_v4.0/firmware/driver/HiVDHV100
@ -I/home/release/HiSTBLinuxV100R002C00SPC011/source/kernel/linux-3.4.y/../../../source/msp/drv/vfmw/vfmw_v4.0/firmware/driver/HiVDHV200R001
@ -I/home/release/HiSTBLinuxV100R002C00SPC011/source/kernel/linux-3.4.y/../../../source/msp/drv/vfmw/vfmw_v4.0/firmware/driver/HiVDHV200R002
@ -I/home/release/HiSTBLinuxV100R002C00SPC011/source/kernel/linux-3.4.y/../../../source/msp/drv/vfmw/vfmw_v4.0/firmware/driver/HiVDHV200R003
@ -I/home/release/HiSTBLinuxV100R002C00SPC011/source/kernel/linux-3.4.y/../../../source/msp/drv/vfmw/vfmw_v4.0/firmware/driver/HiVDHV200R003MPW
@ -I/home/release/HiSTBLinuxV100R002C00SPC011/source/kernel/linux-3.4.y/../../../source/msp/drv/vfmw/vfmw_v4.0/model/rawpacket
@ -I/home/release/HiSTBLinuxV100R002C00SPC011/source/kernel/linux-3.4.y/../../../source/msp/drv/vfmw/vfmw_v4.0/firmware/product/HiS40V200/osal/linux_kernel
@ -I/home/release/HiSTBLinuxV100R002C00SPC011/source/kernel/linux-3.4.y/../../../source/msp/drv/vfmw/vfmw_v4.0/firmware/product/HiS40V200
@ -I/home/release/HiSTBLinuxV100R002C00SPC011/source/kernel/linux-3.4.y/../../../source/msp/drv/vfmw/vfmw_v4.0/firmware/driver/HiDNR
@ -I/home/release/HiSTBLinuxV100R002C00SPC011/source/kernel/linux-3.4.y/../../../source/msp/drv/vfmw/vfmw_v4.0/firmware/driver/HiBTLV100
@ -I/home/release/HiSTBLinuxV100R002C00SPC011/source/kernel/linux-3.4.y/../../../source/msp/drv/vfmw/vfmw_v4.0/firmware/common_test/vdecko
@ -imultilib armv7a_soft -iprefix
@ /opt/hisi-linux/x86-arm/arm-hisiv200-linux/bin/../lib/gcc/arm-hisiv200-linux-gnueabi/4.4.1/
@ -isysroot /opt/hisi-linux/x86-arm/arm-hisiv200-linux/bin/../target
@ -D__KERNEL__ -D__LINUX_ARM_ARCH__=7 -Uarm -DENV_ARMLINUX_KERNEL
@ -DBTL_ENABLE -DSCD_MP4_SLICE_ENABLE -DSUPPORT_JPEG_444
@ -DVFMW_EXTRA_TYPE_DEFINE -DPRODUCT_STB -D__VFMW_REGISTER_ISR__
@ -DPRODUCT_S40V200 -DVFMW_VDH_V200R003MPW_SUPPORT -DVFMW_H264_SUPPORT
@ -DVFMW_MVC_SUPPORT -DVFMW_MPEG2_SUPPORT -DVFMW_MPEG4_SUPPORT
@ -DVFMW_AVS_SUPPORT -DVFMW_VC1_SUPPORT -DVFMW_BPD_H_SUPPORT
@ -DVFMW_REAL8_SUPPORT -DVFMW_REAL9_SUPPORT -DVFMW_VP6_SUPPORT
@ -DVFMW_VP8_SUPPORT -DVFMW_DIVX3_SUPPORT -DVFMW_BTL_SUPPORT
@ -DVFMW_H263_SUPPORT -DVFMW_JPEG_SUPPORT -DVFMW_RAW_SUPPORT
@ -DVFMW_USER_SUPPORT -DCFG_MAX_CHAN_NUM=2 -DCFG_MAX_CHAN_NUM=2
@ -DVFMW_DPRINT_SUPPORT -DCHIP_TYPE_hi3716cv200es
@ -DSDK_VERSION=HiSTBLinuxV100R002C00SPC011 -DCFG_HI_LOG_LEVEL=4
@ -DHI_KEYLED_SUPPORT -DHI_SCI_SUPPORT -DHI_VENC_SUPPORT -DHI_AENC_SUPPORT
@ -DHI_VDEC_SVDEC_BUILTIN -DKBUILD_STR(s)=#s
@ -DKBUILD_BASENAME=KBUILD_STR(h264) -DKBUILD_MODNAME=KBUILD_STR(hi_vfmw)
@ -isystem
@ /opt/hisi-linux/x86-arm/arm-hisiv200-linux/bin/../lib/gcc/arm-hisiv200-linux-gnueabi/4.4.1/include
@ -include
@ /home/release/HiSTBLinuxV100R002C00SPC011/source/kernel/linux-3.4.y/include/linux/kconfig.h
@ -MD drivers/msp/vfmw/vfmw_v4.0/firmware/common/syntax/.h264.o.d
@ /home/release/HiSTBLinuxV100R002C00SPC011/source/kernel/linux-3.4.y/drivers/msp/vfmw/vfmw_v4.0/firmware/common/syntax/h264.c
@ -mlittle-endian -marm -mapcs -mno-sched-prolog -mabi=aapcs-linux
@ -mno-thumb-interwork -march=armv7-a -msoft-float -auxbase-strip
@ drivers/msp/vfmw/vfmw_v4.0/firmware/common/syntax/h264.o -O2 -Wall
@ -Wundef -Wstrict-prototypes -Wno-trigraphs
@ -Werror-implicit-function-declaration -Wno-format-security
@ -Wframe-larger-than=1024 -Wdeclaration-after-statement -Wno-pointer-sign
@ -p -fno-strict-aliasing -fno-common -fno-delete-null-pointer-checks
@ -fno-dwarf2-cfi-asm -funwind-tables -fno-stack-protector
@ -fno-omit-frame-pointer -fno-optimize-sibling-calls -fno-strict-overflow
@ -fconserve-stack -fno-pic -fverbose-asm
@ options enabled:  -falign-loops -fargument-alias -fauto-inc-dec
@ -fbranch-count-reg -fcaller-saves -fcprop-registers -fcrossjumping
@ -fcse-follow-jumps -fdefer-pop -fearly-inlining
@ -feliminate-unused-debug-types -fexpensive-optimizations
@ -fforward-propagate -ffunction-cse -fgcse -fgcse-lm
@ -fguess-branch-probability -fident -fif-conversion -fif-conversion2
@ -findirect-inlining -finline -finline-functions-called-once
@ -finline-small-functions -fipa-cp -fipa-pure-const -fipa-reference
@ -fira-share-save-slots -fira-share-spill-slots -fivopts
@ -fkeep-static-consts -fleading-underscore -fmath-errno -fmerge-constants
@ -fmerge-debug-strings -fmove-loop-invariants -foptimize-register-move
@ -fpeephole -fpeephole2 -fprofile -fpromote-loop-indices
@ -freg-struct-return -fregmove -frename-registers -freorder-blocks
@ -freorder-functions -frerun-cse-after-loop -fsched-interblock
@ -fsched-spec -fsched-stalled-insns-dep -fschedule-insns -fschedule-insns2
@ -fsection-anchors -fsigned-zeros -fsplit-ivs-in-unroller
@ -fsplit-wide-types -fthread-jumps -ftoplevel-reorder -ftrapping-math
@ -ftree-builtin-call-dce -ftree-ccp -ftree-ch -ftree-copy-prop
@ -ftree-copyrename -ftree-cselim -ftree-dce -ftree-dominator-opts
@ -ftree-dse -ftree-fre -ftree-loop-im -ftree-loop-ivcanon
@ -ftree-loop-optimize -ftree-parallelize-loops= -ftree-pre -ftree-reassoc
@ -ftree-scev-cprop -ftree-sink -ftree-sra -ftree-switch-conversion
@ -ftree-ter -ftree-vect-loop-version -ftree-vrp -funit-at-a-time
@ -funroll-loops -funwind-tables -fverbose-asm -fweb
@ -fzero-initialized-in-bss -mapcs-frame -mglibc -mlittle-endian

@ Compiler executable checksum: fa59e0bd179ef45b3a3c3e6f3383fdac

	.text
	.align	2
	.global	GetMinPOC
	.type	GetMinPOC, %function
GetMinPOC:
	.fnstart
.LFB1360:
	@ args = 0, pretend = 0, frame = 0
	@ frame_needed = 1, uses_anonymous_args = 0
	.movsp ip
	mov	ip, sp	@,
	stmfd	sp!, {r4, r5, r6, r7, fp, ip, lr, pc}	@,
	.pad #4
	.save {r4, r5, r6, r7, fp, ip, lr}
	.setfp fp, ip, #-4
	sub	fp, ip, #4	@,,
	push	{lr}
	bl	__gnu_mcount_nc
	movw	ip, #26620	@ tmp173,
	mov	r4, #0	@ tmp171,
	str	r4, [r2, #0]	@ tmp171,* pos
	movw	r4, #26616	@ tmp174,
	mvn	r3, #-2147483648	@ tmp172,
	str	r3, [r1, #0]	@ tmp172,* poc
	ldr	r3, [r0, r4]	@ prephitmp.867, <variable>.DPB.size
	ldr	r4, [r0, ip]	@ prephitmp.849, <variable>.DPB.used_size
	cmp	r4, r3	@ prephitmp.849, prephitmp.867
	strhi	r3, [r0, ip]	@ prephitmp.867, <variable>.DPB.used_size
	movls	r3, r4	@ prephitmp.867, prephitmp.849
	cmp	r3, #0	@ prephitmp.867,
	ldmeqfd	sp, {r4, r5, r6, r7, fp, sp, pc}	@
	add	r5, r0, #26368	@ ivtmp.863, pH264Ctx,
	mov	r3, #0	@ i,
	add	ip, r5, #56	@ ivtmp.863, ivtmp.863,
	movw	r7, #26620	@ tmp181,
.L6:
	ldr	r4, [ip, #0]	@ D.35838, <variable>.DPB.fs
	add	ip, ip, #4	@ ivtmp.863, ivtmp.863,
	ldr	r6, [r1, #0]	@ tmp177,* poc
	ldr	r5, [r4, #556]	@ D.35839, <variable>.poc
	cmp	r6, r5	@ tmp177, D.35839
	ble	.L5	@,
	ldrb	r4, [r4, #4]	@ zero_extendqisi2	@ <variable>.is_in_dpb, <variable>.is_in_dpb
	cmp	r4, #0	@ <variable>.is_in_dpb,
	strne	r5, [r1, #0]	@ D.35839,* poc
	strne	r3, [r2, #0]	@ i,* pos
.L5:
	ldr	r4, [r0, r7]	@ <variable>.DPB.used_size, <variable>.DPB.used_size
	add	r3, r3, #1	@ i, i,
	cmp	r4, r3	@ <variable>.DPB.used_size, i
	bhi	.L6	@,
	ldmfd	sp, {r4, r5, r6, r7, fp, sp, pc}	@
	.fnend
	.size	GetMinPOC, .-GetMinPOC
	.align	2
	.global	FrameStoreRefFlg
	.type	FrameStoreRefFlg, %function
FrameStoreRefFlg:
	.fnstart
.LFB1361:
	@ args = 0, pretend = 0, frame = 0
	@ frame_needed = 1, uses_anonymous_args = 0
	.movsp ip
	mov	ip, sp	@,
	stmfd	sp!, {fp, ip, lr, pc}	@,
	.pad #4
	.save {fp, ip, lr}
	.setfp fp, ip, #-4
	sub	fp, ip, #4	@,,
	push	{lr}
	bl	__gnu_mcount_nc
	ldrb	r0, [r0, #2]	@ zero_extendqisi2	@ <variable>.is_reference, <variable>.is_reference
	subs	r0, r0, #0	@, <variable>.is_reference,
	movne	r0, #1	@
	ldmfd	sp, {fp, sp, pc}	@
	.fnend
	.size	FrameStoreRefFlg, .-FrameStoreRefFlg
	.align	2
	.global	ShortTermRefFlg
	.type	ShortTermRefFlg, %function
ShortTermRefFlg:
	.fnstart
.LFB1362:
	@ args = 0, pretend = 0, frame = 0
	@ frame_needed = 1, uses_anonymous_args = 0
	.movsp ip
	mov	ip, sp	@,
	stmfd	sp!, {fp, ip, lr, pc}	@,
	.pad #4
	.save {fp, ip, lr}
	.setfp fp, ip, #-4
	sub	fp, ip, #4	@,,
	push	{lr}
	bl	__gnu_mcount_nc
	ldrb	r3, [r0, #2]	@ zero_extendqisi2	@ D.35853, <variable>.is_reference
	cmp	r3, #3	@ D.35853,
	beq	.L20	@,
	tst	r3, #1	@ D.35853,
	bne	.L15	@,
.L16:
	ands	r3, r3, #2	@ tmp145, D.35853,
	moveq	r0, r3	@ D.35860, tmp145
	ldmeqfd	sp, {fp, sp, pc}	@
	ldr	r1, [r0, #504]	@ tmp148,
	bic	r2, r1, #-16777216	@ tmp146, tmp148,
	bic	r0, r2, #255	@ tmp146, tmp146,
	cmp	r0, #65536	@ tmp146,
	movne	r0, #0	@, D.35860
	moveq	r0, #1	@, D.35860
	ldmfd	sp, {fp, sp, pc}	@
.L20:
	ldr	ip, [r0, #432]	@ tmp140,
	bic	r1, ip, #-16777216	@ tmp138, tmp140,
	bic	r2, r1, #255	@ tmp138, tmp138,
	cmp	r2, #65536	@ tmp138,
	beq	.L14	@,
.L15:
	ldr	ip, [r0, #468]	@ tmp144,
	bic	r1, ip, #-16777216	@ tmp142, tmp144,
	bic	r2, r1, #255	@ tmp142, tmp142,
	cmp	r2, #65536	@ tmp142,
	bne	.L16	@,
.L14:
	mov	r0, #1	@ D.35860,
	ldmfd	sp, {fp, sp, pc}	@
	.fnend
	.size	ShortTermRefFlg, .-ShortTermRefFlg
	.align	2
	.global	LongTermRefFlg
	.type	LongTermRefFlg, %function
LongTermRefFlg:
	.fnstart
.LFB1363:
	@ args = 0, pretend = 0, frame = 0
	@ frame_needed = 1, uses_anonymous_args = 0
	.movsp ip
	mov	ip, sp	@,
	stmfd	sp!, {fp, ip, lr, pc}	@,
	.pad #4
	.save {fp, ip, lr}
	.setfp fp, ip, #-4
	sub	fp, ip, #4	@,,
	push	{lr}
	bl	__gnu_mcount_nc
	ldrb	r3, [r0, #2]	@ zero_extendqisi2	@ D.35880, <variable>.is_reference
	cmp	r3, #3	@ D.35880,
	beq	.L29	@,
	tst	r3, #1	@ D.35880,
	bne	.L24	@,
.L25:
	ands	r3, r3, #2	@ tmp145, D.35880,
	moveq	r0, r3	@ D.35887, tmp145
	ldmeqfd	sp, {fp, sp, pc}	@
	ldr	r1, [r0, #504]	@ tmp148,
	bic	r2, r1, #-16777216	@ tmp146, tmp148,
	bic	r0, r2, #255	@ tmp146, tmp146,
	cmp	r0, #256	@ tmp146,
	movne	r0, #0	@, D.35887
	moveq	r0, #1	@, D.35887
	ldmfd	sp, {fp, sp, pc}	@
.L29:
	ldr	ip, [r0, #432]	@ tmp140,
	bic	r1, ip, #-16777216	@ tmp138, tmp140,
	bic	r2, r1, #255	@ tmp138, tmp138,
	cmp	r2, #256	@ tmp138,
	beq	.L23	@,
.L24:
	ldr	ip, [r0, #468]	@ tmp144,
	bic	r1, ip, #-16777216	@ tmp142, tmp144,
	bic	r2, r1, #255	@ tmp142, tmp142,
	cmp	r2, #256	@ tmp142,
	bne	.L25	@,
.L23:
	mov	r0, #1	@ D.35887,
	ldmfd	sp, {fp, sp, pc}	@
	.fnend
	.size	LongTermRefFlg, .-LongTermRefFlg
	.align	2
	.global	UpdateLTReflist
	.type	UpdateLTReflist, %function
UpdateLTReflist:
	.fnstart
.LFB1364:
	@ args = 0, pretend = 0, frame = 0
	@ frame_needed = 1, uses_anonymous_args = 0
	.movsp ip
	mov	ip, sp	@,
	stmfd	sp!, {r4, r5, r6, r7, r8, sl, fp, ip, lr, pc}	@,
	.pad #4
	.save {r4, r5, r6, r7, r8, sl, fp, ip, lr}
	.setfp fp, ip, #-4
	sub	fp, ip, #4	@,,
	push	{lr}
	bl	__gnu_mcount_nc
	movw	sl, #26620	@ tmp141,
	ldr	r7, [r0, sl]	@ <variable>.DPB.used_size, <variable>.DPB.used_size
	mov	r8, r0	@ pH264Ctx, pH264Ctx
	cmp	r7, #0	@ <variable>.DPB.used_size,
	beq	.L32	@,
	add	r4, r0, #26368	@ ivtmp.971, pH264Ctx,
	mov	r7, #0	@ j,
	add	r4, r4, #56	@ ivtmp.971, ivtmp.971,
	mov	r5, r7	@ i, j
.L34:
	ldr	r6, [r4, #0]	@ D.35916, <variable>.DPB.fs
	add	r5, r5, #1	@ i, i,
	add	r4, r4, #4	@ ivtmp.971, ivtmp.971,
	mov	r0, r6	@, D.35916
	bl	LongTermRefFlg	@
	add	r2, r7, #6592	@ tmp144, j,
	add	r1, r2, #46	@ tmp144, tmp144,
	ldr	r3, [r8, sl]	@ <variable>.DPB.used_size, <variable>.DPB.used_size
	cmp	r0, #0	@,
	strne	r6, [r8, r1, asl #2]	@ D.35916, <variable>.DPB.fs_ltref
	addne	r7, r7, #1	@ j, j,
	cmp	r3, r5	@ <variable>.DPB.used_size, i
	bhi	.L34	@,
.L32:
	movw	r3, #26616	@ tmp149,
	movw	ip, #26628	@ tmp148,
	ldr	r0, [r8, r3]	@ D.35922, <variable>.DPB.size
	str	r7, [r8, ip]	@ j, <variable>.DPB.ltref_frames_in_buffer
	cmp	r7, r0	@ j, D.35922
	ldmcsfd	sp, {r4, r5, r6, r7, r8, sl, fp, sp, pc}	@
	add	r3, r7, #6592	@ tmp150, j,
	add	r2, r7, #1	@ j, j,
	add	r1, r3, #46	@ tmp150, tmp150,
	cmp	r2, r0	@ j, D.35922
	mvn	ip, r7	@ tmp157, j
	add	r7, ip, r0	@ tmp156, tmp157, D.35922
	add	r8, r8, r1, asl #2	@, ivtmp.967, pH264Ctx, tmp150,
	and	r7, r7, #1	@ tmp158, tmp156,
	mov	r1, #0	@ tmp154,
	str	r1, [r8], #4	@ tmp154, <variable>.DPB.fs_ltref
	ldmcsfd	sp, {r4, r5, r6, r7, r8, sl, fp, sp, pc}	@
	cmp	r7, #0	@ tmp158,
	beq	.L36	@,
	add	r2, r2, #1	@ j, j,
	str	r1, [r8], #4	@ tmp154, <variable>.DPB.fs_ltref
	cmp	r2, r0	@ j, D.35922
	ldmcsfd	sp, {r4, r5, r6, r7, r8, sl, fp, sp, pc}	@
.L36:
	add	r2, r2, #2	@ j, j,
	mov	ip, r8	@ tmp160, ivtmp.967
	cmp	r2, r0	@ j, D.35922
	str	r1, [ip], #4	@ tmp154, <variable>.DPB.fs_ltref
	str	r1, [r8, #4]	@ tmp154, <variable>.DPB.fs_ltref
	add	r8, ip, #4	@ ivtmp.967, tmp160,
	bcc	.L36	@,
	ldmfd	sp, {r4, r5, r6, r7, r8, sl, fp, sp, pc}	@
	.fnend
	.size	UpdateLTReflist, .-UpdateLTReflist
	.align	2
	.global	UpdateReflist
	.type	UpdateReflist, %function
UpdateReflist:
	.fnstart
.LFB1365:
	@ args = 0, pretend = 0, frame = 0
	@ frame_needed = 1, uses_anonymous_args = 0
	.movsp ip
	mov	ip, sp	@,
	stmfd	sp!, {r4, r5, r6, r7, r8, sl, fp, ip, lr, pc}	@,
	.pad #4
	.save {r4, r5, r6, r7, r8, sl, fp, ip, lr}
	.setfp fp, ip, #-4
	sub	fp, ip, #4	@,,
	push	{lr}
	bl	__gnu_mcount_nc
	movw	sl, #26620	@ tmp141,
	ldr	r7, [r0, sl]	@ <variable>.DPB.used_size, <variable>.DPB.used_size
	mov	r8, r0	@ pH264Ctx, pH264Ctx
	cmp	r7, #0	@ <variable>.DPB.used_size,
	beq	.L47	@,
	add	r4, r0, #26368	@ ivtmp.1009, pH264Ctx,
	mov	r7, #0	@ j,
	add	r4, r4, #56	@ ivtmp.1009, ivtmp.1009,
	mov	r5, r7	@ i, j
.L49:
	ldr	r6, [r4, #0]	@ D.35935, <variable>.DPB.fs
	add	r5, r5, #1	@ i, i,
	add	r4, r4, #4	@ ivtmp.1009, ivtmp.1009,
	mov	r0, r6	@, D.35935
	bl	ShortTermRefFlg	@
	add	r2, r7, #6592	@ tmp144, j,
	add	r1, r2, #30	@ tmp144, tmp144,
	ldr	r3, [r8, sl]	@ <variable>.DPB.used_size, <variable>.DPB.used_size
	cmp	r0, #0	@,
	strne	r6, [r8, r1, asl #2]	@ D.35935, <variable>.DPB.fs_ref
	addne	r7, r7, #1	@ j, j,
	cmp	r3, r5	@ <variable>.DPB.used_size, i
	bhi	.L49	@,
.L47:
	movw	r3, #26616	@ tmp149,
	mov	ip, #26624	@ tmp148,
	ldr	r0, [r8, r3]	@ D.35941, <variable>.DPB.size
	str	r7, [r8, ip]	@ j, <variable>.DPB.ref_frames_in_buffer
	cmp	r7, r0	@ j, D.35941
	ldmcsfd	sp, {r4, r5, r6, r7, r8, sl, fp, sp, pc}	@
	add	r3, r7, #6592	@ tmp150, j,
	add	r2, r7, #1	@ j, j,
	add	r1, r3, #30	@ tmp150, tmp150,
	cmp	r2, r0	@ j, D.35941
	mvn	ip, r7	@ tmp157, j
	add	r7, ip, r0	@ tmp156, tmp157, D.35941
	add	r8, r8, r1, asl #2	@, ivtmp.1005, pH264Ctx, tmp150,
	and	r7, r7, #1	@ tmp158, tmp156,
	mov	r1, #0	@ tmp154,
	str	r1, [r8], #4	@ tmp154, <variable>.DPB.fs_ref
	ldmcsfd	sp, {r4, r5, r6, r7, r8, sl, fp, sp, pc}	@
	cmp	r7, #0	@ tmp158,
	beq	.L51	@,
	add	r2, r2, #1	@ j, j,
	str	r1, [r8], #4	@ tmp154, <variable>.DPB.fs_ref
	cmp	r2, r0	@ j, D.35941
	ldmcsfd	sp, {r4, r5, r6, r7, r8, sl, fp, sp, pc}	@
.L51:
	add	r2, r2, #2	@ j, j,
	mov	ip, r8	@ tmp160, ivtmp.1005
	cmp	r2, r0	@ j, D.35941
	str	r1, [ip], #4	@ tmp154, <variable>.DPB.fs_ref
	str	r1, [r8, #4]	@ tmp154, <variable>.DPB.fs_ref
	add	r8, ip, #4	@ ivtmp.1005, tmp160,
	bcc	.L51	@,
	ldmfd	sp, {r4, r5, r6, r7, r8, sl, fp, sp, pc}	@
	.fnend
	.size	UpdateReflist, .-UpdateReflist
	.align	2
	.global	GetPicNumX
	.type	GetPicNumX, %function
GetPicNumX:
	.fnstart
.LFB1366:
	@ args = 0, pretend = 0, frame = 0
	@ frame_needed = 1, uses_anonymous_args = 0
	.movsp ip
	mov	ip, sp	@,
	stmfd	sp!, {fp, ip, lr, pc}	@,
	.pad #4
	.save {fp, ip, lr}
	.setfp fp, ip, #-4
	sub	fp, ip, #4	@,,
	push	{lr}
	bl	__gnu_mcount_nc
	ldrb	r3, [r0, #3]	@ zero_extendqisi2	@ <variable>.structure, <variable>.structure
	ldr	r0, [r0, #448]	@ CurrPicNum, <variable>.frame_num
	mvn	r1, r1	@ tmp141, difference_of_pic_nums_minus1
	cmp	r3, #0	@ <variable>.structure,
	movne	r0, r0, asl #1	@ tmp138, <variable>.frame_num,
	addne	r0, r0, #1	@ CurrPicNum, tmp138,
	add	r0, r0, r1	@, CurrPicNum, tmp141
	ldmfd	sp, {fp, sp, pc}	@
	.fnend
	.size	GetPicNumX, .-GetPicNumX
	.align	2
	.global	MarkPicLTRef
	.type	MarkPicLTRef, %function
MarkPicLTRef:
	.fnstart
.LFB1372:
	@ args = 0, pretend = 0, frame = 0
	@ frame_needed = 1, uses_anonymous_args = 0
	.movsp ip
	mov	ip, sp	@,
	stmfd	sp!, {r4, r5, r6, r7, r8, sl, fp, ip, lr, pc}	@,
	.pad #4
	.save {r4, r5, r6, r7, r8, sl, fp, ip, lr}
	.setfp fp, ip, #-4
	sub	fp, ip, #4	@,,
	push	{lr}
	bl	__gnu_mcount_nc
	ldrb	r3, [r3, #3]	@ zero_extendqisi2	@ D.36180, <variable>.structure
	cmp	r3, #0	@ D.36180,
	beq	.L65	@,
	mov	ip, #26624	@ tmp155,
	ldr	r8, [r0, ip]	@ D.36196, <variable>.DPB.ref_frames_in_buffer
	cmp	r8, #0	@ D.36196,
	ldmeqfd	sp, {r4, r5, r6, r7, r8, sl, fp, sp, pc}	@
	add	r5, r0, #26368	@ ivtmp.1073, pH264Ctx,
	sub	r6, r8, #1	@ tmp280, D.36196,
	and	r7, r6, #1	@ tmp282, tmp280,
	mov	r4, #0	@ i.1091,
	ldr	ip, [r5, #120]!	@ temp.1083, <variable>.DPB.fs_ref
	ldrb	r6, [ip, #2]	@ zero_extendqisi2	@ D.36198, <variable>.is_reference
	tst	r6, #1	@ D.36198,
	beq	.L85	@,
	ldr	sl, [ip, #468]	@ tmp311,
	bic	sl, sl, #-16777216	@ tmp312, tmp311,
	bic	sl, sl, #255	@ tmp312, tmp312,
	cmp	sl, #65536	@ tmp312,
	beq	.L104	@,
.L85:
	tst	r6, #2	@ D.36198,
	beq	.L86	@,
	ldr	r6, [ip, #504]	@ tmp306,
	bic	r6, r6, #-16777216	@ tmp307, tmp306,
	bic	r6, r6, #255	@ tmp307, tmp307,
	cmp	r6, #65536	@ tmp307,
	beq	.L105	@,
.L86:
	mov	r4, #1	@ i.1091,
	cmp	r8, r4	@ D.36196, i.1091
	add	r5, r5, #4	@ ivtmp.1073, ivtmp.1073,
	ldmlsfd	sp, {r4, r5, r6, r7, r8, sl, fp, sp, pc}	@
	cmp	r7, #0	@ tmp282,
	beq	.L74	@,
	ldr	ip, [r5, #0]	@ temp.1083, <variable>.DPB.fs_ref
	ldrb	r6, [ip, #2]	@ zero_extendqisi2	@ D.36198, <variable>.is_reference
	tst	r6, #1	@ D.36198,
	beq	.L88	@,
	ldr	r7, [ip, #468]	@ tmp324,
	bic	r7, r7, #-16777216	@ tmp325, tmp324,
	bic	r7, r7, #255	@ tmp325, tmp325,
	cmp	r7, #65536	@ tmp325,
	beq	.L106	@,
.L88:
	tst	r6, #2	@ D.36198,
	beq	.L89	@,
	ldr	r6, [ip, #504]	@ tmp319,
	bic	r6, r6, #-16777216	@ tmp320, tmp319,
	bic	r6, r6, #255	@ tmp320, tmp320,
	cmp	r6, #65536	@ tmp320,
	beq	.L107	@,
.L89:
	add	r4, r4, #1	@ i.1091, i.1091,
	add	r5, r5, #4	@ ivtmp.1073, ivtmp.1073,
	cmp	r8, r4	@ D.36196, i.1091
	ldmlsfd	sp, {r4, r5, r6, r7, r8, sl, fp, sp, pc}	@
	ldr	ip, [r5, #0]	@ temp.1083, <variable>.DPB.fs_ref
	ldrb	r6, [ip, #2]	@ zero_extendqisi2	@ D.36198, <variable>.is_reference
	tst	r6, #1	@ D.36198,
	bne	.L108	@,
.L70:
	tst	r6, #2	@ D.36198,
	beq	.L72	@,
	ldr	r6, [ip, #504]	@ tmp239,
	bic	r6, r6, #-16777216	@ tmp237, tmp239,
	bic	r6, r6, #255	@ tmp237, tmp237,
	cmp	r6, #65536	@ tmp237,
	beq	.L109	@,
.L72:
	ldr	ip, [r5, #4]	@ temp.1083, <variable>.DPB.fs_ref
	add	r4, r4, #1	@ i.1091, i.1091,
	add	r5, r5, #4	@ tmp284, ivtmp.1073,
	mov	sl, r4	@ tmp283, i.1091
	ldrb	r6, [ip, #2]	@ zero_extendqisi2	@ D.36198, <variable>.is_reference
	tst	r6, #1	@ D.36198,
	beq	.L92	@,
	ldr	r7, [ip, #468]	@ tmp335,
	bic	r7, r7, #-16777216	@ tmp336, tmp335,
	bic	r7, r7, #255	@ tmp336, tmp336,
	cmp	r7, #65536	@ tmp336,
	beq	.L110	@,
.L92:
	tst	r6, #2	@ D.36198,
	beq	.L93	@,
	ldr	r6, [ip, #504]	@ tmp330,
	bic	r6, r6, #-16777216	@ tmp331, tmp330,
	bic	r6, r6, #255	@ tmp331, tmp331,
	cmp	r6, #65536	@ tmp331,
	beq	.L111	@,
.L93:
	add	r4, sl, #1	@ i.1091, tmp283,
	add	r5, r5, #4	@ ivtmp.1073, tmp284,
	cmp	r8, r4	@ D.36196, i.1091
	bls	.L112	@,
.L74:
	ldr	ip, [r5, #0]	@ temp.1083, <variable>.DPB.fs_ref
	ldrb	r6, [ip, #2]	@ zero_extendqisi2	@ D.36198, <variable>.is_reference
	tst	r6, #1	@ D.36198,
	beq	.L70	@,
.L108:
	ldr	r7, [ip, #468]	@ tmp200,
	bic	r7, r7, #-16777216	@ tmp198, tmp200,
	bic	r7, r7, #255	@ tmp198, tmp198,
	cmp	r7, #65536	@ tmp198,
	bne	.L70	@,
	ldr	r7, [ip, #480]	@ <variable>.top_field.pic_num, <variable>.top_field.pic_num
	cmp	r7, r2	@ <variable>.top_field.pic_num, picNumX
	bne	.L70	@,
	ldrb	r6, [ip, #505]	@ zero_extendqisi2	@ <variable>.bottom_field.is_long_term, <variable>.bottom_field.is_long_term
	cmp	r6, #1	@ <variable>.bottom_field.is_long_term,
	bne	.L71	@,
	ldr	r6, [ip, #552]	@ <variable>.long_term_frame_idx, <variable>.long_term_frame_idx
	cmp	r6, r1	@ <variable>.long_term_frame_idx, long_term_frame_idx
	bne	.L72	@,
.L71:
	add	r4, r4, #6592	@ tmp204, i.1091,
	str	r1, [ip, #552]	@ long_term_frame_idx, <variable>.long_term_frame_idx
	add	r4, r4, #30	@ tmp204, tmp204,
	cmp	r3, #1	@ D.36180,
	movne	r2, #0	@, tmp209
	moveq	r2, #1	@, tmp209
	add	ip, r2, r1, asl #1	@, tmp210, tmp209, long_term_frame_idx,
	mov	r1, #1	@ tmp214,
	ldr	r3, [r0, r4, asl #2]	@ tmp206, <variable>.DPB.fs_ref
	str	ip, [r3, #476]	@ tmp210, <variable>.top_field.long_term_pic_num
	mov	ip, #0	@ tmp219,
	ldr	r2, [r0, r4, asl #2]	@ tmp213, <variable>.DPB.fs_ref
	strb	r1, [r2, #469]	@ tmp214, <variable>.top_field.is_long_term
	ldr	r3, [r0, r4, asl #2]	@ tmp218, <variable>.DPB.fs_ref
	strb	ip, [r3, #470]	@ tmp219, <variable>.top_field.is_short_term
	ldr	r3, [r0, r4, asl #2]	@ temp.1088, <variable>.DPB.fs_ref
	ldrb	r2, [r3, #432]	@ zero_extendqisi2	@ D.36219, <variable>.frame.structure
	cmp	r2, #3	@ D.36219,
	cmpne	r2, #0	@, D.36219,
	ldmnefd	sp, {r4, r5, r6, r7, r8, sl, fp, sp, pc}	@
	ldrb	ip, [r3, #505]	@ zero_extendqisi2	@ <variable>.bottom_field.is_long_term, <variable>.bottom_field.is_long_term
	ldrb	r1, [r3, #469]	@ zero_extendqisi2	@ D.36225, <variable>.top_field.is_long_term
	cmp	ip, r1	@ <variable>.bottom_field.is_long_term, D.36225
	streqb	ip, [r3, #433]	@ <variable>.bottom_field.is_long_term, <variable>.frame.is_long_term
	ldreq	r3, [r0, r4, asl #2]	@ temp.1090, <variable>.DPB.fs_ref
	ldreqb	ip, [r3, #470]	@ zero_extendqisi2	@ <variable>.top_field.is_short_term, <variable>.top_field.is_short_term
	streqb	ip, [r3, #434]	@ <variable>.top_field.is_short_term, <variable>.frame.is_short_term
	ldmfd	sp, {r4, r5, r6, r7, r8, sl, fp, sp, pc}	@
.L65:
	mov	ip, #26624	@ tmp156,
	ldr	r7, [r0, ip]	@ temp.1092, <variable>.DPB.ref_frames_in_buffer
	cmp	r7, #0	@ temp.1092,
	ldmeqfd	sp, {r4, r5, r6, r7, r8, sl, fp, sp, pc}	@
	add	r4, r0, #26368	@ ivtmp.1068, pH264Ctx,
	sub	r5, r7, #1	@ tmp275, temp.1092,
	and	r6, r5, #1	@ tmp277, tmp275,
	ldr	ip, [r4, #120]!	@ D.36184, <variable>.DPB.fs_ref
	ldrb	r5, [ip, #2]	@ zero_extendqisi2	@ <variable>.is_reference, <variable>.is_reference
	cmp	r5, #3	@ <variable>.is_reference,
	beq	.L113	@,
.L78:
	mov	r3, #1	@ i,
	cmp	r3, r7	@ i, temp.1092
	add	r4, r4, #4	@ ivtmp.1068, ivtmp.1068,
	ldmcsfd	sp, {r4, r5, r6, r7, r8, sl, fp, sp, pc}	@
	cmp	r6, #0	@ tmp277,
	beq	.L69	@,
	ldr	ip, [r4, #0]	@ D.36184, <variable>.DPB.fs_ref
	ldrb	r5, [ip, #2]	@ zero_extendqisi2	@ <variable>.is_reference, <variable>.is_reference
	cmp	r5, #3	@ <variable>.is_reference,
	beq	.L114	@,
.L80:
	add	r3, r3, #1	@ i, i,
	add	r4, r4, #4	@ ivtmp.1068, ivtmp.1068,
	cmp	r3, r7	@ i, temp.1092
	bcc	.L69	@,
	ldmfd	sp, {r4, r5, r6, r7, r8, sl, fp, sp, pc}	@
.L68:
	ldr	ip, [r4, #4]	@ D.36184, <variable>.DPB.fs_ref
	add	r3, r3, #1	@ i, i,
	mov	r5, r3	@ tmp279, i
	ldrb	r4, [ip, #2]	@ zero_extendqisi2	@ <variable>.is_reference, <variable>.is_reference
	cmp	r4, #3	@ <variable>.is_reference,
	beq	.L115	@,
.L83:
	add	r3, r5, #1	@ i, tmp279,
	add	r4, r6, #4	@ ivtmp.1068, tmp278,
	cmp	r3, r7	@ i, temp.1092
	bcs	.L116	@,
.L69:
	ldr	ip, [r4, #0]	@ D.36184, <variable>.DPB.fs_ref
	add	r6, r4, #4	@ tmp278, ivtmp.1068,
	ldrb	r5, [ip, #2]	@ zero_extendqisi2	@ <variable>.is_reference, <variable>.is_reference
	cmp	r5, #3	@ <variable>.is_reference,
	bne	.L68	@,
	ldr	r5, [ip, #432]	@ tmp161,
	bic	r5, r5, #-16777216	@ tmp159, tmp161,
	bic	r5, r5, #255	@ tmp159, tmp159,
	cmp	r5, #65536	@ tmp159,
	bne	.L68	@,
	ldr	r5, [ip, #444]	@ <variable>.frame.pic_num, <variable>.frame.pic_num
	cmp	r5, r2	@ <variable>.frame.pic_num, picNumX
	beq	.L101	@,
	ldr	ip, [r4, #4]	@ D.36184, <variable>.DPB.fs_ref
	add	r3, r3, #1	@ i, i,
	mov	r5, r3	@ tmp279, i
	ldrb	r4, [ip, #2]	@ zero_extendqisi2	@ <variable>.is_reference, <variable>.is_reference
	cmp	r4, #3	@ <variable>.is_reference,
	bne	.L83	@,
.L115:
	ldr	r4, [ip, #432]	@ tmp302,
	bic	r4, r4, #-16777216	@ tmp303, tmp302,
	bic	r4, r4, #255	@ tmp303, tmp303,
	cmp	r4, #65536	@ tmp303,
	bne	.L83	@,
	ldr	r4, [ip, #444]	@ <variable>.frame.pic_num, <variable>.frame.pic_num
	cmp	r4, r2	@ <variable>.frame.pic_num, picNumX
	beq	.L101	@,
	add	r3, r5, #1	@ i, tmp279,
	add	r4, r6, #4	@ ivtmp.1068, tmp278,
	cmp	r3, r7	@ i, temp.1092
	bcc	.L69	@,
.L116:
	ldmfd	sp, {r4, r5, r6, r7, r8, sl, fp, sp, pc}	@
.L110:
	ldr	r7, [ip, #480]	@ <variable>.top_field.pic_num, <variable>.top_field.pic_num
	cmp	r7, r2	@ <variable>.top_field.pic_num, picNumX
	bne	.L92	@,
	ldrb	r6, [ip, #505]	@ zero_extendqisi2	@ <variable>.bottom_field.is_long_term, <variable>.bottom_field.is_long_term
	cmp	r6, #1	@ <variable>.bottom_field.is_long_term,
	bne	.L71	@,
	ldr	r6, [ip, #552]	@ <variable>.long_term_frame_idx, <variable>.long_term_frame_idx
	cmp	r6, r1	@ <variable>.long_term_frame_idx, long_term_frame_idx
	beq	.L71	@,
	add	r4, sl, #1	@ i.1091, tmp283,
	add	r5, r5, #4	@ ivtmp.1073, tmp284,
	cmp	r8, r4	@ D.36196, i.1091
	bhi	.L74	@,
.L112:
	ldmfd	sp, {r4, r5, r6, r7, r8, sl, fp, sp, pc}	@
.L109:
	ldr	r6, [ip, #516]	@ <variable>.bottom_field.pic_num, <variable>.bottom_field.pic_num
	cmp	r6, r2	@ <variable>.bottom_field.pic_num, picNumX
	bne	.L72	@,
	ldrb	r6, [ip, #469]	@ zero_extendqisi2	@ <variable>.top_field.is_long_term, <variable>.top_field.is_long_term
	cmp	r6, #1	@ <variable>.top_field.is_long_term,
	bne	.L73	@,
	ldr	r6, [ip, #552]	@ <variable>.long_term_frame_idx, <variable>.long_term_frame_idx
	cmp	r6, r1	@ <variable>.long_term_frame_idx, long_term_frame_idx
	bne	.L72	@,
	b	.L73	@
.L111:
	ldr	r6, [ip, #516]	@ <variable>.bottom_field.pic_num, <variable>.bottom_field.pic_num
	cmp	r6, r2	@ <variable>.bottom_field.pic_num, picNumX
	bne	.L93	@,
	ldrb	r6, [ip, #469]	@ zero_extendqisi2	@ <variable>.top_field.is_long_term, <variable>.top_field.is_long_term
	cmp	r6, #1	@ <variable>.top_field.is_long_term,
	bne	.L73	@,
	ldr	r6, [ip, #552]	@ <variable>.long_term_frame_idx, <variable>.long_term_frame_idx
	cmp	r6, r1	@ <variable>.long_term_frame_idx, long_term_frame_idx
	bne	.L93	@,
.L73:
	add	r4, r4, #6592	@ tmp243, i.1091,
	str	r1, [ip, #552]	@ long_term_frame_idx, <variable>.long_term_frame_idx
	add	r4, r4, #30	@ tmp243, tmp243,
	cmp	r3, #2	@ D.36180,
	movne	r2, #0	@, tmp248
	moveq	r2, #1	@, tmp248
	add	ip, r2, r1, asl #1	@, tmp249, tmp248, long_term_frame_idx,
	mov	r1, #1	@ tmp253,
	ldr	r3, [r0, r4, asl #2]	@ tmp245, <variable>.DPB.fs_ref
	str	ip, [r3, #512]	@ tmp249, <variable>.bottom_field.long_term_pic_num
	mov	ip, #0	@ tmp258,
	ldr	r2, [r0, r4, asl #2]	@ tmp252, <variable>.DPB.fs_ref
	strb	r1, [r2, #505]	@ tmp253, <variable>.bottom_field.is_long_term
	ldr	r3, [r0, r4, asl #2]	@ tmp257, <variable>.DPB.fs_ref
	strb	ip, [r3, #506]	@ tmp258, <variable>.bottom_field.is_short_term
	ldr	r3, [r0, r4, asl #2]	@ temp.1099, <variable>.DPB.fs_ref
	ldrb	r2, [r3, #432]	@ zero_extendqisi2	@ D.36245, <variable>.frame.structure
	cmp	r2, #3	@ D.36245,
	cmpne	r2, #0	@, D.36245,
	ldmnefd	sp, {r4, r5, r6, r7, r8, sl, fp, sp, pc}	@
	ldrb	ip, [r3, #505]	@ zero_extendqisi2	@ <variable>.bottom_field.is_long_term, <variable>.bottom_field.is_long_term
	ldrb	r1, [r3, #469]	@ zero_extendqisi2	@ temp.1100, <variable>.top_field.is_long_term
	cmp	ip, r1	@ <variable>.bottom_field.is_long_term, temp.1100
	streqb	ip, [r3, #433]	@ <variable>.bottom_field.is_long_term, <variable>.frame.is_long_term
	ldreq	r3, [r0, r4, asl #2]	@ temp.1102, <variable>.DPB.fs_ref
	ldreqb	ip, [r3, #506]	@ zero_extendqisi2	@ <variable>.bottom_field.is_short_term, <variable>.bottom_field.is_short_term
	streqb	ip, [r3, #434]	@ <variable>.bottom_field.is_short_term, <variable>.frame.is_short_term
	ldmfd	sp, {r4, r5, r6, r7, r8, sl, fp, sp, pc}	@
.L104:
	ldr	sl, [ip, #480]	@ <variable>.top_field.pic_num, <variable>.top_field.pic_num
	cmp	sl, r2	@ <variable>.top_field.pic_num, picNumX
	bne	.L85	@,
	ldrb	r6, [ip, #505]	@ zero_extendqisi2	@ <variable>.bottom_field.is_long_term, <variable>.bottom_field.is_long_term
	cmp	r6, #1	@ <variable>.bottom_field.is_long_term,
	bne	.L71	@,
	ldr	r6, [ip, #552]	@ <variable>.long_term_frame_idx, <variable>.long_term_frame_idx
	cmp	r6, r1	@ <variable>.long_term_frame_idx, long_term_frame_idx
	bne	.L86	@,
	b	.L71	@
.L106:
	ldr	r7, [ip, #480]	@ <variable>.top_field.pic_num, <variable>.top_field.pic_num
	cmp	r7, r2	@ <variable>.top_field.pic_num, picNumX
	bne	.L88	@,
	ldrb	r6, [ip, #505]	@ zero_extendqisi2	@ <variable>.bottom_field.is_long_term, <variable>.bottom_field.is_long_term
	cmp	r6, #1	@ <variable>.bottom_field.is_long_term,
	bne	.L71	@,
	ldr	r6, [ip, #552]	@ <variable>.long_term_frame_idx, <variable>.long_term_frame_idx
	cmp	r6, r1	@ <variable>.long_term_frame_idx, long_term_frame_idx
	bne	.L89	@,
	b	.L71	@
.L105:
	ldr	r6, [ip, #516]	@ <variable>.bottom_field.pic_num, <variable>.bottom_field.pic_num
	cmp	r6, r2	@ <variable>.bottom_field.pic_num, picNumX
	bne	.L86	@,
	ldrb	r6, [ip, #469]	@ zero_extendqisi2	@ <variable>.top_field.is_long_term, <variable>.top_field.is_long_term
	cmp	r6, #1	@ <variable>.top_field.is_long_term,
	bne	.L73	@,
	ldr	r6, [ip, #552]	@ <variable>.long_term_frame_idx, <variable>.long_term_frame_idx
	cmp	r6, r1	@ <variable>.long_term_frame_idx, long_term_frame_idx
	bne	.L86	@,
	b	.L73	@
.L107:
	ldr	r6, [ip, #516]	@ <variable>.bottom_field.pic_num, <variable>.bottom_field.pic_num
	cmp	r6, r2	@ <variable>.bottom_field.pic_num, picNumX
	bne	.L89	@,
	ldrb	r6, [ip, #469]	@ zero_extendqisi2	@ <variable>.top_field.is_long_term, <variable>.top_field.is_long_term
	cmp	r6, #1	@ <variable>.top_field.is_long_term,
	bne	.L73	@,
	ldr	r6, [ip, #552]	@ <variable>.long_term_frame_idx, <variable>.long_term_frame_idx
	cmp	r6, r1	@ <variable>.long_term_frame_idx, long_term_frame_idx
	bne	.L89	@,
	b	.L73	@
.L113:
	ldr	r5, [ip, #432]	@ tmp295,
	bic	r5, r5, #-16777216	@ tmp296, tmp295,
	bic	r5, r5, #255	@ tmp296, tmp296,
	cmp	r5, #65536	@ tmp296,
	bne	.L78	@,
	ldr	r5, [ip, #444]	@ <variable>.frame.pic_num, <variable>.frame.pic_num
	cmp	r5, r2	@ <variable>.frame.pic_num, picNumX
	bne	.L78	@,
.L101:
	add	r4, r3, #6592	@ tmp163, i,
	str	r1, [ip, #552]	@ long_term_frame_idx, <variable>.long_term_frame_idx
	add	r3, r4, #30	@ tmp163, tmp163,
	mov	ip, #1	@ tmp169,
	mov	r2, #0	@ tmp184,
	ldr	r4, [r0, r3, asl #2]	@ tmp165, <variable>.DPB.fs_ref
	str	r1, [r4, #440]	@ long_term_frame_idx, <variable>.frame.long_term_pic_num
	ldr	r1, [r0, r3, asl #2]	@ tmp168, <variable>.DPB.fs_ref
	strb	ip, [r1, #433]	@ tmp169, <variable>.frame.is_long_term
	ldr	r1, [r0, r3, asl #2]	@ tmp173, <variable>.DPB.fs_ref
	strb	ip, [r1, #469]	@ tmp169, <variable>.top_field.is_long_term
	ldr	r1, [r0, r3, asl #2]	@ tmp178, <variable>.DPB.fs_ref
	strb	ip, [r1, #505]	@ tmp169, <variable>.bottom_field.is_long_term
	ldr	ip, [r0, r3, asl #2]	@ tmp183, <variable>.DPB.fs_ref
	strb	r2, [ip, #434]	@ tmp184, <variable>.frame.is_short_term
	ldr	r1, [r0, r3, asl #2]	@ tmp188, <variable>.DPB.fs_ref
	strb	r2, [r1, #470]	@ tmp184, <variable>.top_field.is_short_term
	ldr	r3, [r0, r3, asl #2]	@ tmp193, <variable>.DPB.fs_ref
	strb	r2, [r3, #506]	@ tmp184, <variable>.bottom_field.is_short_term
	ldmfd	sp, {r4, r5, r6, r7, r8, sl, fp, sp, pc}	@
.L114:
	ldr	r5, [ip, #432]	@ tmp299,
	bic	r5, r5, #-16777216	@ tmp300, tmp299,
	bic	r5, r5, #255	@ tmp300, tmp300,
	cmp	r5, #65536	@ tmp300,
	bne	.L80	@,
	ldr	r5, [ip, #444]	@ <variable>.frame.pic_num, <variable>.frame.pic_num
	cmp	r5, r2	@ <variable>.frame.pic_num, picNumX
	bne	.L80	@,
	b	.L101	@
	.fnend
	.size	MarkPicLTRef, .-MarkPicLTRef
	.align	2
	.global	SetFrmRepeatCount
	.type	SetFrmRepeatCount, %function
SetFrmRepeatCount:
	.fnstart
.LFB1382:
	@ args = 0, pretend = 0, frame = 0
	@ frame_needed = 1, uses_anonymous_args = 0
	.movsp ip
	mov	ip, sp	@,
	stmfd	sp!, {r3, r4, fp, ip, lr, pc}	@,
	.pad #4
	.save {r3, r4, fp, ip, lr}
	.setfp fp, ip, #-4
	sub	fp, ip, #4	@,,
	push	{lr}
	bl	__gnu_mcount_nc
	ldr	r3, [r0, #0]	@ <variable>.pstExtraData, <variable>.pstExtraData
	ldr	ip, [r3, #440]	@ <variable>.s32FastForwardBackwardSpeed, <variable>.s32FastForwardBackwardSpeed
	add	r2, ip, #2032	@ tmp138, <variable>.s32FastForwardBackwardSpeed,
	add	r3, r2, #15	@ tmp138, tmp138,
	cmp	r3, #4096	@ tmp138,
	bcc	.L118	@,
	movw	r3, #54192	@ tmp144,
	movw	r2, #54188	@ tmp142,
	ldr	r4, [r0, r3]	@ <variable>.PicOutCounter, <variable>.PicOutCounter
	movw	ip, #26616	@ tmp147,
	ldr	r2, [r0, r2]	@ <variable>.NewPicCounter, <variable>.NewPicCounter
	ldr	ip, [r0, ip]	@ <variable>.DPB.size, <variable>.DPB.size
	add	ip, ip, r4, lsr #1	@, D.36673, <variable>.DPB.size, <variable>.PicOutCounter,
	mov	r2, r2, lsr #1	@ D.36669, <variable>.NewPicCounter,
	add	r4, ip, #1	@ tmp149, D.36673,
	cmp	r2, r4	@ D.36669, tmp149
	bcc	.L118	@,
	mvn	ip, ip	@ tmp150, D.36673
	add	r2, ip, r2	@ tmp151, tmp150, D.36669
	cmp	r2, #1	@ tmp151,
	movhi	r2, #2	@ tmp152,
	movls	r2, #1	@ tmp157,
	strhi	r2, [r1, #64]	@ tmp152, <variable>.u32RepeatCnt
	strls	r2, [r1, #64]	@ tmp157, <variable>.u32RepeatCnt
	ldrhi	r2, [r0, r3]	@ <variable>.PicOutCounter, <variable>.PicOutCounter
	ldrls	r2, [r0, r3]	@ <variable>.PicOutCounter, <variable>.PicOutCounter
	addhi	r2, r2, #4	@ tmp156, <variable>.PicOutCounter,
	addls	r2, r2, #2	@ tmp161, <variable>.PicOutCounter,
	str	r2, [r0, r3]	@ tmp161, <variable>.PicOutCounter
	ldmfd	sp, {r3, r4, fp, sp, pc}	@
.L118:
	mov	r0, #0	@ tmp163,
	str	r0, [r1, #64]	@ tmp163, <variable>.u32RepeatCnt
	ldmfd	sp, {r3, r4, fp, sp, pc}	@
	.fnend
	.size	SetFrmRepeatCount, .-SetFrmRepeatCount
	.align	2
	.global	SplitFrmToFlds
	.type	SplitFrmToFlds, %function
SplitFrmToFlds:
	.fnstart
.LFB1385:
	@ args = 0, pretend = 0, frame = 0
	@ frame_needed = 1, uses_anonymous_args = 0
	.movsp ip
	mov	ip, sp	@,
	stmfd	sp!, {r4, r5, fp, ip, lr, pc}	@,
	.pad #4
	.save {r4, r5, fp, ip, lr}
	.setfp fp, ip, #-4
	sub	fp, ip, #4	@,,
	push	{lr}
	bl	__gnu_mcount_nc
	ldrb	r4, [r0, #433]	@ zero_extendqisi2	@ <variable>.frame.is_long_term, <variable>.frame.is_long_term
	ldrb	ip, [r0, #434]	@ zero_extendqisi2	@ <variable>.frame.is_short_term, <variable>.frame.is_short_term
	mov	r5, #1	@ tmp138,
	ldr	r1, [r0, #452]	@ <variable>.frame.err_level, <variable>.frame.err_level
	ldr	r2, [r0, #456]	@ <variable>.frame.pic_type, <variable>.frame.pic_type
	ldr	r3, [r0, #436]	@ <variable>.frame.frame_store, <variable>.frame.frame_store
	strb	r5, [r0, #468]	@ tmp138, <variable>.top_field.structure
	mov	r5, #2	@ tmp147,
	strb	r4, [r0, #505]	@ <variable>.frame.is_long_term, <variable>.bottom_field.is_long_term
	str	r3, [r0, #508]	@ <variable>.frame.frame_store, <variable>.bottom_field.frame_store
	strb	ip, [r0, #506]	@ <variable>.frame.is_short_term, <variable>.bottom_field.is_short_term
	strb	r5, [r0, #504]	@ tmp147, <variable>.bottom_field.structure
	str	r1, [r0, #524]	@ <variable>.frame.err_level, <variable>.bottom_field.err_level
	str	r2, [r0, #528]	@ <variable>.frame.pic_type, <variable>.bottom_field.pic_type
	strb	r4, [r0, #469]	@ <variable>.frame.is_long_term, <variable>.top_field.is_long_term
	strb	ip, [r0, #470]	@ <variable>.frame.is_short_term, <variable>.top_field.is_short_term
	str	r1, [r0, #488]	@ <variable>.frame.err_level, <variable>.top_field.err_level
	str	r2, [r0, #492]	@ <variable>.frame.pic_type, <variable>.top_field.pic_type
	str	r3, [r0, #472]	@ <variable>.frame.frame_store, <variable>.top_field.frame_store
	ldmfd	sp, {r4, r5, fp, sp, pc}	@
	.fnend
	.size	SplitFrmToFlds, .-SplitFrmToFlds
	.align	2
	.global	CombineFldsToFrm
	.type	CombineFldsToFrm, %function
CombineFldsToFrm:
	.fnstart
.LFB1386:
	@ args = 0, pretend = 0, frame = 0
	@ frame_needed = 1, uses_anonymous_args = 0
	.movsp ip
	mov	ip, sp	@,
	stmfd	sp!, {r3, r4, fp, ip, lr, pc}	@,
	.pad #4
	.save {r3, r4, fp, ip, lr}
	.setfp fp, ip, #-4
	sub	fp, ip, #4	@,,
	push	{lr}
	bl	__gnu_mcount_nc
	ldr	r1, [r0, #520]	@ <variable>.bottom_field.poc, <variable>.bottom_field.poc
	ldr	r3, [r0, #484]	@ <variable>.top_field.poc, <variable>.top_field.poc
	ldr	r4, [r0, #524]	@ <variable>.bottom_field.err_level, <variable>.bottom_field.err_level
	cmp	r1, r3	@ <variable>.bottom_field.poc, <variable>.top_field.poc
	movlt	r3, r1	@ D.36778, <variable>.bottom_field.poc
	movge	r3, r3	@ D.36778, <variable>.top_field.poc
	ldr	r2, [r0, #488]	@ <variable>.top_field.err_level, <variable>.top_field.err_level
	ldrb	r1, [r0, #505]	@ zero_extendqisi2	@ <variable>.bottom_field.is_long_term, <variable>.bottom_field.is_long_term
	ldr	ip, [r0, #472]	@ <variable>.top_field.frame_store, <variable>.top_field.frame_store
	add	r2, r4, r2	@ tmp144, <variable>.bottom_field.err_level, <variable>.top_field.err_level
	cmp	r1, #0	@ <variable>.bottom_field.is_long_term,
	mov	r4, #3	@ tmp142,
	mov	r2, r2, lsr #1	@ D.36783, tmp144,
	str	r3, [r0, #556]	@ D.36778, <variable>.poc
	strb	r4, [r0, #432]	@ tmp142, <variable>.frame.structure
	str	ip, [r0, #436]	@ <variable>.top_field.frame_store, <variable>.frame.frame_store
	str	r3, [r0, #448]	@ D.36778, <variable>.frame.poc
	str	r2, [r0, #452]	@ D.36783, <variable>.frame.err_level
	beq	.L127	@,
	ldrb	ip, [r0, #469]	@ zero_extendqisi2	@ <variable>.top_field.is_long_term, <variable>.top_field.is_long_term
	subs	r1, ip, #0	@ prephitmp.1180, <variable>.top_field.is_long_term,
	movne	r1, #1	@ prephitmp.1180
.L127:
	ldr	r3, [r0, #504]	@ tmp154,
	strb	r1, [r0, #433]	@ prephitmp.1180, <variable>.frame.is_long_term
	bic	ip, r3, #-16777216	@ tmp152, tmp154,
	bic	r3, ip, #255	@ tmp152, tmp152,
	cmp	r3, #0	@ tmp152,
	beq	.L128	@,
	ldr	ip, [r0, #468]	@ tmp157,
	bic	r3, ip, #-16777216	@ tmp155, tmp157,
	bic	ip, r3, #255	@ tmp155, tmp155,
	cmp	ip, #0	@ tmp155,
	bne	.L131	@,
.L128:
	mov	r1, #0	@ prephitmp.1169,
.L129:
	ldr	ip, [r0, #528]	@ <variable>.bottom_field.pic_type, <variable>.bottom_field.pic_type
	ldr	r3, [r0, #492]	@ <variable>.top_field.pic_type, <variable>.top_field.pic_type
	str	r2, [r0, #576]	@ D.36783, <variable>.err_level
	cmp	ip, r3	@ <variable>.bottom_field.pic_type, <variable>.top_field.pic_type
	movcs	r3, ip	@ D.36807, <variable>.bottom_field.pic_type
	strb	r1, [r0, #434]	@ prephitmp.1169, <variable>.frame.is_short_term
	str	r3, [r0, #572]	@ D.36807, <variable>.pic_type
	str	r3, [r0, #456]	@ D.36807, <variable>.frame.pic_type
	ldmfd	sp, {r3, r4, fp, sp, pc}	@
.L131:
	rsbs	r1, r1, #1	@ prephitmp.1169, prephitmp.1180
	movcc	r1, #0	@ prephitmp.1169
	b	.L129	@
	.fnend
	.size	CombineFldsToFrm, .-CombineFldsToFrm
	.align	2
	.global	UpdateCurrFrameInfo
	.type	UpdateCurrFrameInfo, %function
UpdateCurrFrameInfo:
	.fnstart
.LFB1397:
	@ args = 0, pretend = 0, frame = 0
	@ frame_needed = 1, uses_anonymous_args = 0
	.movsp ip
	mov	ip, sp	@,
	stmfd	sp!, {r4, r5, r6, r7, r8, r9, fp, ip, lr, pc}	@,
	.pad #4
	.save {r4, r5, r6, r7, r8, r9, fp, ip, lr}
	.setfp fp, ip, #-4
	sub	fp, ip, #4	@,,
	push	{lr}
	bl	__gnu_mcount_nc
	movw	ip, #51416	@ tmp152,
	movw	r5, #50978	@ tmp153,
	ldr	r4, [r0, ip]	@ pCurrFrame, <variable>.CurrPic.frame_store
	ldrb	r1, [r0, r5]	@ zero_extendqisi2	@ <variable>.CurrPic.non_existing, <variable>.CurrPic.non_existing
	mov	r3, r0	@ pH264Ctx, pH264Ctx
	movw	r0, #50980	@ tmp156,
	strb	r1, [r4, #0]	@ <variable>.CurrPic.non_existing, <variable>.non_existing
	ldrb	r2, [r3, r0]	@ zero_extendqisi2	@ <variable>.CurrPic.is_long_term, <variable>.CurrPic.is_long_term
	cmp	r2, #0	@ <variable>.CurrPic.is_long_term,
	bne	.L133	@,
	movw	r2, #50981	@ tmp158,
	ldrb	r2, [r3, r2]	@ zero_extendqisi2	@ <variable>.CurrPic.is_short_term, <variable>.CurrPic.is_short_term
	cmp	r2, #0	@ <variable>.CurrPic.is_short_term,
	bne	.L133	@,
.L134:
	movw	r5, #51424	@ tmp161,
	strb	r2, [r4, #2]	@ iftmp.517, <variable>.is_reference
	ldr	r2, [r3, r5]	@ <variable>.CurrPic.frame_num, <variable>.CurrPic.frame_num
	movw	ip, #51460	@ tmp163,
	movw	r5, #51452	@ tmp165,
	str	r2, [r4, #544]	@ <variable>.CurrPic.frame_num, <variable>.frame_num
	movw	r2, #50983	@ tmp175,
	ldr	r1, [r3, ip]	@ <variable>.CurrPic.err_level, <variable>.CurrPic.err_level
	str	r1, [r4, #576]	@ <variable>.CurrPic.err_level, <variable>.err_level
	movw	r1, #51436	@ tmp167,
	ldr	r0, [r3, r5]	@ <variable>.CurrPic.pic_type, <variable>.CurrPic.pic_type
	str	r0, [r4, #572]	@ <variable>.CurrPic.pic_type, <variable>.pic_type
	ldr	r0, [r3, r1]	@ <variable>.CurrPic.thispoc, <variable>.CurrPic.thispoc
	movw	r1, #51484	@ tmp169,
	str	r0, [r4, #556]	@ <variable>.CurrPic.thispoc, <variable>.poc
	ldr	r0, [r3, r1]	@ <variable>.CurrPic.pmv_address_idc, <variable>.CurrPic.pmv_address_idc
	movw	r1, #51428	@ tmp171,
	str	r0, [r4, #580]	@ <variable>.CurrPic.pmv_address_idc, <variable>.pmv_address_idc
	ldr	r0, [r3, r1]	@ <variable>.CurrPic.long_term_frame_idx, <variable>.CurrPic.long_term_frame_idx
	movw	r1, #50985	@ tmp173,
	str	r0, [r4, #552]	@ <variable>.CurrPic.long_term_frame_idx, <variable>.long_term_frame_idx
	ldrb	r0, [r3, r1]	@ zero_extendqisi2	@ <variable>.CurrPic.MbaffFrameFlag, <variable>.CurrPic.MbaffFrameFlag
	movw	r1, #50979	@ tmp178,
	str	r0, [r4, #568]	@ <variable>.CurrPic.MbaffFrameFlag, <variable>.MbaffFrameFlag
	ldrb	r0, [r3, r2]	@ zero_extendqisi2	@ <variable>.CurrPic.mode_skip_flag, <variable>.CurrPic.mode_skip_flag
	cmp	r0, #1	@ <variable>.CurrPic.mode_skip_flag,
	moveq	r0, #3	@ iftmp.519,
	movne	r0, #0	@ iftmp.519,
	strb	r0, [r4, #3]	@ iftmp.519, <variable>.mode_skip_flag
	ldrb	r1, [r3, r1]	@ zero_extendqisi2	@ <variable>.CurrPic.structure, <variable>.CurrPic.structure
	cmp	r1, #1	@ <variable>.CurrPic.structure,
	beq	.L139	@,
	bcs	.L153	@,
	movw	r1, #50980	@ tmp184,
	str	r4, [r4, #436]	@ pCurrFrame, <variable>.frame.frame_store
	mov	r2, #3	@ tmp180,
	mov	r6, #0	@ tmp182,
	strb	r2, [r4, #1]	@ tmp180, <variable>.is_used
	add	r8, r3, #50944	@, pH264Ctx,
	strb	r6, [r4, #432]	@ tmp182, <variable>.frame.structure
	movw	r0, #50981	@ tmp186,
	ldrb	r6, [r3, r1]	@ zero_extendqisi2	@ temp.1211, <variable>.CurrPic.is_long_term
	add	r1, r8, #48	@,,
	movw	lr, #51440	@ tmp188,
	mov	r2, #424	@,
	strb	r6, [r4, #433]	@ temp.1211, <variable>.frame.is_long_term
	ldrb	r8, [r3, r0]	@ zero_extendqisi2	@ temp.1212, <variable>.CurrPic.is_short_term
	add	r0, r4, #8	@, pCurrFrame,
	strb	r8, [r4, #434]	@ temp.1212, <variable>.frame.is_short_term
	ldr	r7, [r3, lr]	@ <variable>.CurrPic.framepoc, <variable>.CurrPic.framepoc
	str	r7, [r4, #448]	@ <variable>.CurrPic.framepoc, <variable>.frame.poc
	ldr	r5, [r3, r5]	@ temp.1213, <variable>.CurrPic.pic_type
	str	r5, [r4, #456]	@ temp.1213, <variable>.frame.pic_type
	ldr	r7, [r3, ip]	@ temp.1214, <variable>.CurrPic.err_level
	movw	ip, #51444	@ tmp192,
	str	r7, [r4, #452]	@ temp.1214, <variable>.frame.err_level
	ldr	lr, [r3, ip]	@ <variable>.CurrPic.toppoc, <variable>.CurrPic.toppoc
	movw	ip, #51448	@ tmp194,
	str	lr, [r4, #484]	@ <variable>.CurrPic.toppoc, <variable>.top_field.poc
	ldr	lr, [r3, ip]	@ <variable>.CurrPic.bottompoc, <variable>.CurrPic.bottompoc
	str	lr, [r4, #520]	@ <variable>.CurrPic.bottompoc, <variable>.bottom_field.poc
	bl	memcpy	@
	mov	ip, #1	@ tmp203,
	mov	r3, #2	@ tmp207,
	strb	r6, [r4, #505]	@ temp.1211, <variable>.bottom_field.is_long_term
	strb	r8, [r4, #506]	@ temp.1212, <variable>.bottom_field.is_short_term
	str	r7, [r4, #524]	@ temp.1214, <variable>.bottom_field.err_level
	strb	ip, [r4, #468]	@ tmp203, <variable>.top_field.structure
	strb	r3, [r4, #504]	@ tmp207, <variable>.bottom_field.structure
	str	r5, [r4, #528]	@ temp.1213, <variable>.bottom_field.pic_type
	str	r4, [r4, #508]	@ pCurrFrame, <variable>.bottom_field.frame_store
	strb	r6, [r4, #469]	@ temp.1211, <variable>.top_field.is_long_term
	strb	r8, [r4, #470]	@ temp.1212, <variable>.top_field.is_short_term
	str	r7, [r4, #488]	@ temp.1214, <variable>.top_field.err_level
	str	r5, [r4, #492]	@ temp.1213, <variable>.top_field.pic_type
	str	r4, [r4, #472]	@ pCurrFrame, <variable>.top_field.frame_store
	ldmfd	sp, {r4, r5, r6, r7, r8, r9, fp, sp, pc}	@
.L133:
	mov	r2, #3	@ iftmp.517,
	b	.L134	@
.L153:
	cmp	r1, #2	@ <variable>.CurrPic.structure,
	ldmnefd	sp, {r4, r5, r6, r7, r8, r9, fp, sp, pc}	@
	movw	r6, #50980	@ tmp252,
	str	r4, [r4, #508]	@ pCurrFrame, <variable>.bottom_field.frame_store
	mov	lr, #1	@ tmp250,
	strb	lr, [r4, #504]	@ tmp250, <variable>.bottom_field.structure
	ldrb	lr, [r3, r6]	@ zero_extendqisi2	@ <variable>.CurrPic.is_long_term, <variable>.CurrPic.is_long_term
	mov	r6, #0	@ tmp262,
	strb	lr, [r4, #505]	@ <variable>.CurrPic.is_long_term, <variable>.bottom_field.is_long_term
	movw	lr, #50981	@ tmp255,
	ldrb	lr, [r3, lr]	@ zero_extendqisi2	@ <variable>.CurrPic.is_short_term, <variable>.CurrPic.is_short_term
	strb	lr, [r4, #506]	@ <variable>.CurrPic.is_short_term, <variable>.bottom_field.is_short_term
	movw	lr, #51444	@ tmp258,
	ldr	lr, [r3, lr]	@ <variable>.CurrPic.toppoc, <variable>.CurrPic.toppoc
	str	lr, [r4, #520]	@ <variable>.CurrPic.toppoc, <variable>.bottom_field.poc
	ldr	lr, [r3, r5]	@ temp.1226, <variable>.CurrPic.pic_type
	movw	r5, #50977	@ tmp263,
	str	lr, [r4, #528]	@ temp.1226, <variable>.bottom_field.pic_type
	ldr	ip, [r3, ip]	@ temp.1227, <variable>.CurrPic.err_level
	str	r6, [r4, #568]	@ tmp262, <variable>.MbaffFrameFlag
	str	ip, [r4, #524]	@ temp.1227, <variable>.bottom_field.err_level
	ldrb	r5, [r3, r5]	@ zero_extendqisi2	@ <variable>.CurrPic.field_pair_flag, <variable>.CurrPic.field_pair_flag
	cmp	r5, r6	@ <variable>.CurrPic.field_pair_flag,
	beq	.L154	@,
	ldr	r1, [r4, #488]	@ <variable>.top_field.err_level, <variable>.top_field.err_level
	mov	r5, #3	@ tmp275,
	strb	r5, [r4, #1]	@ tmp275, <variable>.is_used
	add	ip, ip, r1	@ temp.1230, temp.1227, <variable>.top_field.err_level
	str	ip, [r4, #452]	@ temp.1230, <variable>.frame.err_level
	str	ip, [r4, #576]	@ temp.1230, <variable>.err_level
	mvn	r1, #0	@,
	ldrb	r7, [r3, r2]	@ zero_extendqisi2	@ <variable>.CurrPic.mode_skip_flag, <variable>.CurrPic.mode_skip_flag
	movw	r2, #51000	@ tmp282,
	cmp	r7, #1	@ <variable>.CurrPic.mode_skip_flag,
	orreq	r6, r0, #2	@ iftmp.522, iftmp.519,
	strb	r6, [r4, #3]	@ iftmp.522, <variable>.mode_skip_flag
	ldrd	r6, [r3, r2]	@ temp.1232, pH264Ctx, tmp282
	mvn	r0, #0	@ tmp283,
	cmp	r7, r1	@ temp.1232, tmp283
	cmpeq	r6, r0	@ temp.1232, tmp283
	beq	.L150	@,
	ldrd	r8, [r4, #16]	@ <variable>.fs_image.PTS, pCurrFrame,
	cmp	r9, r1	@ <variable>.fs_image.PTS, tmp283
	cmpeq	r8, r0	@ <variable>.fs_image.PTS, tmp283
	beq	.L155	@,
.L150:
	ldr	r2, [r4, #492]	@ <variable>.top_field.pic_type, <variable>.top_field.pic_type
	b	.L152	@
.L139:
	movw	r6, #50980	@ tmp211,
	strb	r1, [r4, #468]	@ <variable>.CurrPic.structure, <variable>.top_field.structure
	str	r4, [r4, #472]	@ pCurrFrame, <variable>.top_field.frame_store
	ldrb	lr, [r3, r6]	@ zero_extendqisi2	@ <variable>.CurrPic.is_long_term, <variable>.CurrPic.is_long_term
	mov	r6, #0	@ tmp221,
	strb	lr, [r4, #469]	@ <variable>.CurrPic.is_long_term, <variable>.top_field.is_long_term
	movw	lr, #50981	@ tmp214,
	ldrb	lr, [r3, lr]	@ zero_extendqisi2	@ <variable>.CurrPic.is_short_term, <variable>.CurrPic.is_short_term
	strb	lr, [r4, #470]	@ <variable>.CurrPic.is_short_term, <variable>.top_field.is_short_term
	movw	lr, #51444	@ tmp217,
	ldr	lr, [r3, lr]	@ <variable>.CurrPic.toppoc, <variable>.CurrPic.toppoc
	str	lr, [r4, #484]	@ <variable>.CurrPic.toppoc, <variable>.top_field.poc
	ldr	lr, [r3, r5]	@ temp.1218, <variable>.CurrPic.pic_type
	movw	r5, #50977	@ tmp222,
	str	lr, [r4, #492]	@ temp.1218, <variable>.top_field.pic_type
	ldr	ip, [r3, ip]	@ temp.1219, <variable>.CurrPic.err_level
	str	r6, [r4, #568]	@ tmp221, <variable>.MbaffFrameFlag
	str	ip, [r4, #488]	@ temp.1219, <variable>.top_field.err_level
	ldrb	r5, [r3, r5]	@ zero_extendqisi2	@ <variable>.CurrPic.field_pair_flag, <variable>.CurrPic.field_pair_flag
	cmp	r5, r6	@ <variable>.CurrPic.field_pair_flag,
	beq	.L156	@,
	ldr	r1, [r4, #524]	@ <variable>.bottom_field.err_level, <variable>.bottom_field.err_level
	mov	r5, #3	@ tmp235,
	strb	r5, [r4, #1]	@ tmp235, <variable>.is_used
	add	ip, ip, r1	@ D.37439, temp.1219, <variable>.bottom_field.err_level
	str	ip, [r4, #452]	@ D.37439, <variable>.frame.err_level
	str	ip, [r4, #576]	@ D.37439, <variable>.err_level
	mvn	r1, #0	@,
	ldrb	r7, [r3, r2]	@ zero_extendqisi2	@ <variable>.CurrPic.mode_skip_flag, <variable>.CurrPic.mode_skip_flag
	cmp	r7, #1	@ <variable>.CurrPic.mode_skip_flag,
	orreq	r6, r0, #1	@ iftmp.520, iftmp.519,
	movw	r0, #51000	@ tmp242,
	strb	r6, [r4, #3]	@ iftmp.520, <variable>.mode_skip_flag
	ldrd	r6, [r3, r0]	@ D.37446, pH264Ctx, tmp242
	mvn	r0, #0	@ tmp243,
	cmp	r7, r1	@ D.37446, tmp243
	cmpeq	r6, r0	@ D.37446, tmp243
	beq	.L144	@,
	ldrd	r8, [r4, #16]	@ <variable>.fs_image.PTS, pCurrFrame,
	cmp	r9, r1	@ <variable>.fs_image.PTS, tmp243
	cmpeq	r8, r0	@ <variable>.fs_image.PTS, tmp243
	beq	.L157	@,
.L144:
	ldr	r2, [r4, #528]	@ <variable>.bottom_field.pic_type, <variable>.bottom_field.pic_type
.L152:
	cmp	r2, lr	@ <variable>.top_field.pic_type, temp.1226
	strcs	r2, [r4, #572]	@, <variable>.top_field.pic_type, <variable>.pic_type
	strcc	lr, [r4, #572]	@, temp.1226, <variable>.pic_type
	movw	r2, #51436	@ tmp288,
	ldr	lr, [r3, r2]	@ <variable>.CurrPic.thispoc, <variable>.CurrPic.thispoc
	mov	r0, r4	@, pCurrFrame
	str	lr, [r4, #556]	@ <variable>.CurrPic.thispoc, <variable>.poc
	bl	CombineFldsToFrm	@
	ldmfd	sp, {r4, r5, r6, r7, r8, r9, fp, sp, pc}	@
.L154:
	strb	r1, [r4, #1]	@ <variable>.CurrPic.structure, <variable>.is_used
	add	r1, r3, #50944	@, pH264Ctx,
	str	ip, [r4, #452]	@ temp.1227, <variable>.frame.err_level
	add	r0, r4, #8	@, pCurrFrame,
	str	ip, [r4, #576]	@ temp.1227, <variable>.err_level
	add	r1, r1, #48	@,,
	ldrb	r3, [r3, r2]	@ zero_extendqisi2	@ <variable>.CurrPic.mode_skip_flag, <variable>.CurrPic.mode_skip_flag
	mov	r2, #424	@,
	cmp	r3, #1	@ <variable>.CurrPic.mode_skip_flag,
	moveq	r3, #2	@ iftmp.521,
	movne	r3, r6	@ iftmp.521,
	strb	r3, [r4, #3]	@ iftmp.521, <variable>.mode_skip_flag
	bl	memcpy	@
	ldmfd	sp, {r4, r5, r6, r7, r8, r9, fp, sp, pc}	@
.L156:
	strb	r1, [r4, #1]	@ <variable>.CurrPic.structure, <variable>.is_used
	add	r1, r3, #50944	@, pH264Ctx,
	str	ip, [r4, #452]	@ temp.1219, <variable>.frame.err_level
	add	r0, r4, #8	@, pCurrFrame,
	str	ip, [r4, #576]	@ temp.1219, <variable>.err_level
	add	r1, r1, #48	@,,
	ldrb	ip, [r3, r2]	@ zero_extendqisi2	@ <variable>.CurrPic.mode_skip_flag, <variable>.CurrPic.mode_skip_flag
	mov	r2, #424	@,
	cmp	ip, #1	@ <variable>.CurrPic.mode_skip_flag,
	movne	r3, #0	@, tmp228
	moveq	r3, #1	@, tmp228
	strb	r3, [r4, #3]	@ tmp228, <variable>.mode_skip_flag
	bl	memcpy	@
	ldmfd	sp, {r4, r5, r6, r7, r8, r9, fp, sp, pc}	@
.L157:
	strd	r6, [r4, #16]	@ D.37446, pCurrFrame,
	b	.L144	@
.L155:
	strd	r6, [r4, #16]	@ temp.1232, pCurrFrame,
	ldr	r2, [r4, #492]	@ <variable>.top_field.pic_type, <variable>.top_field.pic_type
	b	.L152	@
	.fnend
	.size	UpdateCurrFrameInfo, .-UpdateCurrFrameInfo
	.align	2
	.global	GetShortTermPicPoint
	.type	GetShortTermPicPoint, %function
GetShortTermPicPoint:
	.fnstart
.LFB1403:
	@ args = 0, pretend = 0, frame = 0
	@ frame_needed = 1, uses_anonymous_args = 0
	.movsp ip
	mov	ip, sp	@,
	stmfd	sp!, {r3, r4, r5, r6, fp, ip, lr, pc}	@,
	.pad #4
	.save {r3, r4, r5, r6, fp, ip, lr}
	.setfp fp, ip, #-4
	sub	fp, ip, #4	@,,
	push	{lr}
	bl	__gnu_mcount_nc
	movw	r3, #20673	@ tmp144,
	ldrb	r3, [r0, r3]	@ zero_extendqisi2	@ <variable>.CurrSlice.field_pic_flag, <variable>.CurrSlice.field_pic_flag
	cmp	r3, #0	@ <variable>.CurrSlice.field_pic_flag,
	beq	.L160	@,
	movw	r2, #20674	@ tmp146,
	ldrb	r3, [r0, r2]	@ zero_extendqisi2	@ <variable>.CurrSlice.bottom_field_flag, <variable>.CurrSlice.bottom_field_flag
	cmp	r3, #0	@ <variable>.CurrSlice.bottom_field_flag,
	movne	r3, #2	@ structure,
	moveq	r3, #1	@ structure,
.L160:
	mov	ip, #26624	@ tmp148,
	ldr	r5, [r0, ip]	@ D.37862, <variable>.DPB.ref_frames_in_buffer
	cmp	r5, #0	@ D.37862,
	beq	.L162	@,
	cmp	r3, #0	@ structure,
	add	r0, r0, #26368	@ ivtmp.1262, pH264Ctx,
	sub	r2, r5, #1	@ tmp166, D.37862,
	add	r0, r0, #120	@ ivtmp.1262, ivtmp.1262,
	and	r4, r2, #1	@ tmp168, tmp166,
	bne	.L170	@,
	ldr	r2, [r0, #0]	@ D.37827, <variable>.DPB.fs_ref
	ldrb	ip, [r2, #2]	@ zero_extendqisi2	@ <variable>.is_reference, <variable>.is_reference
	cmp	ip, #3	@ <variable>.is_reference,
	bne	.L172	@,
	ldr	ip, [r2, #432]	@ tmp185,
	bic	ip, ip, #-16777216	@ tmp186, tmp185,
	bic	ip, ip, #255	@ tmp186, tmp186,
	cmp	ip, #65536	@ tmp186,
	bne	.L172	@,
	ldr	ip, [r2, #444]	@ <variable>.frame.pic_num, <variable>.frame.pic_num
	cmp	ip, r1	@ <variable>.frame.pic_num, picNum
	beq	.L189	@,
.L172:
	mov	ip, #1	@ i,
	cmp	r5, ip	@ D.37862, i
	add	r0, r0, #4	@ ivtmp.1262, ivtmp.1262,
	bls	.L162	@,
	cmp	r4, #0	@ tmp168,
	beq	.L167	@,
	cmp	r3, #0	@ structure,
	beq	.L190	@,
	ldr	r2, [r0, #0]	@ temp.1265, <variable>.DPB.fs_ref
	ldrb	r4, [r2, #2]	@ zero_extendqisi2	@ D.37840, <variable>.is_reference
	tst	r4, #1	@ D.37840,
	beq	.L175	@,
	ldr	r6, [r2, #468]	@ tmp194,
	bic	r6, r6, #-16777216	@ tmp195, tmp194,
	bic	r6, r6, #255	@ tmp195, tmp195,
	cmp	r6, #65536	@ tmp195,
	beq	.L194	@,
.L175:
	tst	r4, #2	@ D.37840,
	beq	.L176	@,
	ldr	r4, [r2, #504]	@ tmp191,
	bic	r4, r4, #-16777216	@ tmp192, tmp191,
	bic	r4, r4, #255	@ tmp192, tmp192,
	cmp	r4, #65536	@ tmp192,
	bne	.L176	@,
	ldr	r4, [r2, #516]	@ <variable>.bottom_field.pic_num, <variable>.bottom_field.pic_num
	cmp	r4, r1	@ <variable>.bottom_field.pic_num, picNum
	beq	.L187	@,
.L176:
	add	ip, ip, #1	@ i, i,
	add	r0, r0, #4	@ ivtmp.1262, ivtmp.1262,
	cmp	r5, ip	@ D.37862, i
	bhi	.L167	@,
.L162:
	mov	r0, #0	@ D.37838,
	ldmfd	sp, {r3, r4, r5, r6, fp, sp, pc}	@
.L170:
	ldr	r2, [r0, #0]	@ temp.1265, <variable>.DPB.fs_ref
	ldrb	ip, [r2, #2]	@ zero_extendqisi2	@ D.37840, <variable>.is_reference
	tst	ip, #1	@ D.37840,
	beq	.L171	@,
	ldr	r6, [r2, #468]	@ tmp181,
	bic	r6, r6, #-16777216	@ tmp182, tmp181,
	bic	r6, r6, #255	@ tmp182, tmp182,
	cmp	r6, #65536	@ tmp182,
	beq	.L195	@,
.L171:
	tst	ip, #2	@ D.37840,
	beq	.L172	@,
	ldr	ip, [r2, #504]	@ tmp178,
	bic	ip, ip, #-16777216	@ tmp179, tmp178,
	bic	ip, ip, #255	@ tmp179, tmp179,
	cmp	ip, #65536	@ tmp179,
	bne	.L172	@,
	ldr	ip, [r2, #516]	@ <variable>.bottom_field.pic_num, <variable>.bottom_field.pic_num
	cmp	ip, r1	@ <variable>.bottom_field.pic_num, picNum
	bne	.L172	@,
.L187:
	add	r0, r2, #504	@ D.37838, temp.1265,
	ldmfd	sp, {r3, r4, r5, r6, fp, sp, pc}	@
.L196:
	ldr	r2, [r0, #0]	@ D.37827, <variable>.DPB.fs_ref
	ldrb	r4, [r2, #2]	@ zero_extendqisi2	@ <variable>.is_reference, <variable>.is_reference
	cmp	r4, #3	@ <variable>.is_reference,
	bne	.L164	@,
	ldr	r4, [r2, #432]	@ tmp153,
	bic	r4, r4, #-16777216	@ tmp151, tmp153,
	bic	r4, r4, #255	@ tmp151, tmp151,
	cmp	r4, #65536	@ tmp151,
	bne	.L164	@,
	ldr	r4, [r2, #444]	@ <variable>.frame.pic_num, <variable>.frame.pic_num
	cmp	r4, r1	@ <variable>.frame.pic_num, picNum
	beq	.L189	@,
.L164:
	cmp	r3, #0	@ structure,
	add	ip, ip, #1	@ tmp169, i,
	add	r4, r0, #4	@ tmp170, ivtmp.1262,
	bne	.L179	@,
.L198:
	ldr	r2, [r0, #4]	@ D.37827, <variable>.DPB.fs_ref
	ldrb	r0, [r2, #2]	@ zero_extendqisi2	@ <variable>.is_reference, <variable>.is_reference
	cmp	r0, #3	@ <variable>.is_reference,
	bne	.L181	@,
	ldr	r0, [r2, #432]	@ tmp211,
	bic	r0, r0, #-16777216	@ tmp212, tmp211,
	bic	r0, r0, #255	@ tmp212, tmp212,
	cmp	r0, #65536	@ tmp212,
	bne	.L181	@,
	ldr	r0, [r2, #444]	@ <variable>.frame.pic_num, <variable>.frame.pic_num
	cmp	r0, r1	@ <variable>.frame.pic_num, picNum
	beq	.L189	@,
.L181:
	add	ip, ip, #1	@ i, tmp169,
	add	r0, r4, #4	@ ivtmp.1262, tmp170,
	cmp	r5, ip	@ D.37862, i
	bls	.L162	@,
.L167:
	cmp	r3, #0	@ structure,
	beq	.L196	@,
	ldr	r2, [r0, #0]	@ temp.1265, <variable>.DPB.fs_ref
	ldrb	r4, [r2, #2]	@ zero_extendqisi2	@ D.37840, <variable>.is_reference
	tst	r4, #1	@ D.37840,
	beq	.L166	@,
	ldr	r6, [r2, #468]	@ tmp158,
	bic	r6, r6, #-16777216	@ tmp156, tmp158,
	bic	r6, r6, #255	@ tmp156, tmp156,
	cmp	r6, #65536	@ tmp156,
	beq	.L197	@,
.L166:
	tst	r4, #2	@ D.37840,
	beq	.L164	@,
	ldr	r4, [r2, #504]	@ tmp163,
	bic	r4, r4, #-16777216	@ tmp161, tmp163,
	bic	r4, r4, #255	@ tmp161, tmp161,
	cmp	r4, #65536	@ tmp161,
	bne	.L164	@,
	ldr	r4, [r2, #516]	@ <variable>.bottom_field.pic_num, <variable>.bottom_field.pic_num
	cmp	r4, r1	@ <variable>.bottom_field.pic_num, picNum
	beq	.L187	@,
	cmp	r3, #0	@ structure,
	add	ip, ip, #1	@ tmp169, i,
	add	r4, r0, #4	@ tmp170, ivtmp.1262,
	beq	.L198	@,
.L179:
	ldr	r2, [r0, #4]	@ temp.1265, <variable>.DPB.fs_ref
	ldrb	r0, [r2, #2]	@ zero_extendqisi2	@ D.37840, <variable>.is_reference
	tst	r0, #1	@ D.37840,
	beq	.L180	@,
	ldr	r6, [r2, #468]	@ tmp207,
	bic	r6, r6, #-16777216	@ tmp208, tmp207,
	bic	r6, r6, #255	@ tmp208, tmp208,
	cmp	r6, #65536	@ tmp208,
	beq	.L199	@,
.L180:
	tst	r0, #2	@ D.37840,
	beq	.L181	@,
	ldr	r0, [r2, #504]	@ tmp204,
	bic	r0, r0, #-16777216	@ tmp205, tmp204,
	bic	r0, r0, #255	@ tmp205, tmp205,
	cmp	r0, #65536	@ tmp205,
	bne	.L181	@,
	ldr	r0, [r2, #516]	@ <variable>.bottom_field.pic_num, <variable>.bottom_field.pic_num
	cmp	r0, r1	@ <variable>.bottom_field.pic_num, picNum
	bne	.L181	@,
	b	.L187	@
.L197:
	ldr	r6, [r2, #480]	@ <variable>.top_field.pic_num, <variable>.top_field.pic_num
	cmp	r6, r1	@ <variable>.top_field.pic_num, picNum
	bne	.L166	@,
.L188:
	add	r0, r2, #468	@ D.37838, temp.1265,
	ldmfd	sp, {r3, r4, r5, r6, fp, sp, pc}	@
.L199:
	ldr	r6, [r2, #480]	@ <variable>.top_field.pic_num, <variable>.top_field.pic_num
	cmp	r6, r1	@ <variable>.top_field.pic_num, picNum
	bne	.L180	@,
	b	.L188	@
.L190:
	ldr	r2, [r0, #0]	@ D.37827, <variable>.DPB.fs_ref
	ldrb	r4, [r2, #2]	@ zero_extendqisi2	@ <variable>.is_reference, <variable>.is_reference
	cmp	r4, #3	@ <variable>.is_reference,
	bne	.L176	@,
	ldr	r4, [r2, #432]	@ tmp198,
	bic	r4, r4, #-16777216	@ tmp199, tmp198,
	bic	r4, r4, #255	@ tmp199, tmp199,
	cmp	r4, #65536	@ tmp199,
	bne	.L176	@,
	ldr	r4, [r2, #444]	@ <variable>.frame.pic_num, <variable>.frame.pic_num
	cmp	r4, r1	@ <variable>.frame.pic_num, picNum
	bne	.L176	@,
.L189:
	add	r0, r2, #432	@ D.37838, D.37827,
	ldmfd	sp, {r3, r4, r5, r6, fp, sp, pc}	@
.L195:
	ldr	r6, [r2, #480]	@ <variable>.top_field.pic_num, <variable>.top_field.pic_num
	cmp	r6, r1	@ <variable>.top_field.pic_num, picNum
	bne	.L171	@,
	b	.L188	@
.L194:
	ldr	r6, [r2, #480]	@ <variable>.top_field.pic_num, <variable>.top_field.pic_num
	cmp	r6, r1	@ <variable>.top_field.pic_num, picNum
	bne	.L175	@,
	b	.L188	@
	.fnend
	.size	GetShortTermPicPoint, .-GetShortTermPicPoint
	.align	2
	.global	GetLongTermPicPoint
	.type	GetLongTermPicPoint, %function
GetLongTermPicPoint:
	.fnstart
.LFB1404:
	@ args = 0, pretend = 0, frame = 0
	@ frame_needed = 1, uses_anonymous_args = 0
	.movsp ip
	mov	ip, sp	@,
	stmfd	sp!, {r3, r4, r5, r6, fp, ip, lr, pc}	@,
	.pad #4
	.save {r3, r4, r5, r6, fp, ip, lr}
	.setfp fp, ip, #-4
	sub	fp, ip, #4	@,,
	push	{lr}
	bl	__gnu_mcount_nc
	movw	r3, #20673	@ tmp144,
	ldrb	r3, [r0, r3]	@ zero_extendqisi2	@ <variable>.CurrSlice.field_pic_flag, <variable>.CurrSlice.field_pic_flag
	cmp	r3, #0	@ <variable>.CurrSlice.field_pic_flag,
	beq	.L202	@,
	movw	r2, #20674	@ tmp146,
	ldrb	r3, [r0, r2]	@ zero_extendqisi2	@ <variable>.CurrSlice.bottom_field_flag, <variable>.CurrSlice.bottom_field_flag
	cmp	r3, #0	@ <variable>.CurrSlice.bottom_field_flag,
	movne	r3, #2	@ structure,
	moveq	r3, #1	@ structure,
.L202:
	movw	ip, #26628	@ tmp148,
	ldr	r5, [r0, ip]	@ D.37920, <variable>.DPB.ltref_frames_in_buffer
	cmp	r5, #0	@ D.37920,
	beq	.L204	@,
	cmp	r3, #0	@ structure,
	add	r0, r0, #26368	@ ivtmp.1293, pH264Ctx,
	sub	r2, r5, #1	@ tmp166, D.37920,
	add	r0, r0, #184	@ ivtmp.1293, ivtmp.1293,
	and	r4, r2, #1	@ tmp168, tmp166,
	bne	.L212	@,
	ldr	r2, [r0, #0]	@ D.37885, <variable>.DPB.fs_ltref
	ldrb	ip, [r2, #2]	@ zero_extendqisi2	@ <variable>.is_reference, <variable>.is_reference
	cmp	ip, #3	@ <variable>.is_reference,
	bne	.L214	@,
	ldr	ip, [r2, #432]	@ tmp185,
	bic	ip, ip, #-16777216	@ tmp186, tmp185,
	bic	ip, ip, #255	@ tmp186, tmp186,
	cmp	ip, #256	@ tmp186,
	bne	.L214	@,
	ldr	ip, [r2, #440]	@ <variable>.frame.long_term_pic_num, <variable>.frame.long_term_pic_num
	cmp	ip, r1	@ <variable>.frame.long_term_pic_num, LongtermPicNum
	beq	.L231	@,
.L214:
	mov	ip, #1	@ i,
	cmp	r5, ip	@ D.37920, i
	add	r0, r0, #4	@ ivtmp.1293, ivtmp.1293,
	bls	.L204	@,
	cmp	r4, #0	@ tmp168,
	beq	.L209	@,
	cmp	r3, #0	@ structure,
	beq	.L232	@,
	ldr	r2, [r0, #0]	@ temp.1296, <variable>.DPB.fs_ltref
	ldrb	r4, [r2, #2]	@ zero_extendqisi2	@ D.37898, <variable>.is_reference
	tst	r4, #1	@ D.37898,
	beq	.L217	@,
	ldr	r6, [r2, #468]	@ tmp194,
	bic	r6, r6, #-16777216	@ tmp195, tmp194,
	bic	r6, r6, #255	@ tmp195, tmp195,
	cmp	r6, #256	@ tmp195,
	beq	.L236	@,
.L217:
	tst	r4, #2	@ D.37898,
	beq	.L218	@,
	ldr	r4, [r2, #504]	@ tmp191,
	bic	r4, r4, #-16777216	@ tmp192, tmp191,
	bic	r4, r4, #255	@ tmp192, tmp192,
	cmp	r4, #256	@ tmp192,
	bne	.L218	@,
	ldr	r4, [r2, #512]	@ <variable>.bottom_field.long_term_pic_num, <variable>.bottom_field.long_term_pic_num
	cmp	r4, r1	@ <variable>.bottom_field.long_term_pic_num, LongtermPicNum
	beq	.L229	@,
.L218:
	add	ip, ip, #1	@ i, i,
	add	r0, r0, #4	@ ivtmp.1293, ivtmp.1293,
	cmp	r5, ip	@ D.37920, i
	bhi	.L209	@,
.L204:
	mov	r0, #0	@ D.37896,
	ldmfd	sp, {r3, r4, r5, r6, fp, sp, pc}	@
.L212:
	ldr	r2, [r0, #0]	@ temp.1296, <variable>.DPB.fs_ltref
	ldrb	ip, [r2, #2]	@ zero_extendqisi2	@ D.37898, <variable>.is_reference
	tst	ip, #1	@ D.37898,
	beq	.L213	@,
	ldr	r6, [r2, #468]	@ tmp181,
	bic	r6, r6, #-16777216	@ tmp182, tmp181,
	bic	r6, r6, #255	@ tmp182, tmp182,
	cmp	r6, #256	@ tmp182,
	beq	.L237	@,
.L213:
	tst	ip, #2	@ D.37898,
	beq	.L214	@,
	ldr	ip, [r2, #504]	@ tmp178,
	bic	ip, ip, #-16777216	@ tmp179, tmp178,
	bic	ip, ip, #255	@ tmp179, tmp179,
	cmp	ip, #256	@ tmp179,
	bne	.L214	@,
	ldr	ip, [r2, #512]	@ <variable>.bottom_field.long_term_pic_num, <variable>.bottom_field.long_term_pic_num
	cmp	ip, r1	@ <variable>.bottom_field.long_term_pic_num, LongtermPicNum
	bne	.L214	@,
.L229:
	add	r0, r2, #504	@ D.37896, temp.1296,
	ldmfd	sp, {r3, r4, r5, r6, fp, sp, pc}	@
.L238:
	ldr	r2, [r0, #0]	@ D.37885, <variable>.DPB.fs_ltref
	ldrb	r4, [r2, #2]	@ zero_extendqisi2	@ <variable>.is_reference, <variable>.is_reference
	cmp	r4, #3	@ <variable>.is_reference,
	bne	.L206	@,
	ldr	r4, [r2, #432]	@ tmp153,
	bic	r4, r4, #-16777216	@ tmp151, tmp153,
	bic	r4, r4, #255	@ tmp151, tmp151,
	cmp	r4, #256	@ tmp151,
	bne	.L206	@,
	ldr	r4, [r2, #440]	@ <variable>.frame.long_term_pic_num, <variable>.frame.long_term_pic_num
	cmp	r4, r1	@ <variable>.frame.long_term_pic_num, LongtermPicNum
	beq	.L231	@,
.L206:
	cmp	r3, #0	@ structure,
	add	ip, ip, #1	@ tmp169, i,
	add	r4, r0, #4	@ tmp170, ivtmp.1293,
	bne	.L221	@,
.L240:
	ldr	r2, [r0, #4]	@ D.37885, <variable>.DPB.fs_ltref
	ldrb	r0, [r2, #2]	@ zero_extendqisi2	@ <variable>.is_reference, <variable>.is_reference
	cmp	r0, #3	@ <variable>.is_reference,
	bne	.L223	@,
	ldr	r0, [r2, #432]	@ tmp211,
	bic	r0, r0, #-16777216	@ tmp212, tmp211,
	bic	r0, r0, #255	@ tmp212, tmp212,
	cmp	r0, #256	@ tmp212,
	bne	.L223	@,
	ldr	r0, [r2, #440]	@ <variable>.frame.long_term_pic_num, <variable>.frame.long_term_pic_num
	cmp	r0, r1	@ <variable>.frame.long_term_pic_num, LongtermPicNum
	beq	.L231	@,
.L223:
	add	ip, ip, #1	@ i, tmp169,
	add	r0, r4, #4	@ ivtmp.1293, tmp170,
	cmp	r5, ip	@ D.37920, i
	bls	.L204	@,
.L209:
	cmp	r3, #0	@ structure,
	beq	.L238	@,
	ldr	r2, [r0, #0]	@ temp.1296, <variable>.DPB.fs_ltref
	ldrb	r4, [r2, #2]	@ zero_extendqisi2	@ D.37898, <variable>.is_reference
	tst	r4, #1	@ D.37898,
	beq	.L208	@,
	ldr	r6, [r2, #468]	@ tmp158,
	bic	r6, r6, #-16777216	@ tmp156, tmp158,
	bic	r6, r6, #255	@ tmp156, tmp156,
	cmp	r6, #256	@ tmp156,
	beq	.L239	@,
.L208:
	tst	r4, #2	@ D.37898,
	beq	.L206	@,
	ldr	r4, [r2, #504]	@ tmp163,
	bic	r4, r4, #-16777216	@ tmp161, tmp163,
	bic	r4, r4, #255	@ tmp161, tmp161,
	cmp	r4, #256	@ tmp161,
	bne	.L206	@,
	ldr	r4, [r2, #512]	@ <variable>.bottom_field.long_term_pic_num, <variable>.bottom_field.long_term_pic_num
	cmp	r4, r1	@ <variable>.bottom_field.long_term_pic_num, LongtermPicNum
	beq	.L229	@,
	cmp	r3, #0	@ structure,
	add	ip, ip, #1	@ tmp169, i,
	add	r4, r0, #4	@ tmp170, ivtmp.1293,
	beq	.L240	@,
.L221:
	ldr	r2, [r0, #4]	@ temp.1296, <variable>.DPB.fs_ltref
	ldrb	r0, [r2, #2]	@ zero_extendqisi2	@ D.37898, <variable>.is_reference
	tst	r0, #1	@ D.37898,
	beq	.L222	@,
	ldr	r6, [r2, #468]	@ tmp207,
	bic	r6, r6, #-16777216	@ tmp208, tmp207,
	bic	r6, r6, #255	@ tmp208, tmp208,
	cmp	r6, #256	@ tmp208,
	beq	.L241	@,
.L222:
	tst	r0, #2	@ D.37898,
	beq	.L223	@,
	ldr	r0, [r2, #504]	@ tmp204,
	bic	r0, r0, #-16777216	@ tmp205, tmp204,
	bic	r0, r0, #255	@ tmp205, tmp205,
	cmp	r0, #256	@ tmp205,
	bne	.L223	@,
	ldr	r0, [r2, #512]	@ <variable>.bottom_field.long_term_pic_num, <variable>.bottom_field.long_term_pic_num
	cmp	r0, r1	@ <variable>.bottom_field.long_term_pic_num, LongtermPicNum
	bne	.L223	@,
	b	.L229	@
.L239:
	ldr	r6, [r2, #476]	@ <variable>.top_field.long_term_pic_num, <variable>.top_field.long_term_pic_num
	cmp	r6, r1	@ <variable>.top_field.long_term_pic_num, LongtermPicNum
	bne	.L208	@,
.L230:
	add	r0, r2, #468	@ D.37896, temp.1296,
	ldmfd	sp, {r3, r4, r5, r6, fp, sp, pc}	@
.L241:
	ldr	r6, [r2, #476]	@ <variable>.top_field.long_term_pic_num, <variable>.top_field.long_term_pic_num
	cmp	r6, r1	@ <variable>.top_field.long_term_pic_num, LongtermPicNum
	bne	.L222	@,
	b	.L230	@
.L232:
	ldr	r2, [r0, #0]	@ D.37885, <variable>.DPB.fs_ltref
	ldrb	r4, [r2, #2]	@ zero_extendqisi2	@ <variable>.is_reference, <variable>.is_reference
	cmp	r4, #3	@ <variable>.is_reference,
	bne	.L218	@,
	ldr	r4, [r2, #432]	@ tmp198,
	bic	r4, r4, #-16777216	@ tmp199, tmp198,
	bic	r4, r4, #255	@ tmp199, tmp199,
	cmp	r4, #256	@ tmp199,
	bne	.L218	@,
	ldr	r4, [r2, #440]	@ <variable>.frame.long_term_pic_num, <variable>.frame.long_term_pic_num
	cmp	r4, r1	@ <variable>.frame.long_term_pic_num, LongtermPicNum
	bne	.L218	@,
.L231:
	add	r0, r2, #432	@ D.37896, D.37885,
	ldmfd	sp, {r3, r4, r5, r6, fp, sp, pc}	@
.L237:
	ldr	r6, [r2, #476]	@ <variable>.top_field.long_term_pic_num, <variable>.top_field.long_term_pic_num
	cmp	r6, r1	@ <variable>.top_field.long_term_pic_num, LongtermPicNum
	bne	.L213	@,
	b	.L230	@
.L236:
	ldr	r6, [r2, #476]	@ <variable>.top_field.long_term_pic_num, <variable>.top_field.long_term_pic_num
	cmp	r6, r1	@ <variable>.top_field.long_term_pic_num, LongtermPicNum
	bne	.L217	@,
	b	.L230	@
	.fnend
	.size	GetLongTermPicPoint, .-GetLongTermPicPoint
	.align	2
	.global	ReorderSTList
	.type	ReorderSTList, %function
ReorderSTList:
	.fnstart
.LFB1405:
	@ args = 4, pretend = 0, frame = 0
	@ frame_needed = 1, uses_anonymous_args = 0
	.movsp ip
	mov	ip, sp	@,
	stmfd	sp!, {r3, r4, r5, r6, r7, r8, fp, ip, lr, pc}	@,
	.pad #4
	.save {r3, r4, r5, r6, r7, r8, fp, ip, lr}
	.setfp fp, ip, #-4
	sub	fp, ip, #4	@,,
	push	{lr}
	bl	__gnu_mcount_nc
	ldr	r4, [fp, #4]	@ refIdxLX, refIdxLX
	mov	r5, r1	@ RefPicListX, RefPicListX
	mov	r1, r3	@, picNumLX
	mov	r6, r3	@ picNumLX, picNumLX
	mov	r7, r2	@ num_ref_idx_lX_active_minus1, num_ref_idx_lX_active_minus1
	bl	GetShortTermPicPoint	@
	ldr	r3, [r4, #0]	@ D.37946,* refIdxLX
	add	r8, r7, #1	@ cIdx, num_ref_idx_lX_active_minus1,
	cmp	r8, r3	@ cIdx, D.37946
	ble	.L243	@,
	add	r1, r5, r8, asl #2	@, ivtmp.1343, RefPicListX, cIdx,
	add	r2, r5, r7, asl #2	@, ivtmp.1341, RefPicListX, ivtmp.1338,
.L244:
	ldr	r3, [r2], #-4	@ tmp155,
	mov	ip, r7	@ cIdx.1345, ivtmp.1338
	sub	r7, r7, #1	@ ivtmp.1338, ivtmp.1338,
	str	r3, [r1], #-4	@ tmp155,
	ldr	r3, [r4, #0]	@ D.37946,* refIdxLX
	cmp	r3, ip	@ D.37946, cIdx.1345
	blt	.L244	@,
.L243:
	add	r1, r3, #1	@ cIdx.1344, D.37946,
	str	r0, [r5, r3, asl #2]	@ picLX,* RefPicListX
	cmp	r8, r1	@ cIdx, cIdx.1344
	str	r1, [r4, #0]	@ cIdx.1344,* refIdxLX
	ldmltfd	sp, {r3, r4, r5, r6, r7, r8, fp, sp, pc}	@
	add	r2, r5, r1, asl #2	@, ivtmp.1334, RefPicListX, cIdx.1344,
	rsb	r0, r1, r8	@ tmp159, cIdx.1344, cIdx
	and	ip, r0, #1	@ tmp160, tmp159,
	mov	r3, r1	@ nIdx, cIdx.1344
	ldr	r0, [r2, #0]	@ D.37951,* ivtmp.1334
	cmp	r0, #0	@ D.37951,
	beq	.L252	@,
	ldrb	r4, [r0, #1]	@ zero_extendqisi2	@ <variable>.is_long_term, <variable>.is_long_term
	cmp	r4, #0	@ <variable>.is_long_term,
	beq	.L265	@,
.L253:
	add	r3, r1, #1	@ nIdx, cIdx.1344,
	str	r0, [r5, r1, asl #2]	@ D.37951,* RefPicListX
.L252:
	add	r1, r1, #1	@ cIdx.1344, cIdx.1344,
	add	r2, r2, #4	@ ivtmp.1334, ivtmp.1334,
	cmp	r8, r1	@ cIdx, cIdx.1344
	ldmltfd	sp, {r3, r4, r5, r6, r7, r8, fp, sp, pc}	@
.L268:
	cmp	ip, #0	@ tmp160,
	beq	.L248	@,
	ldr	r0, [r2, #0]	@ D.37951,* ivtmp.1334
	cmp	r0, #0	@ D.37951,
	beq	.L255	@,
	ldrb	lr, [r0, #1]	@ zero_extendqisi2	@ <variable>.is_long_term, <variable>.is_long_term
	cmp	lr, #0	@ <variable>.is_long_term,
	beq	.L266	@,
.L256:
	str	r0, [r5, r3, asl #2]	@ D.37951,* RefPicListX
	add	r3, r3, #1	@ nIdx, nIdx,
.L255:
	add	r1, r1, #1	@ cIdx.1344, cIdx.1344,
	add	r2, r2, #4	@ ivtmp.1334, ivtmp.1334,
	cmp	r8, r1	@ cIdx, cIdx.1344
	ldmltfd	sp, {r3, r4, r5, r6, r7, r8, fp, sp, pc}	@
.L248:
	ldr	r0, [r2, #0]	@ D.37951,* ivtmp.1334
	add	r1, r1, #1	@ tmp161, cIdx.1344,
	add	ip, r2, #4	@ tmp162, ivtmp.1334,
	cmp	r0, #0	@ D.37951,
	beq	.L246	@,
	ldrb	r4, [r0, #1]	@ zero_extendqisi2	@ <variable>.is_long_term, <variable>.is_long_term
	cmp	r4, #0	@ <variable>.is_long_term,
	bne	.L247	@,
	ldr	r4, [r0, #12]	@ <variable>.pic_num, <variable>.pic_num
	cmp	r4, r6	@ <variable>.pic_num, picNumLX
	beq	.L246	@,
.L247:
	str	r0, [r5, r3, asl #2]	@ D.37951,* RefPicListX
	add	r3, r3, #1	@ nIdx, nIdx,
.L246:
	ldr	r2, [r2, #4]	@ D.37951,
	cmp	r2, #0	@ D.37951,
	beq	.L259	@,
	ldrb	r0, [r2, #1]	@ zero_extendqisi2	@ <variable>.is_long_term, <variable>.is_long_term
	cmp	r0, #0	@ <variable>.is_long_term,
	bne	.L260	@,
	ldr	lr, [r2, #12]	@ <variable>.pic_num, <variable>.pic_num
	cmp	lr, r6	@ <variable>.pic_num, picNumLX
	beq	.L259	@,
.L260:
	str	r2, [r5, r3, asl #2]	@ D.37951,* RefPicListX
	add	r3, r3, #1	@ nIdx, nIdx,
.L259:
	add	r1, r1, #1	@ cIdx.1344, tmp161,
	add	r2, ip, #4	@ ivtmp.1334, tmp162,
	cmp	r8, r1	@ cIdx, cIdx.1344
	bge	.L248	@,
	ldmfd	sp, {r3, r4, r5, r6, r7, r8, fp, sp, pc}	@
.L265:
	ldr	r4, [r0, #12]	@ <variable>.pic_num, <variable>.pic_num
	cmp	r4, r6	@ <variable>.pic_num, picNumLX
	bne	.L253	@,
	add	r1, r1, #1	@ cIdx.1344, cIdx.1344,
	add	r2, r2, #4	@ ivtmp.1334, ivtmp.1334,
	cmp	r8, r1	@ cIdx, cIdx.1344
	bge	.L268	@,
	ldmfd	sp, {r3, r4, r5, r6, r7, r8, fp, sp, pc}	@
.L266:
	ldr	ip, [r0, #12]	@ <variable>.pic_num, <variable>.pic_num
	cmp	ip, r6	@ <variable>.pic_num, picNumLX
	bne	.L256	@,
	b	.L255	@
	.fnend
	.size	ReorderSTList, .-ReorderSTList
	.align	2
	.global	ReorderLTList
	.type	ReorderLTList, %function
ReorderLTList:
	.fnstart
.LFB1406:
	@ args = 4, pretend = 0, frame = 0
	@ frame_needed = 1, uses_anonymous_args = 0
	.movsp ip
	mov	ip, sp	@,
	stmfd	sp!, {r3, r4, r5, r6, r7, r8, fp, ip, lr, pc}	@,
	.pad #4
	.save {r3, r4, r5, r6, r7, r8, fp, ip, lr}
	.setfp fp, ip, #-4
	sub	fp, ip, #4	@,,
	push	{lr}
	bl	__gnu_mcount_nc
	ldr	r4, [fp, #4]	@ refIdxLX, refIdxLX
	mov	r5, r1	@ RefPicListX, RefPicListX
	mov	r1, r3	@, LongTermPicNum
	mov	r6, r3	@ LongTermPicNum, LongTermPicNum
	mov	r7, r2	@ num_ref_idx_lX_active_minus1, num_ref_idx_lX_active_minus1
	bl	GetLongTermPicPoint	@
	ldr	r3, [r4, #0]	@ D.37988,* refIdxLX
	add	r8, r7, #1	@ cIdx, num_ref_idx_lX_active_minus1,
	cmp	r8, r3	@ cIdx, D.37988
	ble	.L270	@,
	add	r1, r5, r8, asl #2	@, ivtmp.1391, RefPicListX, cIdx,
	add	r2, r5, r7, asl #2	@, ivtmp.1389, RefPicListX, ivtmp.1386,
.L271:
	ldr	r3, [r2], #-4	@ tmp151,
	mov	ip, r7	@ cIdx.1393, ivtmp.1386
	sub	r7, r7, #1	@ ivtmp.1386, ivtmp.1386,
	str	r3, [r1], #-4	@ tmp151,
	ldr	r3, [r4, #0]	@ D.37988,* refIdxLX
	cmp	r3, ip	@ D.37988, cIdx.1393
	blt	.L271	@,
.L270:
	add	r1, r3, #1	@ cIdx.1392, D.37988,
	str	r0, [r5, r3, asl #2]	@ picLX,* RefPicListX
	cmp	r8, r1	@ cIdx, cIdx.1392
	str	r1, [r4, #0]	@ cIdx.1392,* refIdxLX
	ldmltfd	sp, {r3, r4, r5, r6, r7, r8, fp, sp, pc}	@
	add	r2, r5, r1, asl #2	@, ivtmp.1382, RefPicListX, cIdx.1392,
	rsb	r0, r1, r8	@ tmp155, cIdx.1392, cIdx
	and	ip, r0, #1	@ tmp156, tmp155,
	mov	r3, r1	@ nIdx, cIdx.1392
	ldr	r0, [r2, #0]	@ D.37993,* ivtmp.1382
	cmp	r0, #0	@ D.37993,
	beq	.L279	@,
	ldrb	r4, [r0, #1]	@ zero_extendqisi2	@ <variable>.is_long_term, <variable>.is_long_term
	cmp	r4, #0	@ <variable>.is_long_term,
	bne	.L292	@,
.L280:
	add	r3, r1, #1	@ nIdx, cIdx.1392,
	str	r0, [r5, r1, asl #2]	@ D.37993,* RefPicListX
.L279:
	add	r1, r1, #1	@ cIdx.1392, cIdx.1392,
	add	r2, r2, #4	@ ivtmp.1382, ivtmp.1382,
	cmp	r8, r1	@ cIdx, cIdx.1392
	ldmltfd	sp, {r3, r4, r5, r6, r7, r8, fp, sp, pc}	@
.L295:
	cmp	ip, #0	@ tmp156,
	beq	.L275	@,
	ldr	r0, [r2, #0]	@ D.37993,* ivtmp.1382
	cmp	r0, #0	@ D.37993,
	beq	.L282	@,
	ldrb	lr, [r0, #1]	@ zero_extendqisi2	@ <variable>.is_long_term, <variable>.is_long_term
	cmp	lr, #0	@ <variable>.is_long_term,
	bne	.L293	@,
.L283:
	str	r0, [r5, r3, asl #2]	@ D.37993,* RefPicListX
	add	r3, r3, #1	@ nIdx, nIdx,
.L282:
	add	r1, r1, #1	@ cIdx.1392, cIdx.1392,
	add	r2, r2, #4	@ ivtmp.1382, ivtmp.1382,
	cmp	r8, r1	@ cIdx, cIdx.1392
	ldmltfd	sp, {r3, r4, r5, r6, r7, r8, fp, sp, pc}	@
.L275:
	ldr	r0, [r2, #0]	@ D.37993,* ivtmp.1382
	add	r1, r1, #1	@ tmp157, cIdx.1392,
	add	ip, r2, #4	@ tmp158, ivtmp.1382,
	cmp	r0, #0	@ D.37993,
	beq	.L273	@,
	ldrb	r4, [r0, #1]	@ zero_extendqisi2	@ <variable>.is_long_term, <variable>.is_long_term
	cmp	r4, #0	@ <variable>.is_long_term,
	beq	.L274	@,
	ldr	r4, [r0, #8]	@ <variable>.long_term_pic_num, <variable>.long_term_pic_num
	cmp	r4, r6	@ <variable>.long_term_pic_num, LongTermPicNum
	beq	.L273	@,
.L274:
	str	r0, [r5, r3, asl #2]	@ D.37993,* RefPicListX
	add	r3, r3, #1	@ nIdx, nIdx,
.L273:
	ldr	r2, [r2, #4]	@ D.37993,
	cmp	r2, #0	@ D.37993,
	beq	.L286	@,
	ldrb	r0, [r2, #1]	@ zero_extendqisi2	@ <variable>.is_long_term, <variable>.is_long_term
	cmp	r0, #0	@ <variable>.is_long_term,
	beq	.L287	@,
	ldr	lr, [r2, #8]	@ <variable>.long_term_pic_num, <variable>.long_term_pic_num
	cmp	lr, r6	@ <variable>.long_term_pic_num, LongTermPicNum
	beq	.L286	@,
.L287:
	str	r2, [r5, r3, asl #2]	@ D.37993,* RefPicListX
	add	r3, r3, #1	@ nIdx, nIdx,
.L286:
	add	r1, r1, #1	@ cIdx.1392, tmp157,
	add	r2, ip, #4	@ ivtmp.1382, tmp158,
	cmp	r8, r1	@ cIdx, cIdx.1392
	bge	.L275	@,
	ldmfd	sp, {r3, r4, r5, r6, r7, r8, fp, sp, pc}	@
.L292:
	ldr	r4, [r0, #8]	@ <variable>.long_term_pic_num, <variable>.long_term_pic_num
	cmp	r4, r6	@ <variable>.long_term_pic_num, LongTermPicNum
	bne	.L280	@,
	add	r1, r1, #1	@ cIdx.1392, cIdx.1392,
	add	r2, r2, #4	@ ivtmp.1382, ivtmp.1382,
	cmp	r8, r1	@ cIdx, cIdx.1392
	bge	.L295	@,
	ldmfd	sp, {r3, r4, r5, r6, r7, r8, fp, sp, pc}	@
.L293:
	ldr	ip, [r0, #8]	@ <variable>.long_term_pic_num, <variable>.long_term_pic_num
	cmp	ip, r6	@ <variable>.long_term_pic_num, LongTermPicNum
	bne	.L283	@,
	b	.L282	@
	.fnend
	.size	ReorderLTList, .-ReorderLTList
	.align	2
	.global	ReorderRefPiclist
	.type	ReorderRefPiclist, %function
ReorderRefPiclist:
	.fnstart
.LFB1407:
	@ args = 12, pretend = 0, frame = 24
	@ frame_needed = 1, uses_anonymous_args = 0
	.movsp ip
	mov	ip, sp	@,
	stmfd	sp!, {r4, r5, r6, r7, r8, r9, sl, fp, ip, lr, pc}	@,
	.pad #4
	.save {r4, r5, r6, r7, r8, r9, sl, fp, ip, lr}
	.setfp fp, ip, #-4
	sub	fp, ip, #4	@,,
	.pad #36
	sub	sp, sp, #36	@,,
	push	{lr}
	bl	__gnu_mcount_nc
	mov	r5, r0	@ pH264Ctx, pH264Ctx
	movw	r0, #20673	@ tmp152,
	mov	r7, r3	@ num_ref_idx_lX_active_minus1, num_ref_idx_lX_active_minus1
	ldrb	r2, [r5, r0]	@ zero_extendqisi2	@ <variable>.CurrSlice.field_pic_flag, <variable>.CurrSlice.field_pic_flag
	mov	r3, #0	@ tmp151,
	mov	r8, r1	@ list, list
	str	r3, [fp, #-48]	@ tmp151, refIdxLX
	cmp	r2, #0	@ <variable>.CurrSlice.field_pic_flag,
	ldr	r9, [fp, #4]	@ reordering_of_pic_nums_idc, reordering_of_pic_nums_idc
	beq	.L297	@,
	movw	r0, #13584	@ tmp157,
	movw	r3, #20684	@ tmp155,
	ldr	r1, [r5, r0]	@ <variable>.PPS, <variable>.PPS
	mov	ip, #2208	@ tmp159,
	ldr	r3, [r5, r3]	@ <variable>.CurrSlice.pic_parameter_set_id, <variable>.CurrSlice.pic_parameter_set_id
	movw	r0, #20692	@ tmp171,
	movw	r2, #13580	@ tmp163,
	ldr	r2, [r5, r2]	@ <variable>.SPS, <variable>.SPS
	mla	r3, ip, r3, r1	@ tmp160, tmp159, <variable>.CurrSlice.pic_parameter_set_id, <variable>.PPS
	ldr	r1, [r5, r0]	@ <variable>.CurrSlice.frame_num, <variable>.CurrSlice.frame_num
	mov	ip, r1, asl #1	@ tmp172, <variable>.CurrSlice.frame_num,
	movw	r1, #3992	@ tmp165,
	add	r0, ip, #1	@, tmp172,
	str	r0, [fp, #-60]	@, %sfp
	ldr	ip, [r3, #28]	@ <variable>.seq_parameter_set_id, <variable>.seq_parameter_set_id
	mla	r0, r1, ip, r2	@ tmp166, tmp165, <variable>.seq_parameter_set_id, <variable>.SPS
	mov	ip, #2	@ tmp169,
	ldr	r2, [r0, #2896]	@ <variable>.log2_max_frame_num_minus4, <variable>.log2_max_frame_num_minus4
	add	r3, r2, #4	@ tmp167, <variable>.log2_max_frame_num_minus4,
	mov	r1, ip, asl r3	@, tmp169,
	str	r1, [fp, #-56]	@, %sfp
.L307:
	adds	ip, r7, #2	@, num_ref_idx_lX_active_minus1,
	str	ip, [fp, #-64]	@, %sfp
	beq	.L308	@,
	ldr	r3, [r9, #0]	@ D.38055,* reordering_of_pic_nums_idc
	cmp	r3, #3	@ D.38055,
	beq	.L308	@,
	tst	r7, #1	@ num_ref_idx_lX_active_minus1,
	mov	r2, #0	@ D.38053,
	ldr	r6, [fp, #-60]	@ picNumLXPred, %sfp
	mov	r4, r2	@ i, D.38053
	sub	sl, fp, #48	@ tmp198,,
	bne	.L299	@,
	cmp	r3, #1	@ D.38055,
	bls	.L322	@,
	ldr	r4, [fp, #12]	@, long_term_pic_idx
	mov	r0, r5	@, pH264Ctx
	mov	r1, r8	@, list
	mov	r2, r7	@, num_ref_idx_lX_active_minus1
	ldr	r3, [r4, #0]	@ tmp206,
	str	sl, [sp, #0]	@ tmp198,
	bl	ReorderLTList	@
.L323:
	mov	r2, #4	@ D.38053,
	mov	r4, #1	@ i,
	ldr	r3, [r9, r2]	@ D.38055,* D.38053
	cmp	r3, #3	@ D.38055,
	bne	.L299	@,
.L308:
	sub	sp, fp, #40
	ldmfd	sp, {r4, r5, r6, r7, r8, r9, sl, fp, sp, pc}
.L300:
	ldr	r1, [fp, #12]	@, long_term_pic_idx
	mov	r0, r5	@, pH264Ctx
	ldr	r3, [r1, r2]	@ tmp179,* D.38053
	mov	r1, r8	@, list
	mov	r2, r7	@, num_ref_idx_lX_active_minus1
	str	sl, [sp, #0]	@ tmp198,
	bl	ReorderLTList	@
.L305:
	ldr	lr, [fp, #-64]	@, %sfp
	add	r4, r4, #1	@ tmp202, i,
	cmp	lr, r4	@, tmp202
	bls	.L308	@,
	ldr	r3, [r9, r4, asl #2]	@ D.38055,* reordering_of_pic_nums_idc
	cmp	r3, #3	@ D.38055,
	beq	.L308	@,
	cmp	r3, #1	@ D.38055,
	bls	.L327	@,
	ldr	r2, [fp, #12]	@, long_term_pic_idx
	mov	r0, r5	@, pH264Ctx
	mov	r1, r8	@, list
	ldr	r3, [r2, r4, asl #2]	@ tmp213,
	mov	r2, r7	@, num_ref_idx_lX_active_minus1
	str	sl, [sp, #0]	@ tmp198,
	bl	ReorderLTList	@
.L328:
	add	r4, r4, #1	@ i, tmp202,
	ldr	r3, [r9, r4, asl #2]	@ D.38055,* reordering_of_pic_nums_idc
	mov	r2, r4, asl #2	@ D.38053, i,
	cmp	r3, #3	@ D.38055,
	beq	.L308	@,
.L299:
	cmp	r3, #1	@ D.38055,
	bhi	.L300	@,
	cmp	r3, #0	@ D.38055,
	bne	.L301	@,
	ldr	r1, [fp, #8]	@, abs_diff_pic_num_minus1
	ldr	r0, [r1, r2]	@ tmp175,* D.38053
	mvn	lr, r0	@ tmp174, tmp175
	adds	r6, lr, r6	@ picNumLXNoWrap, tmp174, picNumLXPred
	bmi	.L334	@,
.L302:
	ldr	r3, [fp, #-60]	@, %sfp
	mov	r0, r5	@, pH264Ctx
	mov	r2, r7	@, num_ref_idx_lX_active_minus1
	str	sl, [sp, #0]	@ tmp198,
	cmp	r3, r6	@, picNumLXNoWrap
	ldrlt	r1, [fp, #-56]	@, %sfp
	movge	r3, r6	@ picNumLX, picNumLXNoWrap
	rsblt	r3, r1, r6	@ picNumLX,, picNumLXNoWrap
	mov	r1, r8	@, list
	bl	ReorderSTList	@
	b	.L305	@
.L327:
	cmp	r3, #0	@ D.38055,
	bne	.L316	@,
	ldr	lr, [fp, #8]	@, abs_diff_pic_num_minus1
	ldr	r3, [lr, r4, asl #2]	@ tmp218,
	mvn	r2, r3	@ tmp219, tmp218
	adds	r6, r2, r6	@ picNumLXNoWrap, tmp219, picNumLXPred
	bmi	.L335	@,
.L318:
	ldr	r3, [fp, #-60]	@, %sfp
	cmp	r3, r6	@, picNumLXNoWrap
	bge	.L336	@,
	ldr	lr, [fp, #-56]	@, %sfp
	rsb	r3, lr, r6	@ picNumLX,, picNumLXNoWrap
.L331:
	mov	r0, r5	@, pH264Ctx
	mov	r1, r8	@, list
	mov	r2, r7	@, num_ref_idx_lX_active_minus1
	str	sl, [sp, #0]	@ tmp198,
	bl	ReorderSTList	@
	b	.L328	@
.L301:
	ldr	r1, [fp, #8]	@, abs_diff_pic_num_minus1
	add	r6, r6, #1	@ tmp176, picNumLXPred,
	ldr	r3, [fp, #-56]	@, %sfp
	ldr	ip, [r1, r2]	@ tmp177,* D.38053
	add	r6, r6, ip	@ picNumLXNoWrap, tmp176, tmp177
	cmp	r3, r6	@, picNumLXNoWrap
	rsble	r6, r3, r6	@ picNumLXNoWrap,, picNumLXNoWrap
	b	.L302	@
.L336:
	mov	r3, r6	@ picNumLX, picNumLXNoWrap
	b	.L331	@
.L316:
	ldr	ip, [fp, #8]	@, abs_diff_pic_num_minus1
	add	r6, r6, #1	@ tmp216, picNumLXPred,
	ldr	r0, [fp, #-56]	@, %sfp
	ldr	r1, [ip, r4, asl #2]	@ tmp217,
	add	r6, r6, r1	@ picNumLXNoWrap, tmp216, tmp217
	cmp	r0, r6	@, picNumLXNoWrap
	rsble	r6, r0, r6	@ picNumLXNoWrap,, picNumLXNoWrap
	b	.L318	@
.L297:
	movw	ip, #13584	@ tmp184,
	movw	r3, #20684	@ tmp182,
	ldr	r3, [r5, r3]	@ <variable>.CurrSlice.pic_parameter_set_id, <variable>.CurrSlice.pic_parameter_set_id
	mov	r0, #2208	@ tmp186,
	ldr	r1, [r5, ip]	@ <variable>.PPS, <variable>.PPS
	movw	r2, #13580	@ tmp190,
	ldr	r2, [r5, r2]	@ <variable>.SPS, <variable>.SPS
	mla	ip, r0, r3, r1	@ tmp187, tmp186, <variable>.CurrSlice.pic_parameter_set_id, <variable>.PPS
	movw	r1, #20692	@ tmp197,
	ldr	r0, [r5, r1]	@, <variable>.CurrSlice.frame_num
	movw	r1, #3992	@ tmp192,
	str	r0, [fp, #-60]	@, %sfp
	ldr	r3, [ip, #28]	@ <variable>.seq_parameter_set_id, <variable>.seq_parameter_set_id
	mla	r0, r1, r3, r2	@ tmp193, tmp192, <variable>.seq_parameter_set_id, <variable>.SPS
	mov	r2, #1	@ tmp196,
	ldr	ip, [r0, #2896]	@ <variable>.log2_max_frame_num_minus4, <variable>.log2_max_frame_num_minus4
	add	r3, ip, #4	@ tmp194, <variable>.log2_max_frame_num_minus4,
	mov	r0, r2, asl r3	@, tmp196,
	str	r0, [fp, #-56]	@, %sfp
	b	.L307	@
.L322:
	cmp	r3, #0	@ D.38055,
	bne	.L310	@,
	ldr	r1, [fp, #8]	@, abs_diff_pic_num_minus1
	ldr	lr, [fp, #-60]	@, %sfp
	ldr	r0, [r1, #0]	@ tmp211,
	mvn	r4, r0	@ tmp212, tmp211
	adds	r6, r4, lr	@ picNumLXNoWrap, tmp212,
	bmi	.L337	@,
.L312:
	ldr	lr, [fp, #-60]	@, %sfp
	cmp	lr, r6	@, picNumLXNoWrap
	bge	.L338	@,
.L311:
	ldr	r0, [fp, #-56]	@, %sfp
	rsb	r3, r0, r6	@ picNumLX,, picNumLXNoWrap
.L326:
	mov	r0, r5	@, pH264Ctx
	mov	r1, r8	@, list
	mov	r2, r7	@, num_ref_idx_lX_active_minus1
	str	sl, [sp, #0]	@ tmp198,
	bl	ReorderSTList	@
	b	.L323	@
.L334:
	ldr	r2, [fp, #-56]	@, %sfp
	add	r6, r6, r2	@ picNumLXNoWrap, picNumLXNoWrap,
	b	.L302	@
.L335:
	ldr	r0, [fp, #-56]	@, %sfp
	add	r6, r6, r0	@ picNumLXNoWrap, picNumLXNoWrap,
	b	.L318	@
.L310:
	ldr	r3, [fp, #8]	@, abs_diff_pic_num_minus1
	ldr	r2, [fp, #-60]	@, %sfp
	ldr	r1, [fp, #-56]	@, %sfp
	ldr	ip, [r3, #0]	@ tmp210,
	add	r6, r2, #1	@ tmp209,,
	ldr	lr, [fp, #-60]	@, %sfp
	add	r6, r6, ip	@ picNumLXNoWrap, tmp209, tmp210
	cmp	r1, r6	@, picNumLXNoWrap
	rsble	r6, r1, r6	@ picNumLXNoWrap,, picNumLXNoWrap
	cmp	lr, r6	@, picNumLXNoWrap
	blt	.L311	@,
.L338:
	mov	r3, r6	@ picNumLX, picNumLXNoWrap
	b	.L326	@
.L337:
	ldr	ip, [fp, #-56]	@, %sfp
	add	r6, r6, ip	@ picNumLXNoWrap, picNumLXNoWrap,
	b	.L312	@
	.fnend
	.size	ReorderRefPiclist, .-ReorderRefPiclist
	.align	2
	.global	ReorderListX
	.type	ReorderListX, %function
ReorderListX:
	.fnstart
.LFB1408:
	@ args = 0, pretend = 0, frame = 0
	@ frame_needed = 1, uses_anonymous_args = 0
	.movsp ip
	mov	ip, sp	@,
	stmfd	sp!, {r4, r5, fp, ip, lr, pc}	@,
	.pad #4
	.save {r4, r5, fp, ip, lr}
	.setfp fp, ip, #-4
	sub	fp, ip, #4	@,,
	.pad #16
	sub	sp, sp, #16	@,,
	push	{lr}
	bl	__gnu_mcount_nc
	movw	r1, #20672	@ tmp134,
	ldrb	r3, [r0, r1]	@ zero_extendqisi2	@ <variable>.CurrSlice.slice_type, <variable>.CurrSlice.slice_type
	mov	r4, r0	@ pH264Ctx, pH264Ctx
	cmp	r3, #2	@ <variable>.CurrSlice.slice_type,
	beq	.L343	@,
	movw	ip, #19880	@ tmp136,
	ldrb	r2, [r0, ip]	@ zero_extendqisi2	@ <variable>.CurrReorder.ref_pic_list_reordering_flag_l0, <variable>.CurrReorder.ref_pic_list_reordering_flag_l0
	cmp	r2, #0	@ <variable>.CurrReorder.ref_pic_list_reordering_flag_l0,
	bne	.L344	@,
.L341:
	movw	r3, #20672	@ tmp154,
	movw	r0, #20728	@ tmp151,
	ldrb	r1, [r4, r3]	@ zero_extendqisi2	@ <variable>.CurrSlice.slice_type, <variable>.CurrSlice.slice_type
	movw	ip, #20716	@ tmp150,
	ldr	r2, [r4, r0]	@ <variable>.CurrSlice.num_ref_idx_l0_active_minus1, <variable>.CurrSlice.num_ref_idx_l0_active_minus1
	cmp	r1, #1	@ <variable>.CurrSlice.slice_type,
	add	r0, r2, #1	@ tmp153, <variable>.CurrSlice.num_ref_idx_l0_active_minus1,
	str	r0, [r4, ip]	@ tmp153, <variable>.CurrSlice.listXsize
	bne	.L343	@,
	movw	r2, #19881	@ tmp156,
	ldrb	ip, [r4, r2]	@ zero_extendqisi2	@ <variable>.CurrReorder.ref_pic_list_reordering_flag_l1, <variable>.CurrReorder.ref_pic_list_reordering_flag_l1
	cmp	ip, #0	@ <variable>.CurrReorder.ref_pic_list_reordering_flag_l1,
	bne	.L345	@,
.L342:
	movw	r1, #20732	@ tmp172,
	movw	r3, #20720	@ tmp171,
	ldr	ip, [r4, r1]	@ <variable>.CurrSlice.num_ref_idx_l1_active_minus1, <variable>.CurrSlice.num_ref_idx_l1_active_minus1
	add	r2, ip, #1	@ tmp174, <variable>.CurrSlice.num_ref_idx_l1_active_minus1,
	str	r2, [r4, r3]	@ tmp174, <variable>.CurrSlice.listXsize
.L343:
	sub	sp, fp, #20
	ldmfd	sp, {r4, r5, fp, sp, pc}
.L344:
	add	r1, r0, #26880	@, pH264Ctx,
	add	r2, r0, #20480	@, pH264Ctx,
	movw	r3, #20728	@ tmp142,
	add	r5, r0, #19712	@ tmp144, pH264Ctx,
	ldr	r3, [r0, r3]	@ <variable>.CurrSlice.num_ref_idx_l0_active_minus1, <variable>.CurrSlice.num_ref_idx_l0_active_minus1
	add	lr, r0, #19968	@ tmp146, pH264Ctx,
	add	ip, r0, #20224	@ tmp148, pH264Ctx,
	add	r1, r1, #148	@,,
	add	r2, r2, #236	@,,
	add	r5, r5, #172	@ tmp144, tmp144,
	add	lr, lr, #180	@ tmp146, tmp146,
	stmia	sp, {r5, lr}	@ phole stm
	add	lr, ip, #188	@ tmp148, tmp148,
	str	lr, [sp, #8]	@ tmp148,
	bl	ReorderRefPiclist	@
	b	.L341	@
.L345:
	add	r5, r4, #20480	@ tmp162, pH264Ctx,
	movw	r0, #20732	@ tmp163,
	add	r1, r4, #27136	@, pH264Ctx,
	ldr	r3, [r4, r0]	@ <variable>.CurrSlice.num_ref_idx_l1_active_minus1, <variable>.CurrSlice.num_ref_idx_l1_active_minus1
	add	r2, r5, #240	@, tmp162,
	add	lr, r4, #19968	@ tmp165, pH264Ctx,
	add	ip, r4, #20224	@ tmp167, pH264Ctx,
	add	r1, r1, #24	@,,
	mov	r0, r4	@, pH264Ctx
	add	lr, lr, #48	@ tmp165, tmp165,
	add	r5, r5, #60	@ tmp169, tmp162,
	str	lr, [sp, #0]	@ tmp165,
	str	r5, [sp, #8]	@ tmp169,
	add	lr, ip, #56	@ tmp167, tmp167,
	str	lr, [sp, #4]	@ tmp167,
	bl	ReorderRefPiclist	@
	b	.L342	@
	.fnend
	.size	ReorderListX, .-ReorderListX
	.align	2
	.global	IsSTRefFlg
	.type	IsSTRefFlg, %function
IsSTRefFlg:
	.fnstart
.LFB1409:
	@ args = 0, pretend = 0, frame = 0
	@ frame_needed = 1, uses_anonymous_args = 0
	.movsp ip
	mov	ip, sp	@,
	stmfd	sp!, {fp, ip, lr, pc}	@,
	.pad #4
	.save {fp, ip, lr}
	.setfp fp, ip, #-4
	sub	fp, ip, #4	@,,
	push	{lr}
	bl	__gnu_mcount_nc
	ldr	r2, [r0, #0]	@ tmp138,* s
	bic	r1, r2, #-16777216	@ tmp136, tmp138,
	bic	r0, r1, #255	@ tmp136, tmp136,
	cmp	r0, #65536	@ tmp136,
	movne	r0, #0	@,
	moveq	r0, #1	@,
	ldmfd	sp, {fp, sp, pc}	@
	.fnend
	.size	IsSTRefFlg, .-IsSTRefFlg
	.align	2
	.global	IsLTRefFlg
	.type	IsLTRefFlg, %function
IsLTRefFlg:
	.fnstart
.LFB1410:
	@ args = 0, pretend = 0, frame = 0
	@ frame_needed = 1, uses_anonymous_args = 0
	.movsp ip
	mov	ip, sp	@,
	stmfd	sp!, {fp, ip, lr, pc}	@,
	.pad #4
	.save {fp, ip, lr}
	.setfp fp, ip, #-4
	sub	fp, ip, #4	@,,
	push	{lr}
	bl	__gnu_mcount_nc
	ldr	r2, [r0, #0]	@ tmp138,* s
	bic	r1, r2, #-16777216	@ tmp136, tmp138,
	bic	r0, r1, #255	@ tmp136, tmp136,
	cmp	r0, #256	@ tmp136,
	movne	r0, #0	@,
	moveq	r0, #1	@,
	ldmfd	sp, {fp, sp, pc}	@
	.fnend
	.size	IsLTRefFlg, .-IsLTRefFlg
	.align	2
	.global	compare_pic_by_pic_num_desc
	.type	compare_pic_by_pic_num_desc, %function
compare_pic_by_pic_num_desc:
	.fnstart
.LFB1411:
	@ args = 0, pretend = 0, frame = 0
	@ frame_needed = 1, uses_anonymous_args = 0
	.movsp ip
	mov	ip, sp	@,
	stmfd	sp!, {fp, ip, lr, pc}	@,
	.pad #4
	.save {fp, ip, lr}
	.setfp fp, ip, #-4
	sub	fp, ip, #4	@,,
	push	{lr}
	bl	__gnu_mcount_nc
	ldr	ip, [r0, #0]	@ tmp139,* arg1
	ldr	r1, [r1, #0]	@ tmp140,* arg2
	ldr	r2, [ip, #12]	@ D.38131, <variable>.pic_num
	ldr	r3, [r1, #12]	@ D.38134, <variable>.pic_num
	cmp	r2, r3	@ D.38131, D.38134
	movlt	r0, #1	@ D.38137,
	ldmltfd	sp, {fp, sp, pc}	@
	movle	r0, #0	@ D.38137,
	mvngt	r0, #0	@ D.38137,
	ldmfd	sp, {fp, sp, pc}	@
	.fnend
	.size	compare_pic_by_pic_num_desc, .-compare_pic_by_pic_num_desc
	.align	2
	.global	compare_pic_by_lt_pic_num_asc
	.type	compare_pic_by_lt_pic_num_asc, %function
compare_pic_by_lt_pic_num_asc:
	.fnstart
.LFB1412:
	@ args = 0, pretend = 0, frame = 0
	@ frame_needed = 1, uses_anonymous_args = 0
	.movsp ip
	mov	ip, sp	@,
	stmfd	sp!, {fp, ip, lr, pc}	@,
	.pad #4
	.save {fp, ip, lr}
	.setfp fp, ip, #-4
	sub	fp, ip, #4	@,,
	push	{lr}
	bl	__gnu_mcount_nc
	ldr	ip, [r0, #0]	@ tmp139,* arg1
	ldr	r1, [r1, #0]	@ tmp140,* arg2
	ldr	r2, [ip, #8]	@ D.38146, <variable>.long_term_pic_num
	ldr	r3, [r1, #8]	@ D.38149, <variable>.long_term_pic_num
	cmp	r2, r3	@ D.38146, D.38149
	mvnlt	r0, #0	@ D.38152,
	ldmltfd	sp, {fp, sp, pc}	@
	movle	r0, #0	@, D.38152
	movgt	r0, #1	@, D.38152
	ldmfd	sp, {fp, sp, pc}	@
	.fnend
	.size	compare_pic_by_lt_pic_num_asc, .-compare_pic_by_lt_pic_num_asc
	.align	2
	.global	compare_fs_by_frame_num_desc
	.type	compare_fs_by_frame_num_desc, %function
compare_fs_by_frame_num_desc:
	.fnstart
.LFB1413:
	@ args = 0, pretend = 0, frame = 0
	@ frame_needed = 1, uses_anonymous_args = 0
	.movsp ip
	mov	ip, sp	@,
	stmfd	sp!, {fp, ip, lr, pc}	@,
	.pad #4
	.save {fp, ip, lr}
	.setfp fp, ip, #-4
	sub	fp, ip, #4	@,,
	push	{lr}
	bl	__gnu_mcount_nc
	ldr	ip, [r0, #0]	@ tmp139,* arg1
	ldr	r1, [r1, #0]	@ tmp140,* arg2
	ldr	r2, [ip, #548]	@ D.38161, <variable>.frame_num_wrap
	ldr	r3, [r1, #548]	@ D.38164, <variable>.frame_num_wrap
	cmp	r2, r3	@ D.38161, D.38164
	movlt	r0, #1	@ D.38167,
	ldmltfd	sp, {fp, sp, pc}	@
	movle	r0, #0	@ D.38167,
	mvngt	r0, #0	@ D.38167,
	ldmfd	sp, {fp, sp, pc}	@
	.fnend
	.size	compare_fs_by_frame_num_desc, .-compare_fs_by_frame_num_desc
	.align	2
	.global	compare_fs_by_lt_pic_idx_asc
	.type	compare_fs_by_lt_pic_idx_asc, %function
compare_fs_by_lt_pic_idx_asc:
	.fnstart
.LFB1414:
	@ args = 0, pretend = 0, frame = 0
	@ frame_needed = 1, uses_anonymous_args = 0
	.movsp ip
	mov	ip, sp	@,
	stmfd	sp!, {fp, ip, lr, pc}	@,
	.pad #4
	.save {fp, ip, lr}
	.setfp fp, ip, #-4
	sub	fp, ip, #4	@,,
	push	{lr}
	bl	__gnu_mcount_nc
	ldr	ip, [r0, #0]	@ tmp139,* arg1
	ldr	r1, [r1, #0]	@ tmp140,* arg2
	ldr	r2, [ip, #552]	@ D.38176, <variable>.long_term_frame_idx
	ldr	r3, [r1, #552]	@ D.38179, <variable>.long_term_frame_idx
	cmp	r2, r3	@ D.38176, D.38179
	mvncc	r0, #0	@ D.38182,
	ldmccfd	sp, {fp, sp, pc}	@
	movls	r0, #0	@, D.38182
	movhi	r0, #1	@, D.38182
	ldmfd	sp, {fp, sp, pc}	@
	.fnend
	.size	compare_fs_by_lt_pic_idx_asc, .-compare_fs_by_lt_pic_idx_asc
	.align	2
	.global	compare_pic_by_poc_asc
	.type	compare_pic_by_poc_asc, %function
compare_pic_by_poc_asc:
	.fnstart
.LFB1415:
	@ args = 0, pretend = 0, frame = 0
	@ frame_needed = 1, uses_anonymous_args = 0
	.movsp ip
	mov	ip, sp	@,
	stmfd	sp!, {fp, ip, lr, pc}	@,
	.pad #4
	.save {fp, ip, lr}
	.setfp fp, ip, #-4
	sub	fp, ip, #4	@,,
	push	{lr}
	bl	__gnu_mcount_nc
	ldr	ip, [r0, #0]	@ tmp139,* arg1
	ldr	r1, [r1, #0]	@ tmp140,* arg2
	ldr	r2, [ip, #16]	@ D.38191, <variable>.poc
	ldr	r3, [r1, #16]	@ D.38194, <variable>.poc
	cmp	r2, r3	@ D.38191, D.38194
	mvnlt	r0, #0	@ D.38197,
	ldmltfd	sp, {fp, sp, pc}	@
	movle	r0, #0	@, D.38197
	movgt	r0, #1	@, D.38197
	ldmfd	sp, {fp, sp, pc}	@
	.fnend
	.size	compare_pic_by_poc_asc, .-compare_pic_by_poc_asc
	.align	2
	.global	compare_pic_by_poc_desc
	.type	compare_pic_by_poc_desc, %function
compare_pic_by_poc_desc:
	.fnstart
.LFB1416:
	@ args = 0, pretend = 0, frame = 0
	@ frame_needed = 1, uses_anonymous_args = 0
	.movsp ip
	mov	ip, sp	@,
	stmfd	sp!, {fp, ip, lr, pc}	@,
	.pad #4
	.save {fp, ip, lr}
	.setfp fp, ip, #-4
	sub	fp, ip, #4	@,,
	push	{lr}
	bl	__gnu_mcount_nc
	ldr	ip, [r0, #0]	@ tmp139,* arg1
	ldr	r1, [r1, #0]	@ tmp140,* arg2
	ldr	r2, [ip, #16]	@ D.38206, <variable>.poc
	ldr	r3, [r1, #16]	@ D.38209, <variable>.poc
	cmp	r2, r3	@ D.38206, D.38209
	movlt	r0, #1	@ D.38212,
	ldmltfd	sp, {fp, sp, pc}	@
	movle	r0, #0	@ D.38212,
	mvngt	r0, #0	@ D.38212,
	ldmfd	sp, {fp, sp, pc}	@
	.fnend
	.size	compare_pic_by_poc_desc, .-compare_pic_by_poc_desc
	.align	2
	.global	compare_fs_by_poc_asc
	.type	compare_fs_by_poc_asc, %function
compare_fs_by_poc_asc:
	.fnstart
.LFB1417:
	@ args = 0, pretend = 0, frame = 0
	@ frame_needed = 1, uses_anonymous_args = 0
	.movsp ip
	mov	ip, sp	@,
	stmfd	sp!, {fp, ip, lr, pc}	@,
	.pad #4
	.save {fp, ip, lr}
	.setfp fp, ip, #-4
	sub	fp, ip, #4	@,,
	push	{lr}
	bl	__gnu_mcount_nc
	ldr	ip, [r0, #0]	@ tmp139,* arg1
	ldr	r1, [r1, #0]	@ tmp140,* arg2
	ldr	r2, [ip, #556]	@ D.38221, <variable>.poc
	ldr	r3, [r1, #556]	@ D.38224, <variable>.poc
	cmp	r2, r3	@ D.38221, D.38224
	mvnlt	r0, #0	@ D.38227,
	ldmltfd	sp, {fp, sp, pc}	@
	movle	r0, #0	@, D.38227
	movgt	r0, #1	@, D.38227
	ldmfd	sp, {fp, sp, pc}	@
	.fnend
	.size	compare_fs_by_poc_asc, .-compare_fs_by_poc_asc
	.align	2
	.global	compare_fs_by_poc_desc
	.type	compare_fs_by_poc_desc, %function
compare_fs_by_poc_desc:
	.fnstart
.LFB1418:
	@ args = 0, pretend = 0, frame = 0
	@ frame_needed = 1, uses_anonymous_args = 0
	.movsp ip
	mov	ip, sp	@,
	stmfd	sp!, {fp, ip, lr, pc}	@,
	.pad #4
	.save {fp, ip, lr}
	.setfp fp, ip, #-4
	sub	fp, ip, #4	@,,
	push	{lr}
	bl	__gnu_mcount_nc
	ldr	ip, [r0, #0]	@ tmp139,* arg1
	ldr	r1, [r1, #0]	@ tmp140,* arg2
	ldr	r2, [ip, #556]	@ D.38236, <variable>.poc
	ldr	r3, [r1, #556]	@ D.38239, <variable>.poc
	cmp	r2, r3	@ D.38236, D.38239
	movlt	r0, #1	@ D.38242,
	ldmltfd	sp, {fp, sp, pc}	@
	movle	r0, #0	@ D.38242,
	mvngt	r0, #0	@ D.38242,
	ldmfd	sp, {fp, sp, pc}	@
	.fnend
	.size	compare_fs_by_poc_desc, .-compare_fs_by_poc_desc
	.align	2
	.global	GenPiclistfromFrmlist
	.type	GenPiclistfromFrmlist, %function
GenPiclistfromFrmlist:
	.fnstart
.LFB1419:
	@ args = 8, pretend = 0, frame = 16
	@ frame_needed = 1, uses_anonymous_args = 0
	.movsp ip
	mov	ip, sp	@,
	stmfd	sp!, {r4, r5, r6, r7, r8, r9, sl, fp, ip, lr, pc}	@,
	.pad #4
	.save {r4, r5, r6, r7, r8, r9, sl, fp, ip, lr}
	.setfp fp, ip, #-4
	sub	fp, ip, #4	@,,
	.pad #20
	sub	sp, sp, #20	@,,
	push	{lr}
	bl	__gnu_mcount_nc
	cmp	r2, #31	@ list_idx,
	movcc	r4, r2	@ list_idx.1827, list_idx
	movcs	r4, #31	@ list_idx.1827,
	ldr	r2, [fp, #8]	@ long_term, long_term
	movw	ip, #:lower16:IsSTRefFlg	@ tmp218,
	movt	ip, #:upper16:IsSTRefFlg	@ tmp218,
	movw	r5, #:lower16:IsLTRefFlg	@ tmp217,
	cmp	r2, #0	@ long_term,
	movt	r5, #:upper16:IsLTRefFlg	@ tmp217,
	mov	r6, r1	@ fs_list, fs_list
	str	r3, [fp, #-56]	@ list, %sfp
	moveq	r5, ip	@ is_ref, tmp218
	cmp	r0, #1	@ currStrcture,
	beq	.L468	@,
	cmp	r0, #2	@ currStrcture,
	bne	.L397	@,
	mov	r8, #0	@ bot_idx.1805,
	mov	r6, r5	@ is_ref, is_ref
	mov	sl, r8	@ top_idx, bot_idx.1805
	str	r1, [fp, #-48]	@ fs_list, %sfp
.L447:
	cmp	sl, r4	@ top_idx, list_idx.1827
	movcs	r2, #0	@,
	movcc	r2, #1	@,
	str	r2, [fp, #-52]	@, %sfp
	ldr	r1, [fp, #-52]	@, %sfp
	cmp	r8, r4	@ bot_idx.1805, list_idx.1827
	movcs	r3, #0	@, temp.1799
	movcc	r3, #1	@, temp.1799
	orrs	r1, r3, r1	@, temp.1799,
	beq	.L397	@,
	cmp	r3, #0	@ temp.1799,
	beq	.L402	@,
	ldr	ip, [fp, #-48]	@, %sfp
	mvn	r7, r8	@ tmp235, bot_idx.1805
	add	r5, r7, r4	@ tmp234, tmp235, list_idx.1827
	and	r5, r5, #1	@ tmp236, tmp234,
	add	r7, ip, r8, asl #2	@, ivtmp.1786,, bot_idx.1805,
	ldr	r0, [ip, r8, asl #2]	@ temp.1801,
	ldrb	r3, [r0, #1]	@ zero_extendqisi2	@ <variable>.is_used, <variable>.is_used
	tst	r3, #2	@ <variable>.is_used,
	bne	.L469	@,
.L431:
	add	r8, r8, #1	@ bot_idx.1805, bot_idx.1805,
	add	r7, r7, #4	@ ivtmp.1786, ivtmp.1786,
	cmp	r8, r4	@ bot_idx.1805, list_idx.1827
	bcs	.L402	@,
	cmp	r5, #0	@ tmp236,
	beq	.L401	@,
	ldr	r0, [r7, #0]	@ temp.1801,* ivtmp.1786
	ldrb	ip, [r0, #1]	@ zero_extendqisi2	@ <variable>.is_used, <variable>.is_used
	tst	ip, #2	@ <variable>.is_used,
	bne	.L470	@,
.L433:
	add	r8, r8, #1	@ bot_idx.1805, bot_idx.1805,
	add	r7, r7, #4	@ ivtmp.1786, ivtmp.1786,
	cmp	r8, r4	@ bot_idx.1805, list_idx.1827
	bcc	.L401	@,
	b	.L402	@
.L399:
	add	r7, r7, #4	@ ivtmp.1786, ivtmp.1786,
	add	r8, r8, #1	@ bot_idx.1805, bot_idx.1805,
	ldr	r0, [r7, #0]	@ temp.1801,* ivtmp.1786
	mov	r9, r8	@ tmp237, bot_idx.1805
	mov	r5, r7	@ tmp238, ivtmp.1786
	ldrb	ip, [r0, #1]	@ zero_extendqisi2	@ <variable>.is_used, <variable>.is_used
	tst	ip, #2	@ <variable>.is_used,
	bne	.L471	@,
.L436:
	add	r8, r9, #1	@ bot_idx.1805, tmp237,
	add	r7, r5, #4	@ ivtmp.1786, tmp238,
	cmp	r8, r4	@ bot_idx.1805, list_idx.1827
	bcs	.L402	@,
.L401:
	ldr	r0, [r7, #0]	@ temp.1801,* ivtmp.1786
	ldrb	r2, [r0, #1]	@ zero_extendqisi2	@ <variable>.is_used, <variable>.is_used
	tst	r2, #2	@ <variable>.is_used,
	beq	.L399	@,
	add	r0, r0, #504	@, temp.1801,
	blx	r6	@ is_ref
	cmp	r0, #0	@,
	beq	.L399	@,
.L455:
	ldr	r0, [fp, #4]	@, list_size
	add	r8, r8, #1	@ bot_idx.1805, bot_idx.1805,
	ldr	ip, [fp, #-56]	@, %sfp
	ldr	lr, [r7, #0]	@ tmp195,* ivtmp.1786
	ldr	r3, [r0, #0]	@ tmp194,
	add	r2, lr, #504	@ tmp196, tmp195,
	str	r2, [ip, r3, asl #2]	@ tmp196,
	ldr	lr, [fp, #4]	@, list_size
	ldr	r1, [lr, #0]	@ tmp197,
	add	r0, r1, #1	@ tmp198, tmp197,
	str	r0, [lr, #0]	@ tmp198,
.L402:
	ldr	r1, [fp, #-52]	@, %sfp
	cmp	r1, #0	@,
	beq	.L447	@,
	ldr	r3, [fp, #-48]	@, %sfp
	mvn	r5, sl	@ tmp230, top_idx
	add	r7, r5, r4	@ tmp229, tmp230, list_idx.1827
	and	r7, r7, #1	@ tmp231, tmp229,
	add	r5, r3, sl, asl #2	@, ivtmp.1781,, top_idx,
	ldr	r0, [r3, sl, asl #2]	@ temp.1815,
	ldrb	r2, [r0, #1]	@ zero_extendqisi2	@ <variable>.is_used, <variable>.is_used
	tst	r2, #1	@ <variable>.is_used,
	bne	.L472	@,
.L424:
	add	sl, sl, #1	@ top_idx, top_idx,
	add	r5, r5, #4	@ ivtmp.1781, ivtmp.1781,
	cmp	sl, r4	@ top_idx, list_idx.1827
	bcs	.L447	@,
	cmp	r7, #0	@ tmp231,
	beq	.L404	@,
	ldr	r0, [r5, #0]	@ temp.1815,* ivtmp.1781
	ldrb	r3, [r0, #1]	@ zero_extendqisi2	@ <variable>.is_used, <variable>.is_used
	tst	r3, #1	@ <variable>.is_used,
	bne	.L473	@,
.L426:
	add	sl, sl, #1	@ top_idx, top_idx,
	add	r5, r5, #4	@ ivtmp.1781, ivtmp.1781,
	cmp	sl, r4	@ top_idx, list_idx.1827
	bcc	.L404	@,
	b	.L447	@
.L403:
	add	r5, r5, #4	@ ivtmp.1781, ivtmp.1781,
	add	sl, sl, #1	@ top_idx, top_idx,
	ldr	r0, [r5, #0]	@ temp.1815,* ivtmp.1781
	mov	r9, sl	@ tmp232, top_idx
	mov	r7, r5	@ tmp233, ivtmp.1781
	ldrb	ip, [r0, #1]	@ zero_extendqisi2	@ <variable>.is_used, <variable>.is_used
	tst	ip, #1	@ <variable>.is_used,
	bne	.L474	@,
.L429:
	add	sl, r9, #1	@ top_idx, tmp232,
	add	r5, r7, #4	@ ivtmp.1781, tmp233,
	cmp	sl, r4	@ top_idx, list_idx.1827
	bcs	.L447	@,
.L404:
	ldr	r0, [r5, #0]	@ temp.1815,* ivtmp.1781
	ldrb	r1, [r0, #1]	@ zero_extendqisi2	@ <variable>.is_used, <variable>.is_used
	tst	r1, #1	@ <variable>.is_used,
	beq	.L403	@,
	add	r0, r0, #468	@, temp.1815,
	blx	r6	@ is_ref
	cmp	r0, #0	@,
	beq	.L403	@,
.L454:
	ldr	r0, [fp, #4]	@, list_size
	add	sl, sl, #1	@ top_idx, top_idx,
	ldr	r1, [fp, #-56]	@, %sfp
	ldr	lr, [r5, #0]	@ tmp204,* ivtmp.1781
	ldr	r3, [r0, #0]	@ tmp203,
	add	r2, lr, #468	@ tmp205, tmp204,
	str	r2, [r1, r3, asl #2]	@ tmp205,
	ldr	lr, [fp, #4]	@, list_size
	ldr	ip, [lr, #0]	@ tmp206,
	add	r0, ip, #1	@ tmp207, tmp206,
	str	r0, [lr, #0]	@ tmp207,
	b	.L447	@
.L397:
	mov	r0, #0	@,
	sub	sp, fp, #40
	ldmfd	sp, {r4, r5, r6, r7, r8, r9, sl, fp, sp, pc}
.L474:
	add	r0, r0, #468	@, temp.1815,
	blx	r6	@ is_ref
	cmp	r0, #0	@,
	beq	.L429	@,
	b	.L454	@
.L471:
	add	r0, r0, #504	@, temp.1801,
	blx	r6	@ is_ref
	cmp	r0, #0	@,
	beq	.L436	@,
	b	.L455	@
.L469:
	add	r0, r0, #504	@, temp.1801,
	blx	r6	@ is_ref
	cmp	r0, #0	@,
	beq	.L431	@,
	b	.L455	@
.L472:
	add	r0, r0, #468	@, temp.1815,
	blx	r6	@ is_ref
	cmp	r0, #0	@,
	beq	.L424	@,
	b	.L454	@
.L473:
	add	r0, r0, #468	@, temp.1815,
	blx	r6	@ is_ref
	cmp	r0, #0	@,
	beq	.L426	@,
	b	.L454	@
.L470:
	add	r0, r0, #504	@, temp.1801,
	blx	r6	@ is_ref
	cmp	r0, #0	@,
	beq	.L433	@,
	b	.L455	@
.L468:
	mov	r8, #0	@ bot_idx,
	mov	r6, r5	@ is_ref, is_ref
	mov	sl, r8	@ top_idx.1810, bot_idx
	str	r1, [fp, #-48]	@ fs_list, %sfp
.L442:
	cmp	r8, r4	@ bot_idx, list_idx.1827
	movcs	r1, #0	@,
	movcc	r1, #1	@,
	cmp	sl, r4	@ top_idx.1810, list_idx.1827
	movcs	r3, #0	@, D.38311
	movcc	r3, #1	@, D.38311
	str	r1, [fp, #-52]	@, %sfp
	orrs	r1, r1, r3	@,, D.38311
	beq	.L397	@,
	cmp	r3, #0	@ D.38311,
	beq	.L394	@,
	ldr	r3, [fp, #-48]	@, %sfp
	mvn	r7, sl	@ tmp225, top_idx.1810
	add	r5, r7, r4	@ tmp224, tmp225, list_idx.1827
	and	r5, r5, #1	@ tmp226, tmp224,
	add	r7, r3, sl, asl #2	@, ivtmp.1776,, top_idx.1810,
	ldr	r0, [r3, sl, asl #2]	@ D.38284,
	ldrb	ip, [r0, #1]	@ zero_extendqisi2	@ <variable>.is_used, <variable>.is_used
	tst	ip, #1	@ <variable>.is_used,
	bne	.L475	@,
.L417:
	add	sl, sl, #1	@ top_idx.1810, top_idx.1810,
	add	r7, r7, #4	@ ivtmp.1776, ivtmp.1776,
	cmp	sl, r4	@ top_idx.1810, list_idx.1827
	bcs	.L394	@,
	cmp	r5, #0	@ tmp226,
	beq	.L393	@,
	ldr	r0, [r7, #0]	@ D.38284,* ivtmp.1776
	ldrb	r2, [r0, #1]	@ zero_extendqisi2	@ <variable>.is_used, <variable>.is_used
	tst	r2, #1	@ <variable>.is_used,
	bne	.L476	@,
.L419:
	add	sl, sl, #1	@ top_idx.1810, top_idx.1810,
	add	r7, r7, #4	@ ivtmp.1776, ivtmp.1776,
	cmp	sl, r4	@ top_idx.1810, list_idx.1827
	bcc	.L393	@,
	b	.L394	@
.L391:
	add	r7, r7, #4	@ ivtmp.1776, ivtmp.1776,
	add	sl, sl, #1	@ top_idx.1810, top_idx.1810,
	ldr	r0, [r7, #0]	@ D.38284,* ivtmp.1776
	mov	r9, sl	@ tmp228, top_idx.1810
	mov	r5, r7	@ tmp227, ivtmp.1776
	ldrb	r2, [r0, #1]	@ zero_extendqisi2	@ <variable>.is_used, <variable>.is_used
	tst	r2, #1	@ <variable>.is_used,
	bne	.L477	@,
.L422:
	add	sl, r9, #1	@ top_idx.1810, tmp228,
	add	r7, r5, #4	@ ivtmp.1776, tmp227,
	cmp	sl, r4	@ top_idx.1810, list_idx.1827
	bcs	.L394	@,
.L393:
	ldr	r0, [r7, #0]	@ D.38284,* ivtmp.1776
	ldrb	r3, [r0, #1]	@ zero_extendqisi2	@ <variable>.is_used, <variable>.is_used
	tst	r3, #1	@ <variable>.is_used,
	beq	.L391	@,
	add	r0, r0, #468	@, D.38284,
	blx	r6	@ is_ref
	cmp	r0, #0	@,
	beq	.L391	@,
.L453:
	ldr	r1, [fp, #4]	@, list_size
	add	sl, sl, #1	@ top_idx.1810, top_idx.1810,
	ldr	ip, [fp, #-56]	@, %sfp
	ldr	r0, [r7, #0]	@ tmp170,* ivtmp.1776
	ldr	r3, [r1, #0]	@ tmp169,
	add	r2, r0, #468	@ tmp171, tmp170,
	str	r2, [ip, r3, asl #2]	@ tmp171,
	ldr	r0, [fp, #4]	@, list_size
	ldr	lr, [r0, #0]	@ tmp172,
	add	r1, lr, #1	@ tmp173, tmp172,
	str	r1, [r0, #0]	@ tmp173,
.L394:
	ldr	ip, [fp, #-52]	@, %sfp
	cmp	ip, #0	@,
	beq	.L442	@,
	ldr	r1, [fp, #-48]	@, %sfp
	mvn	r5, r8	@ tmp220, bot_idx
	add	r7, r5, r4	@ tmp219, tmp220, list_idx.1827
	and	r7, r7, #1	@ tmp221, tmp219,
	add	r5, r1, r8, asl #2	@, ivtmp.1771,, bot_idx,
	ldr	r0, [r1, r8, asl #2]	@ D.38301,
	ldrb	r3, [r0, #1]	@ zero_extendqisi2	@ <variable>.is_used, <variable>.is_used
	tst	r3, #2	@ <variable>.is_used,
	bne	.L478	@,
.L410:
	add	r8, r8, #1	@ bot_idx, bot_idx,
	add	r5, r5, #4	@ ivtmp.1771, ivtmp.1771,
	cmp	r8, r4	@ bot_idx, list_idx.1827
	bcs	.L442	@,
	cmp	r7, #0	@ tmp221,
	beq	.L396	@,
	ldr	r0, [r5, #0]	@ D.38301,* ivtmp.1771
	ldrb	r1, [r0, #1]	@ zero_extendqisi2	@ <variable>.is_used, <variable>.is_used
	tst	r1, #2	@ <variable>.is_used,
	bne	.L479	@,
.L412:
	add	r8, r8, #1	@ bot_idx, bot_idx,
	add	r5, r5, #4	@ ivtmp.1771, ivtmp.1771,
	cmp	r8, r4	@ bot_idx, list_idx.1827
	bcc	.L396	@,
	b	.L442	@
.L395:
	add	r5, r5, #4	@ ivtmp.1771, ivtmp.1771,
	add	r8, r8, #1	@ bot_idx, bot_idx,
	ldr	r0, [r5, #0]	@ D.38301,* ivtmp.1771
	mov	r9, r8	@ tmp222, bot_idx
	mov	r7, r5	@ tmp223, ivtmp.1771
	ldrb	r2, [r0, #1]	@ zero_extendqisi2	@ <variable>.is_used, <variable>.is_used
	tst	r2, #2	@ <variable>.is_used,
	bne	.L480	@,
.L415:
	add	r8, r9, #1	@ bot_idx, tmp222,
	add	r5, r7, #4	@ ivtmp.1771, tmp223,
	cmp	r8, r4	@ bot_idx, list_idx.1827
	bcs	.L442	@,
.L396:
	ldr	r0, [r5, #0]	@ D.38301,* ivtmp.1771
	ldrb	ip, [r0, #1]	@ zero_extendqisi2	@ <variable>.is_used, <variable>.is_used
	tst	ip, #2	@ <variable>.is_used,
	beq	.L395	@,
	add	r0, r0, #504	@, D.38301,
	blx	r6	@ is_ref
	cmp	r0, #0	@,
	beq	.L395	@,
.L452:
	ldr	r0, [fp, #4]	@, list_size
	add	r8, r8, #1	@ bot_idx, bot_idx,
	ldr	r1, [fp, #-56]	@, %sfp
	ldr	lr, [r5, #0]	@ tmp179,* ivtmp.1771
	ldr	r3, [r0, #0]	@ tmp178,
	add	ip, lr, #504	@ tmp180, tmp179,
	str	ip, [r1, r3, asl #2]	@ tmp180,
	ldr	lr, [fp, #4]	@, list_size
	ldr	r2, [lr, #0]	@ tmp181,
	add	r0, r2, #1	@ tmp182, tmp181,
	str	r0, [lr, #0]	@ tmp182,
	b	.L442	@
.L480:
	add	r0, r0, #504	@, D.38301,
	blx	r6	@ is_ref
	cmp	r0, #0	@,
	beq	.L415	@,
	b	.L452	@
.L477:
	add	r0, r0, #468	@, D.38284,
	blx	r6	@ is_ref
	cmp	r0, #0	@,
	beq	.L422	@,
	b	.L453	@
.L478:
	add	r0, r0, #504	@, D.38301,
	blx	r6	@ is_ref
	cmp	r0, #0	@,
	beq	.L410	@,
	b	.L452	@
.L475:
	add	r0, r0, #468	@, D.38284,
	blx	r6	@ is_ref
	cmp	r0, #0	@,
	beq	.L417	@,
	b	.L453	@
.L476:
	add	r0, r0, #468	@, D.38284,
	blx	r6	@ is_ref
	cmp	r0, #0	@,
	beq	.L419	@,
	b	.L453	@
.L479:
	add	r0, r0, #504	@, D.38301,
	blx	r6	@ is_ref
	cmp	r0, #0	@,
	beq	.L412	@,
	b	.L452	@
	.fnend
	.size	GenPiclistfromFrmlist, .-GenPiclistfromFrmlist
	.align	2
	.global	FindNearestPOCPicId
	.type	FindNearestPOCPicId, %function
FindNearestPOCPicId:
	.fnstart
.LFB1422:
	@ args = 0, pretend = 0, frame = 0
	@ frame_needed = 1, uses_anonymous_args = 0
	.movsp ip
	mov	ip, sp	@,
	stmfd	sp!, {r4, r5, r6, r7, fp, ip, lr, pc}	@,
	.pad #4
	.save {r4, r5, r6, r7, fp, ip, lr}
	.setfp fp, ip, #-4
	sub	fp, ip, #4	@,,
	push	{lr}
	bl	__gnu_mcount_nc
	movw	r3, #26620	@ tmp144,
	ldr	r6, [r0, r3]	@ D.38591, <variable>.DPB.used_size
	mov	r1, r0	@ pH264Ctx, pH264Ctx
	cmp	r6, #0	@ D.38591,
	mvneq	r0, #0	@ nearest_pic_id,
	ldmeqfd	sp, {r4, r5, r6, r7, fp, sp, pc}	@
	movw	r4, #26424	@ tmp147,
	cmp	r6, #1	@ D.38591,
	ldr	ip, [r1, r4]	@ <variable>.DPB.fs, <variable>.DPB.fs
	movw	r2, #51436	@ tmp145,
	ldr	r4, [r1, r2]	@ curr_poc, <variable>.CurrPic.thispoc
	movls	r0, #0	@ nearest_pic_id,
	ldr	r2, [ip, #556]	@ nearest_poc, <variable>.poc
	ldmlsfd	sp, {r4, r5, r6, r7, fp, sp, pc}	@
	add	r0, r1, #26368	@ tmp151, pH264Ctx,
	sub	r6, r6, #1	@ tmp149, D.38591,
	add	r5, r0, #60	@ tmp151, tmp151,
	rsb	r2, r2, r4	@ tmp148, nearest_poc, curr_poc
	mov	r6, r6, asl #2	@ D.45108, tmp149,
	cmp	r2, #0	@ tmp148,
	ldr	ip, [r5, #0]	@ D.38598, <variable>.DPB.fs
	sub	r3, r6, #4	@ tmp158, D.45108,
	ubfx	r5, r3, #2, #1	@ tmp159, tmp158,,
	rsblt	r2, r2, #0	@ nearest_poc_diff, tmp148
	mov	r0, #0	@ nearest_pic_id,
	ldr	r3, [ip, #556]	@ <variable>.poc, <variable>.poc
	rsb	r3, r3, r4	@ tmp153, <variable>.poc, curr_poc
	cmp	r3, #0	@ tmp153,
	rsblt	r3, r3, #0	@ new_poc_diff, tmp153
	cmp	r3, r2	@ new_poc_diff, nearest_poc_diff
	blt	.L499	@,
	mov	r3, #4	@ ivtmp.1862,
	cmp	r3, r6	@ ivtmp.1862, D.45108
	ldmeqfd	sp, {r4, r5, r6, r7, fp, sp, pc}	@
.L500:
	cmp	r5, #0	@ tmp159,
	beq	.L486	@,
	add	ip, r1, r3	@ tmp177, pH264Ctx, ivtmp.1862
	add	r3, r3, #4	@ ivtmp.1862, ivtmp.1862,
	add	r5, ip, #26368	@ tmp179, tmp177,
	add	ip, r5, #60	@ tmp179, tmp179,
	ldr	r5, [ip, #0]	@ D.38598, <variable>.DPB.fs
	ldr	ip, [r5, #556]	@ <variable>.poc, <variable>.poc
	rsb	ip, ip, r4	@ tmp182, <variable>.poc, curr_poc
	cmp	ip, #0	@ tmp182,
	rsblt	ip, ip, #0	@ new_poc_diff, tmp182
	cmp	ip, r2	@ new_poc_diff, nearest_poc_diff
	ldrlt	r0, [r5, #164]	@ nearest_pic_id, <variable>.fs_image.image_id
	movlt	r2, ip	@ nearest_poc_diff, new_poc_diff
	cmp	r3, r6	@ ivtmp.1862, D.45108
	ldmeqfd	sp, {r4, r5, r6, r7, fp, sp, pc}	@
.L486:
	add	r5, r1, r3	@ tmp162, pH264Ctx, ivtmp.1862
	add	ip, r3, #4	@ tmp160, ivtmp.1862,
	add	r3, r5, #26368	@ tmp163, tmp162,
	add	r7, r1, ip	@ tmp170, pH264Ctx, tmp160
	add	r7, r7, #26368	@ tmp171, tmp170,
	ldr	r5, [r3, #60]	@ D.38598, <variable>.DPB.fs
	ldr	r3, [r5, #556]	@ <variable>.poc, <variable>.poc
	rsb	r3, r3, r4	@ tmp167, <variable>.poc, curr_poc
	cmp	r3, #0	@ tmp167,
	rsblt	r3, r3, #0	@ new_poc_diff, tmp167
	cmp	r3, r2	@ new_poc_diff, nearest_poc_diff
	ldrlt	r0, [r5, #164]	@ nearest_pic_id, <variable>.fs_image.image_id
	movlt	r2, r3	@ nearest_poc_diff, new_poc_diff
	ldr	r5, [r7, #60]	@ D.38598, <variable>.DPB.fs
	ldr	r3, [r5, #556]	@ <variable>.poc, <variable>.poc
	rsb	r3, r3, r4	@ tmp175, <variable>.poc, curr_poc
	cmp	r3, #0	@ tmp175,
	rsblt	r3, r3, #0	@ new_poc_diff, tmp175
	cmp	r3, r2	@ new_poc_diff, nearest_poc_diff
	ldrlt	r0, [r5, #164]	@ nearest_pic_id, <variable>.fs_image.image_id
	movlt	r2, r3	@ nearest_poc_diff, new_poc_diff
.L494:
	add	r3, ip, #4	@ ivtmp.1862, tmp160,
	cmp	r3, r6	@ ivtmp.1862, D.45108
	bne	.L486	@,
	ldmfd	sp, {r4, r5, r6, r7, fp, sp, pc}	@
.L499:
	mov	r2, r3	@ nearest_poc_diff, new_poc_diff
	mov	r3, #4	@ ivtmp.1862,
	cmp	r3, r6	@ ivtmp.1862, D.45108
	ldr	r0, [ip, #164]	@ nearest_pic_id, <variable>.fs_image.image_id
	bne	.L500	@,
	ldmfd	sp, {r4, r5, r6, r7, fp, sp, pc}	@
	.fnend
	.size	FindNearestPOCPicId, .-FindNearestPOCPicId
	.align	2
	.global	FindMinRefIdx
	.type	FindMinRefIdx, %function
FindMinRefIdx:
	.fnstart
.LFB1423:
	@ args = 0, pretend = 0, frame = 8
	@ frame_needed = 1, uses_anonymous_args = 0
	.movsp ip
	mov	ip, sp	@,
	stmfd	sp!, {r4, r5, r6, r7, r8, r9, sl, fp, ip, lr, pc}	@,
	.pad #4
	.save {r4, r5, r6, r7, r8, r9, sl, fp, ip, lr}
	.setfp fp, ip, #-4
	sub	fp, ip, #4	@,,
	.pad #12
	sub	sp, sp, #12	@,,
	push	{lr}
	bl	__gnu_mcount_nc
	mov	r9, r0	@ pH264Ctx, pH264Ctx
	movw	r0, #20672	@ tmp154,
	ldrb	r3, [r9, r0]	@ zero_extendqisi2	@ <variable>.CurrSlice.slice_type, <variable>.CurrSlice.slice_type
	cmp	r3, #2	@ <variable>.CurrSlice.slice_type,
	beq	.L514	@,
	movw	r1, #50979	@ tmp156,
	ldrb	r0, [r9, r1]	@ zero_extendqisi2	@ <variable>.CurrPic.structure, <variable>.CurrPic.structure
	cmp	r0, #0	@ <variable>.CurrPic.structure,
	bne	.L543	@,
	movw	r1, #20716	@ tmp160,
	add	r6, r9, #26880	@ ivtmp.1913, pH264Ctx,
	ldr	r3, [r9, r1]	@, <variable>.CurrSlice.listXsize
	mov	sl, r1	@ tmp179, tmp160
	mov	r2, r6	@ tmp180, ivtmp.1913
	add	r6, r6, #20	@ ivtmp.1913, ivtmp.1913,
	add	r8, r2, #148	@ ivtmp.1905, tmp180,
	str	r3, [fp, #-48]	@, %sfp
.L505:
	ldr	r1, [fp, #-48]	@, %sfp
	cmp	r1, #0	@,
	beq	.L509	@,
	ldr	r2, [r8, #0]	@ tmp206, <variable>.pListX
	mov	r1, #32	@ minrefidx,
	ldr	r7, [r9, sl]	@ temp.1931, <variable>.CurrSlice.listXsize
	ldr	r3, [r2, #4]	@ <variable>.frame_store, <variable>.frame_store
	sub	ip, r7, #1	@ tmp189, temp.1931,
	and	ip, ip, #1	@ tmp191, tmp189,
	ldr	r2, [r3, #584]	@ <variable>.apc_idc, <variable>.apc_idc
	cmp	r2, r0	@ <variable>.apc_idc, i
	beq	.L544	@,
.L517:
	mov	r2, #1	@ j,
	cmp	r7, r2	@ temp.1931, j
	add	r3, r8, #4	@ ivtmp.1905, ivtmp.1905,
	bls	.L537	@,
	cmp	ip, #0	@ tmp191,
	beq	.L507	@,
	ldr	ip, [r8, #4]	@ tmp227, <variable>.pListX
	ldr	ip, [ip, #4]	@ <variable>.frame_store, <variable>.frame_store
	ldr	ip, [ip, #584]	@ <variable>.apc_idc, <variable>.apc_idc
	cmp	ip, r0	@ <variable>.apc_idc, i
	beq	.L545	@,
.L519:
	add	r2, r2, #1	@ j, j,
	add	r3, r3, #4	@ ivtmp.1905, ivtmp.1905,
	cmp	r7, r2	@ temp.1931, j
	bhi	.L507	@,
	b	.L537	@
.L506:
	ldr	r3, [r3, #4]	@ tmp201, <variable>.pListX
	ldr	r2, [r3, #4]	@ <variable>.frame_store, <variable>.frame_store
	ldr	r3, [r2, #584]	@ <variable>.apc_idc, <variable>.apc_idc
	cmp	r3, r0	@ <variable>.apc_idc, i
	beq	.L546	@,
.L522:
	add	r2, ip, #1	@ j, tmp192,
	add	r3, r4, #4	@ ivtmp.1905, tmp193,
	cmp	r7, r2	@ temp.1931, j
	bls	.L537	@,
.L507:
	ldr	r5, [r3, #0]	@ tmp162, <variable>.pListX
	add	ip, r2, #1	@ tmp192, j,
	add	r4, r3, #4	@ tmp193, ivtmp.1905,
	ldr	r5, [r5, #4]	@ <variable>.frame_store, <variable>.frame_store
	ldr	r5, [r5, #584]	@ <variable>.apc_idc, <variable>.apc_idc
	cmp	r5, r0	@ <variable>.apc_idc, i
	bne	.L506	@,
	ldr	r3, [r3, #4]	@ tmp201, <variable>.pListX
	cmp	r1, r2	@ minrefidx, j
	movcs	r1, r2	@ minrefidx, j
	str	r1, [r6, #0]	@ minrefidx, <variable>.APC.RefIdx
	str	r1, [r6, #4]	@ minrefidx, <variable>.APC.RefIdx
	ldr	r2, [r3, #4]	@ <variable>.frame_store, <variable>.frame_store
	ldr	r3, [r2, #584]	@ <variable>.apc_idc, <variable>.apc_idc
	cmp	r3, r0	@ <variable>.apc_idc, i
	bne	.L522	@,
.L546:
	add	r2, ip, #1	@ j, tmp192,
	cmp	r1, ip	@ minrefidx, tmp192
	movcs	r1, ip	@ minrefidx, tmp192
	cmp	r7, r2	@ temp.1931, j
	str	r1, [r6, #0]	@ minrefidx, <variable>.APC.RefIdx
	str	r1, [r6, #4]	@ minrefidx, <variable>.APC.RefIdx
	add	r3, r4, #4	@ ivtmp.1905, tmp193,
	bhi	.L507	@,
.L537:
	cmp	r1, #31	@ minrefidx,
	bls	.L508	@,
.L509:
	mov	ip, #0	@,
	str	ip, [r6, #0]	@, <variable>.APC.RefIdx
	str	ip, [r6, #4]	@, <variable>.APC.RefIdx
.L508:
	add	r0, r0, #1	@ i, i,
	add	r6, r6, #8	@ ivtmp.1913, ivtmp.1913,
	cmp	r0, #16	@ i,
	bne	.L505	@,
.L514:
	sub	sp, fp, #40
	ldmfd	sp, {r4, r5, r6, r7, r8, r9, sl, fp, sp, pc}
.L543:
	add	r8, r9, #26880	@ ivtmp.1927, pH264Ctx,
	movw	ip, #20716	@ tmp158,
	ldr	r2, [r9, ip]	@, <variable>.CurrSlice.listXsize
	mov	r0, #0	@ i.1938,
	mov	sl, r8	@ tmp185, ivtmp.1927
	add	r8, r8, #20	@ ivtmp.1927, ivtmp.1927,
	add	sl, sl, #148	@ ivtmp.1919, tmp185,
	str	r2, [fp, #-48]	@, %sfp
.L504:
	ldr	r1, [fp, #-48]	@, %sfp
	cmp	r1, #0	@,
	beq	.L513	@,
	ldr	r3, [sl, #0]	@ temp.1934, <variable>.pListX
	movw	r2, #20716	@,
	ldr	r7, [r9, r2]	@ temp.1932, <variable>.CurrSlice.listXsize
	mov	r6, #32	@ minrefidx.1930,
	ldr	ip, [r3, #4]	@ <variable>.frame_store, <variable>.frame_store
	sub	r1, r7, #1	@ tmp194, temp.1932,
	ldrb	r2, [r3, #0]	@ zero_extendqisi2	@ <variable>.structure, <variable>.structure
	and	r1, r1, #1	@ tmp196, tmp194,
	ldr	r3, [ip, #584]	@ <variable>.apc_idc, <variable>.apc_idc
	mov	r3, r3, asl #1	@ tmp225, <variable>.apc_idc,
	cmp	r2, #2	@ <variable>.structure,
	orreq	r3, r3, #1	@,, tmp226, tmp225
	cmp	r3, r0	@ tmp226, i.1938
	beq	.L547	@,
.L524:
	mov	r2, #1	@ j.1937,
	cmp	r7, r2	@ temp.1932, j.1937
	add	r3, sl, #4	@ ivtmp.1919, ivtmp.1919,
	bls	.L538	@,
	cmp	r1, #0	@ tmp196,
	beq	.L511	@,
	ldr	r1, [sl, #4]	@ temp.1934, <variable>.pListX
	ldr	ip, [r1, #4]	@ <variable>.frame_store, <variable>.frame_store
	ldrb	r4, [r1, #0]	@ zero_extendqisi2	@ <variable>.structure, <variable>.structure
	ldr	r1, [ip, #584]	@ <variable>.apc_idc, <variable>.apc_idc
	mov	r1, r1, asl r2	@ tmp235, <variable>.apc_idc,
	cmp	r4, #2	@ <variable>.structure,
	orreq	r1, r1, #1	@,, tmp236, tmp235
	cmp	r1, r0	@ tmp236, i.1938
	beq	.L548	@,
.L526:
	add	r2, r2, #1	@ j.1937, j.1937,
	add	r3, r3, #4	@ ivtmp.1919, ivtmp.1919,
	cmp	r7, r2	@ temp.1932, j.1937
	bhi	.L511	@,
	b	.L538	@
.L510:
	ldr	r3, [r3, #4]	@ temp.1934, <variable>.pListX
	ldr	r2, [r3, #4]	@ <variable>.frame_store, <variable>.frame_store
	ldrb	r1, [r3, #0]	@ zero_extendqisi2	@ <variable>.structure, <variable>.structure
	ldr	r3, [r2, #584]	@ <variable>.apc_idc, <variable>.apc_idc
	mov	r3, r3, asl #1	@ tmp216, <variable>.apc_idc,
	cmp	r1, #2	@ <variable>.structure,
	orreq	r3, r3, #1	@,, tmp217, tmp216
	cmp	r3, r0	@ tmp217, i.1938
	beq	.L549	@,
	add	r2, ip, #1	@ j.1937, tmp197,
	add	r3, r4, #4	@ ivtmp.1919, tmp198,
	cmp	r7, r2	@ temp.1932, j.1937
	bls	.L538	@,
.L511:
	ldr	r1, [r3, #0]	@ temp.1934, <variable>.pListX
	add	ip, r2, #1	@ tmp197, j.1937,
	add	r4, r3, #4	@ tmp198, ivtmp.1919,
	ldr	r5, [r1, #4]	@ <variable>.frame_store, <variable>.frame_store
	ldrb	r1, [r1, #0]	@ zero_extendqisi2	@ <variable>.structure, <variable>.structure
	ldr	r5, [r5, #584]	@ <variable>.apc_idc, <variable>.apc_idc
	mov	r5, r5, asl #1	@ tmp173, <variable>.apc_idc,
	cmp	r1, #2	@ <variable>.structure,
	movne	r1, r5	@, tmp175, tmp173
	orreq	r1, r5, #1	@,, tmp175, tmp173
	cmp	r1, r0	@ tmp175, i.1938
	bne	.L510	@,
	cmp	r6, r2	@ minrefidx.1930, j.1937
	movcs	r6, r2	@ minrefidx.1930, j.1937
	str	r6, [r8, #0]	@ minrefidx.1930, <variable>.APC.RefIdx
	b	.L510	@
.L549:
	add	r2, ip, #1	@ j.1937, tmp197,
	cmp	r6, ip	@ minrefidx.1930, tmp197
	movcs	r6, ip	@ minrefidx.1930, tmp197
	cmp	r7, r2	@ temp.1932, j.1937
	str	r6, [r8, #0]	@ minrefidx.1930, <variable>.APC.RefIdx
	add	r3, r4, #4	@ ivtmp.1919, tmp198,
	bhi	.L511	@,
.L538:
	cmp	r6, #31	@ minrefidx.1930,
	bls	.L512	@,
.L513:
	mov	ip, #0	@,
	str	ip, [r8, #0]	@, <variable>.APC.RefIdx
.L512:
	add	r0, r0, #1	@ i.1938, i.1938,
	add	r8, r8, #4	@ ivtmp.1927, ivtmp.1927,
	cmp	r0, #32	@ i.1938,
	bne	.L504	@,
	b	.L514	@
.L547:
	mov	r6, #0	@ minrefidx.1930,
	str	r6, [r8, #0]	@ minrefidx.1930, <variable>.APC.RefIdx
	b	.L524	@
.L548:
	cmp	r6, r2	@ minrefidx.1930, j.1937
	movcs	r6, r2	@ minrefidx.1930, j.1937
	str	r6, [r8, #0]	@ minrefidx.1930, <variable>.APC.RefIdx
	b	.L526	@
.L544:
	mov	r1, #0	@ minrefidx,
	str	r1, [r6, #0]	@ minrefidx, <variable>.APC.RefIdx
	str	r1, [r6, #4]	@ minrefidx, <variable>.APC.RefIdx
	b	.L517	@
.L545:
	cmp	r1, r2	@ minrefidx, j
	movcs	r1, r2	@ minrefidx, j
	str	r1, [r6, #0]	@ minrefidx, <variable>.APC.RefIdx
	str	r1, [r6, #4]	@ minrefidx, <variable>.APC.RefIdx
	b	.L519	@
	.fnend
	.size	FindMinRefIdx, .-FindMinRefIdx
	.align	2
	.global	NoPicOut
	.type	NoPicOut, %function
NoPicOut:
	.fnstart
.LFB1425:
	@ args = 0, pretend = 0, frame = 0
	@ frame_needed = 1, uses_anonymous_args = 0
	.movsp ip
	mov	ip, sp	@,
	stmfd	sp!, {r4, r5, fp, ip, lr, pc}	@,
	.pad #4
	.save {r4, r5, fp, ip, lr}
	.setfp fp, ip, #-4
	sub	fp, ip, #4	@,,
	push	{lr}
	bl	__gnu_mcount_nc
	movw	r3, #52652	@ tmp169,
	ldr	r5, [r0, r3]	@ D.38690, <variable>.TotalFsNum
	cmp	r5, #0	@ D.38690,
	beq	.L551	@,
	add	r3, r0, #27648	@ ivtmp.1970, pH264Ctx,
	sub	r1, r5, #1	@ tmp187, D.38690,
	and	r4, r1, #1	@ tmp189, tmp187,
	mov	ip, #0	@ tmp181,
	ldr	r2, [r3, #212]!	@ <variable>.is_displayed, <variable>.is_displayed
	cmp	r2, #1	@ <variable>.is_displayed,
	beq	.L564	@,
	ldrb	r2, [r3, #-560]	@ zero_extendqisi2	@ <variable>.is_in_dpb, <variable>.is_in_dpb
	cmp	r2, #1	@ <variable>.is_in_dpb,
	beq	.L564	@,
.L565:
	mov	r1, #1	@ i,
	cmp	r1, r5	@ i, D.38690
	add	r3, r3, #592	@ ivtmp.1970, ivtmp.1970,
	bcs	.L551	@,
	cmp	r4, #0	@ tmp189,
	beq	.L554	@,
	ldr	r2, [r3, #0]	@ <variable>.is_displayed, <variable>.is_displayed
	cmp	r2, r1	@ <variable>.is_displayed,
	beq	.L567	@,
	ldrb	r2, [r3, #-560]	@ zero_extendqisi2	@ <variable>.is_in_dpb, <variable>.is_in_dpb
	cmp	r2, #1	@ <variable>.is_in_dpb,
	beq	.L567	@,
	add	r1, r1, #1	@ i, i,
	add	r3, r3, #592	@ ivtmp.1970, ivtmp.1970,
	cmp	r1, r5	@ i, D.38690
	bcc	.L554	@,
.L551:
	movw	r2, #52656	@ tmp177,
	ldr	ip, [r0, r2]	@ D.38691, <variable>.TotalPmvNum
	cmp	ip, #0	@ D.38691,
	ldmeqfd	sp, {r4, r5, fp, sp, pc}	@
	add	r3, r0, #52480	@ tmp178, pH264Ctx,
	mov	r2, #1	@ i.1976,
	add	r4, r3, #104	@ ivtmp.1965, tmp178,
	cmp	r2, ip	@ i.1976, D.38691
	sub	r1, ip, #1	@ tmp182, D.38691,
	mov	r0, #0	@ tmp180,
	str	r0, [r4, #0]	@ tmp180, <variable>.PmvStoreUsedFlag
	and	r4, r1, r2	@ tmp184, tmp182,
	add	r1, r3, #108	@ ivtmp.1965, tmp178,
	ldmcsfd	sp, {r4, r5, fp, sp, pc}	@
	cmp	r4, #0	@ tmp184,
	beq	.L556	@,
	mov	r2, #2	@ i.1976,
	cmp	r2, ip	@ i.1976, D.38691
	str	r0, [r1, #0]	@ tmp180, <variable>.PmvStoreUsedFlag
	add	r1, r3, #112	@ ivtmp.1965, tmp178,
	ldmcsfd	sp, {r4, r5, fp, sp, pc}	@
.L556:
	add	r2, r2, #2	@ i.1976, i.1976,
	mov	r3, r1	@ tmp186, ivtmp.1965
	cmp	r2, ip	@ i.1976, D.38691
	str	r0, [r3], #4	@ tmp180, <variable>.PmvStoreUsedFlag
	str	r0, [r1, #4]	@ tmp180, <variable>.PmvStoreUsedFlag
	add	r1, r3, #4	@ ivtmp.1965, tmp186,
	bcc	.L556	@,
	ldmfd	sp, {r4, r5, fp, sp, pc}	@
.L579:
	ldrb	r4, [r3, #-560]	@ zero_extendqisi2	@ <variable>.is_in_dpb, <variable>.is_in_dpb
	cmp	r4, #1	@ <variable>.is_in_dpb,
	beq	.L552	@,
	ldr	r3, [r3, #592]	@ <variable>.is_displayed, <variable>.is_displayed
	cmp	r3, #1	@ <variable>.is_displayed,
	beq	.L571	@,
.L577:
	ldrb	r3, [r2, #-560]	@ zero_extendqisi2	@ <variable>.is_in_dpb, <variable>.is_in_dpb
	cmp	r3, #1	@ <variable>.is_in_dpb,
	beq	.L571	@,
.L572:
	add	r1, r1, #1	@ i, tmp191,
	add	r3, r2, #592	@ ivtmp.1970, tmp190,
	cmp	r1, r5	@ i, D.38690
	bcs	.L551	@,
.L554:
	ldr	r4, [r3, #0]	@ <variable>.is_displayed, <variable>.is_displayed
	add	r1, r1, #1	@ tmp191, i,
	add	r2, r3, #592	@ tmp190, ivtmp.1970,
	cmp	r4, #1	@ <variable>.is_displayed,
	bne	.L579	@,
.L552:
	strb	ip, [r3, #-563]	@ tmp181, <variable>.is_used
	strb	ip, [r3, #-562]	@ tmp181, <variable>.is_reference
	ldr	r3, [r3, #592]	@ <variable>.is_displayed, <variable>.is_displayed
	cmp	r3, #1	@ <variable>.is_displayed,
	bne	.L577	@,
.L571:
	strb	ip, [r2, #-563]	@ tmp181, <variable>.is_used
	strb	ip, [r2, #-562]	@ tmp181, <variable>.is_reference
	b	.L572	@
.L567:
	add	r1, r1, #1	@ i, i,
	strb	ip, [r3, #-563]	@ tmp181, <variable>.is_used
	cmp	r1, r5	@ i, D.38690
	strb	ip, [r3, #-562]	@ tmp181, <variable>.is_reference
	add	r3, r3, #592	@ ivtmp.1970, ivtmp.1970,
	bcc	.L554	@,
	b	.L551	@
.L564:
	strb	ip, [r3, #-563]	@ tmp181, <variable>.is_used
	strb	ip, [r3, #-562]	@ tmp181, <variable>.is_reference
	b	.L565	@
	.fnend
	.size	NoPicOut, .-NoPicOut
	.align	2
	.global	wait_vo
	.type	wait_vo, %function
wait_vo:
	.fnstart
.LFB1428:
	@ args = 0, pretend = 0, frame = 0
	@ frame_needed = 1, uses_anonymous_args = 0
	.movsp ip
	mov	ip, sp	@,
	stmfd	sp!, {fp, ip, lr, pc}	@,
	.pad #4
	.save {fp, ip, lr}
	.setfp fp, ip, #-4
	sub	fp, ip, #4	@,,
	push	{lr}
	bl	__gnu_mcount_nc
	ldmfd	sp, {fp, sp, pc}	@
	.fnend
	.size	wait_vo, .-wait_vo
	.align	2
	.global	GetReRangeFlag
	.type	GetReRangeFlag, %function
GetReRangeFlag:
	.fnstart
.LFB1429:
	@ args = 0, pretend = 0, frame = 8
	@ frame_needed = 1, uses_anonymous_args = 0
	.movsp ip
	mov	ip, sp	@,
	stmfd	sp!, {r4, r5, r6, r7, r8, fp, ip, lr, pc}	@,
	.pad #4
	.save {r4, r5, r6, r7, r8, fp, ip, lr}
	.setfp fp, ip, #-4
	sub	fp, ip, #4	@,,
	.pad #12
	sub	sp, sp, #12	@,,
	push	{lr}
	bl	__gnu_mcount_nc
	movw	r3, #13584	@ tmp150,
	mov	r4, r0	@ pH264Ctx, pH264Ctx
	movw	r0, #20684	@ tmp148,
	ldr	r7, [r4, r3]	@ <variable>.PPS, <variable>.PPS
	mov	r5, #2208	@ tmp152,
	ldr	r6, [r4, r0]	@ <variable>.CurrSlice.pic_parameter_set_id, <variable>.CurrSlice.pic_parameter_set_id
	movw	ip, #13580	@ tmp146,
	ldr	r3, [r4, ip]	@ <variable>.SPS, <variable>.SPS
	movw	r2, #13560	@ tmp158,
	ldr	r2, [r4, r2]	@ oldw, <variable>.CurWidthInMb
	mla	r0, r5, r6, r7	@ tmp153, tmp152, <variable>.CurrSlice.pic_parameter_set_id, <variable>.PPS
	movw	r5, #3992	@ tmp156,
	mov	r6, r1	@ p_dpb_changed, p_dpb_changed
	movw	r1, #13564	@ tmp159,
	ldr	r7, [r4, r1]	@ oldh, <variable>.CurHeightInMb
	ldr	ip, [r0, #28]	@ <variable>.seq_parameter_set_id, <variable>.seq_parameter_set_id
	mla	r5, r5, ip, r3	@ pSPS, tmp156, <variable>.seq_parameter_set_id, <variable>.SPS
	ldrb	r1, [r5, #18]	@ zero_extendqisi2	@ <variable>.frame_mbs_only_flag, <variable>.frame_mbs_only_flag
	ldr	r3, [r5, #3952]	@ <variable>.pic_height_in_map_units_minus1, <variable>.pic_height_in_map_units_minus1
	rsb	r0, r1, #2	@ tmp162, <variable>.frame_mbs_only_flag,
	ldr	ip, [r5, #3948]	@ <variable>.pic_width_in_mbs_minus1, <variable>.pic_width_in_mbs_minus1
	mla	r0, r3, r0, r0	@ newh, <variable>.pic_height_in_map_units_minus1, tmp162, tmp162
	add	ip, ip, #1	@ neww, <variable>.pic_width_in_mbs_minus1,
	cmp	ip, r2	@ neww, oldw
	cmpeq	r0, r7	@, newh, oldh
	moveq	r3, #0	@, tmp171
	movne	r3, #1	@, tmp171
	bne	.L583	@,
	movw	r8, #26616	@ tmp172,
	ldr	r1, [r5, #3972]	@ prephitmp.2013, <variable>.dpb_size_plus1
	ldr	r8, [r4, r8]	@ <variable>.DPB.size, <variable>.DPB.size
	add	r8, r8, #1	@ tmp173, <variable>.DPB.size,
	cmp	r1, r8	@ prephitmp.2013, tmp173
	bls	.L587	@,
.L583:
	movw	r1, #:lower16:g_event_report	@ tmp175,
	movt	r1, #:upper16:g_event_report	@ tmp175,
	ldr	r3, [r1, #0]	@ g_event_report.596, g_event_report
	cmp	r3, #0	@ g_event_report.596,
	beq	.L588	@,
	movw	lr, #54168	@ tmp184,
	mov	r1, r2, asl #4	@ tmp177, oldw,
	mov	ip, ip, asl #4	@ tmp181, neww,
	strh	r1, [fp, #-44]	@ movhi	@ tmp177, para
	mov	r2, r0, asl #4	@ tmp183, newh,
	strh	ip, [fp, #-40]	@ movhi	@ tmp181, para
	strh	r2, [fp, #-38]	@ movhi	@ tmp183, para
	mov	r1, #2	@,
	mov	r7, r7, asl #4	@ tmp179, oldh,
	sub	r2, fp, #44	@,,
	strh	r7, [fp, #-42]	@ movhi	@ tmp179, para
	ldr	r0, [r4, lr]	@, <variable>.ChanID
	blx	r3	@ g_event_report.596
	ldr	r1, [r5, #3972]	@ prephitmp.2013, <variable>.dpb_size_plus1
	mov	r3, #1	@ prephitmp.2025,
.L587:
	mov	r0, r3	@ ReRangeFlg, prephitmp.2025
.L584:
	movw	r2, #14332	@ tmp187,
	ldr	ip, [r5, #744]	@ <variable>.seq_parameter_set_id, <variable>.seq_parameter_set_id
	ldr	r5, [r4, r2]	@ <variable>.CurrSPS.seq_parameter_set_id, <variable>.CurrSPS.seq_parameter_set_id
	movw	r2, #17560	@ tmp192,
	ldr	r2, [r4, r2]	@ <variable>.CurrSPS.dpb_size_plus1, <variable>.CurrSPS.dpb_size_plus1
	cmp	r5, ip	@ <variable>.CurrSPS.seq_parameter_set_id, <variable>.seq_parameter_set_id
	orrne	r3, r3, #1	@,, dpb_changed, prephitmp.2025
	cmp	r2, r1	@ <variable>.CurrSPS.dpb_size_plus1, prephitmp.2013
	moveq	ip, r3	@, tmp196, dpb_changed
	orrne	ip, r3, #1	@,, tmp196, dpb_changed
	str	ip, [r6, #0]	@ tmp196,* p_dpb_changed
	sub	sp, fp, #32
	ldmfd	sp, {r4, r5, r6, r7, r8, fp, sp, pc}
.L588:
	mov	r3, #1	@ prephitmp.2025,
	ldr	r1, [r5, #3972]	@ prephitmp.2013, <variable>.dpb_size_plus1
	mov	r0, r3	@ ReRangeFlg, prephitmp.2025
	b	.L584	@
	.fnend
	.size	GetReRangeFlag, .-GetReRangeFlag
	.global	__aeabi_uidiv
	.global	__aeabi_uidivmod
	.align	2
	.global	DecPOC
	.type	DecPOC, %function
DecPOC:
	.fnstart
.LFB1430:
	@ args = 0, pretend = 0, frame = 0
	@ frame_needed = 1, uses_anonymous_args = 0
	.movsp ip
	mov	ip, sp	@,
	stmfd	sp!, {r3, r4, r5, r6, r7, r8, fp, ip, lr, pc}	@,
	.pad #4
	.save {r3, r4, r5, r6, r7, r8, fp, ip, lr}
	.setfp fp, ip, #-4
	sub	fp, ip, #4	@,,
	push	{lr}
	bl	__gnu_mcount_nc
	movw	r2, #20684	@ tmp174,
	mov	r4, r0	@ pH264Ctx, pH264Ctx
	ldr	ip, [r0, r2]	@ <variable>.CurrSlice.pic_parameter_set_id, <variable>.CurrSlice.pic_parameter_set_id
	movw	r0, #13584	@ tmp176,
	mov	r5, #2208	@ tmp178,
	ldr	r1, [r4, r0]	@ <variable>.PPS, <variable>.PPS
	movw	r3, #13580	@ tmp172,
	ldr	r3, [r4, r3]	@ <variable>.SPS, <variable>.SPS
	movw	r2, #20675	@ tmp169,
	mla	r0, r5, ip, r1	@ tmp179, tmp178, <variable>.CurrSlice.pic_parameter_set_id, <variable>.PPS
	movw	r5, #3992	@ tmp182,
	ldrb	r1, [r4, r2]	@ zero_extendqisi2	@ <variable>.CurrSlice.nal_unit_type, <variable>.CurrSlice.nal_unit_type
	mov	r2, #1	@ tmp186,
	cmp	r1, #5	@ <variable>.CurrSlice.nal_unit_type,
	movne	r1, #0	@, tmp171
	moveq	r1, #1	@, tmp171
	ldr	ip, [r0, #28]	@ <variable>.seq_parameter_set_id, <variable>.seq_parameter_set_id
	mla	r5, r5, ip, r3	@ sps, tmp182, <variable>.seq_parameter_set_id, <variable>.SPS
	ldr	r3, [r5, #2900]	@ <variable>.pic_order_cnt_type, <variable>.pic_order_cnt_type
	ldr	r0, [r5, #2896]	@ <variable>.log2_max_frame_num_minus4, <variable>.log2_max_frame_num_minus4
	cmp	r3, r2	@ <variable>.pic_order_cnt_type,
	ldr	ip, [r5, #2904]	@ D.38866, <variable>.log2_max_pic_order_cnt_lsb_minus4
	add	r0, r0, #4	@ tmp184, <variable>.log2_max_frame_num_minus4,
	mov	r0, r2, asl r0	@ MaxFrameNum, tmp186,
	beq	.L592	@,
	bcs	.L644	@,
	cmp	r1, #0	@ tmp171,
	add	ip, ip, #4	@ tmp188, D.38866,
	mov	r2, r2, asl ip	@ MaxPicOrderCntLsb, tmp186,
	bne	.L645	@,
	movw	r3, #19812	@ tmp194,
	ldr	ip, [r4, r3]	@ <variable>.CurrPOC.last_has_mmco_5, <variable>.CurrPOC.last_has_mmco_5
	cmp	ip, #0	@ <variable>.CurrPOC.last_has_mmco_5,
	bne	.L596	@,
	movw	r1, #19796	@ tmp197,
	movw	r5, #19800	@ tmp196,
	ldr	ip, [r4, r1]	@ prephitmp.2063, <variable>.CurrPOC.PrevPicOrderCntMsb
	ldr	r1, [r4, r5]	@ prephitmp.2061, <variable>.CurrPOC.PrevPicOrderCntLsb
	mov	r5, ip	@ prephitmp.2065, prephitmp.2063
.L597:
	movw	r3, #19788	@ tmp208,
	ldr	r0, [r4, r3]	@ D.38889, <variable>.CurrPOC.pic_order_cnt_lsb
	cmp	r0, r1	@ D.38889, prephitmp.2061
	bcs	.L599	@,
	rsb	r3, r0, r1	@ tmp209, D.38889, prephitmp.2061
	cmp	r3, r2, lsr #1	@ tmp209, MaxPicOrderCntLsb,
	addcs	r3, r5, r2	@ D.38898, prephitmp.2065, MaxPicOrderCntLsb
	movwcs	r2, #19804	@ tmp212,
	strcs	r3, [r4, r2]	@ D.38898, <variable>.CurrPOC.PicOrderCntMsb
	bcs	.L602	@,
.L599:
	movw	r3, #19796	@ tmp213,
	ldr	r3, [r4, r3]	@ prephitmp.2131, <variable>.CurrPOC.PrevPicOrderCntMsb
.L601:
	cmp	r1, r0	@ prephitmp.2061, D.38889
	bcs	.L603	@,
	rsb	r1, r1, r0	@ tmp214, prephitmp.2061, D.38889
	cmp	r1, r2, lsr #1	@ tmp214, MaxPicOrderCntLsb,
	bhi	.L646	@,
.L603:
	movw	r0, #19804	@ tmp217,
	str	ip, [r4, r0]	@ prephitmp.2063, <variable>.CurrPOC.PicOrderCntMsb
.L602:
	movw	r1, #20673	@ tmp218,
	ldrb	ip, [r4, r1]	@ zero_extendqisi2	@ <variable>.CurrSlice.field_pic_flag, <variable>.CurrSlice.field_pic_flag
	cmp	ip, #0	@ <variable>.CurrSlice.field_pic_flag,
	bne	.L604	@,
	movw	r2, #19788	@ tmp220,
	movw	r0, #19792	@ tmp223,
	ldr	ip, [r4, r2]	@ <variable>.CurrPOC.pic_order_cnt_lsb, <variable>.CurrPOC.pic_order_cnt_lsb
	ldr	r1, [r4, r0]	@ <variable>.CurrPOC.delta_pic_order_cnt_bottom, <variable>.CurrPOC.delta_pic_order_cnt_bottom
	movw	r0, #19820	@ tmp222,
	add	r2, r3, ip	@ D.38912, prephitmp.2131, <variable>.CurrPOC.pic_order_cnt_lsb
	str	r2, [r4, r0]	@ D.38912, <variable>.CurrPOC.toppoc
	add	ip, r2, r1	@ D.38914, D.38912, <variable>.CurrPOC.delta_pic_order_cnt_bottom
	movw	r0, #19828	@ tmp226,
	cmp	ip, r2	@ D.38914, D.38912
	movlt	r3, ip	@ prephitmp.2056, D.38914
	movge	r3, r2	@ prephitmp.2056, D.38912
	movw	r2, #19824	@ tmp225,
	str	ip, [r4, r2]	@ D.38914, <variable>.CurrPOC.bottompoc
	movw	r2, #19832	@ tmp227,
	str	r3, [r4, r0]	@ prephitmp.2056,
	str	r3, [r4, r2]	@ prephitmp.2056, <variable>.CurrPOC.ThisPOC
.L605:
	movw	ip, #19828	@ tmp238,
	movw	r1, #19852	@ tmp239,
	movw	r2, #19848	@ tmp240,
	ldr	r1, [r4, r1]	@ D.38924, <variable>.CurrPOC.frame_num
	str	r3, [r4, ip]	@ prephitmp.2056, <variable>.CurrPOC.framepoc
	movw	ip, #20704	@ tmp243,
	ldr	r0, [r4, r2]	@ <variable>.CurrPOC.PreviousFrameNum, <variable>.CurrPOC.PreviousFrameNum
	ldr	r3, [r4, ip]	@ <variable>.CurrSlice.nal_ref_idc, <variable>.CurrSlice.nal_ref_idc
	cmp	r1, r0	@ D.38924, <variable>.CurrPOC.PreviousFrameNum
	strne	r1, [r4, r2]	@ D.38924, <variable>.CurrPOC.PreviousFrameNum
	cmp	r3, #0	@ <variable>.CurrSlice.nal_ref_idc,
	ldmeqfd	sp, {r3, r4, r5, r6, r7, r8, fp, sp, pc}	@
	movw	r2, #19788	@ tmp246,
	movw	r1, #19804	@ tmp249,
	ldr	r0, [r4, r2]	@ <variable>.CurrPOC.pic_order_cnt_lsb, <variable>.CurrPOC.pic_order_cnt_lsb
	movw	ip, #19800	@ tmp245,
	ldr	r2, [r4, r1]	@ <variable>.CurrPOC.PicOrderCntMsb, <variable>.CurrPOC.PicOrderCntMsb
	movw	r3, #19796	@ tmp248,
	str	r0, [r4, ip]	@ <variable>.CurrPOC.pic_order_cnt_lsb, <variable>.CurrPOC.PrevPicOrderCntLsb
	str	r2, [r4, r3]	@ <variable>.CurrPOC.PicOrderCntMsb,
	ldmfd	sp, {r3, r4, r5, r6, r7, r8, fp, sp, pc}	@
.L644:
	cmp	r3, #2	@ <variable>.pic_order_cnt_type,
	ldmnefd	sp, {r3, r4, r5, r6, r7, r8, fp, sp, pc}	@
	cmp	r1, #0	@ tmp171,
	bne	.L647	@,
	movw	ip, #19812	@ tmp357,
	ldr	r3, [r4, ip]	@ <variable>.CurrPOC.last_has_mmco_5, <variable>.CurrPOC.last_has_mmco_5
	cmp	r3, #0	@ <variable>.CurrPOC.last_has_mmco_5,
	bne	.L628	@,
	movw	r2, #19848	@ tmp360,
	movw	ip, #19852	@ tmp361,
	ldr	r1, [r4, r2]	@ <variable>.CurrPOC.PreviousFrameNum, <variable>.CurrPOC.PreviousFrameNum
	movw	r3, #19860	@ tmp359,
	ldr	r2, [r4, ip]	@ <variable>.CurrPOC.frame_num, <variable>.CurrPOC.frame_num
	ldr	r3, [r4, r3]	@ prephitmp.2051, <variable>.CurrPOC.PrevFrameNumOffset
	cmp	r1, r2	@ <variable>.CurrPOC.PreviousFrameNum, <variable>.CurrPOC.frame_num
	addhi	r3, r3, r0	@ prephitmp.2051, prephitmp.2051, MaxFrameNum
	movwhi	r2, #19856	@ tmp368,
	strhi	r3, [r4, r2]	@ prephitmp.2051, <variable>.CurrPOC.FrameNumOffset
	bls	.L630	@,
.L631:
	movw	r2, #19852	@ tmp370,
	movw	r1, #20704	@ tmp373,
	ldr	ip, [r4, r2]	@ <variable>.CurrPOC.frame_num, <variable>.CurrPOC.frame_num
	movw	r2, #20673	@ tmp378,
	ldr	r0, [r4, r1]	@ <variable>.CurrSlice.nal_ref_idc, <variable>.CurrSlice.nal_ref_idc
	movw	r1, #19844	@ tmp372,
	add	r3, r3, ip	@ temp.2121, prephitmp.2051, <variable>.CurrPOC.frame_num
	ldrb	ip, [r4, r2]	@ zero_extendqisi2	@ <variable>.CurrSlice.field_pic_flag, <variable>.CurrSlice.field_pic_flag
	cmp	r0, #0	@ <variable>.CurrSlice.nal_ref_idc,
	str	r3, [r4, r1]	@ temp.2121, <variable>.CurrPOC.AbsFrameNum
	mov	r3, r3, asl #1	@ tmp375, temp.2121,
	movw	r0, #19832	@ tmp377,
	subeq	r3, r3, #1	@ prephitmp.2123, tmp375,
	cmp	ip, #0	@ <variable>.CurrSlice.field_pic_flag,
	str	r3, [r4, r0]	@ prephitmp.2123, <variable>.CurrPOC.ThisPOC
	bne	.L634	@,
	movw	r2, #19828	@ tmp380,
	movw	r0, #19820	@ tmp382,
	movw	ip, #19824	@ tmp381,
	str	r3, [r4, r2]	@ prephitmp.2123, <variable>.CurrPOC.framepoc
	str	r3, [r4, r0]	@ prephitmp.2123, <variable>.CurrPOC.toppoc
	str	r3, [r4, ip]	@ prephitmp.2123,
.L627:
	movw	r2, #19852	@ tmp390,
	movw	r0, #19856	@ tmp393,
	ldr	r1, [r4, r2]	@ <variable>.CurrPOC.frame_num, <variable>.CurrPOC.frame_num
	movw	ip, #19848	@ tmp389,
	ldr	r2, [r4, r0]	@ <variable>.CurrPOC.FrameNumOffset, <variable>.CurrPOC.FrameNumOffset
	movw	r3, #19860	@ tmp392,
	str	r1, [r4, ip]	@ <variable>.CurrPOC.frame_num, <variable>.CurrPOC.PreviousFrameNum
	str	r2, [r4, r3]	@ <variable>.CurrPOC.FrameNumOffset,
	ldmfd	sp, {r3, r4, r5, r6, r7, r8, fp, sp, pc}	@
.L592:
	cmp	r1, #0	@ tmp171,
	movwne	r3, #19856	@ tmp251,
	movne	r2, #0	@ tmp252,
	strne	r2, [r4, r3]	@ tmp252, <variable>.CurrPOC.FrameNumOffset
	bne	.L609	@,
	movw	r3, #19812	@ tmp253,
	ldr	r7, [r4, r3]	@ <variable>.CurrPOC.last_has_mmco_5, <variable>.CurrPOC.last_has_mmco_5
	cmp	r7, #0	@ <variable>.CurrPOC.last_has_mmco_5,
	beq	.L610	@,
	movw	ip, #19860	@ tmp255,
	movw	r0, #19848	@ tmp257,
	mov	r3, r1	@ prephitmp.2055, tmp171
	str	r1, [r4, ip]	@ tmp171, <variable>.CurrPOC.PrevFrameNumOffset
	str	r1, [r4, r0]	@ tmp171, <variable>.CurrPOC.PreviousFrameNum
.L611:
	movw	r2, #19856	@ tmp268,
	str	r3, [r4, r2]	@ prephitmp.2055, <variable>.CurrPOC.FrameNumOffset
.L609:
	ldr	ip, [r5, #2916]	@ <variable>.num_ref_frames_in_pic_order_cnt_cycle, <variable>.num_ref_frames_in_pic_order_cnt_cycle
	movw	r0, #20704	@ tmp278,
	ldr	r3, [r4, r0]	@ <variable>.CurrSlice.nal_ref_idc, <variable>.CurrSlice.nal_ref_idc
	cmp	ip, #0	@ <variable>.num_ref_frames_in_pic_order_cnt_cycle,
	movwne	ip, #19852	@ tmp271,
	movweq	r2, #19844	@ tmp276,
	ldrne	r2, [r4, ip]	@ <variable>.CurrPOC.frame_num, <variable>.CurrPOC.frame_num
	movwne	ip, #19856	@ tmp272,
	ldrne	ip, [r4, ip]	@ <variable>.CurrPOC.FrameNumOffset, <variable>.CurrPOC.FrameNumOffset
	streq	ip, [r4, r2]	@ <variable>.num_ref_frames_in_pic_order_cnt_cycle, <variable>.CurrPOC.AbsFrameNum
	addne	r2, r2, ip	@ tmp275, <variable>.CurrPOC.frame_num, <variable>.CurrPOC.FrameNumOffset
	movwne	ip, #19844	@ tmp270,
	strne	r2, [r4, ip]	@ tmp275, <variable>.CurrPOC.AbsFrameNum
	cmp	r3, #0	@ <variable>.CurrSlice.nal_ref_idc,
	beq	.L648	@,
.L615:
	movw	ip, #19876	@ tmp283,
	mov	r3, #0	@ tmp284,
	str	r3, [r4, ip]	@ tmp284, <variable>.CurrPOC.ExpectedDeltaPerPicOrderCntCycle
	ldr	r1, [r5, #2916]	@ temp.2126, <variable>.num_ref_frames_in_pic_order_cnt_cycle
	cmp	r1, r3	@ temp.2126,
	ble	.L616	@,
	add	r7, r5, #2912	@ ivtmp.2085, sps,
	mov	r2, r3	@ i, prephitmp.2052
	add	r0, r7, #8	@ ivtmp.2085, ivtmp.2085,
.L617:
	ldr	r1, [r0], #4	@ tmp286, <variable>.offset_for_ref_frame
	add	r2, r2, #1	@ i, i,
	add	r3, r3, r1	@ prephitmp.2052, prephitmp.2052, tmp286
	str	r3, [r4, ip]	@ prephitmp.2052, <variable>.CurrPOC.ExpectedDeltaPerPicOrderCntCycle
	ldr	r1, [r5, #2916]	@ temp.2126, <variable>.num_ref_frames_in_pic_order_cnt_cycle
	cmp	r1, r2	@ temp.2126, i
	bgt	.L617	@,
.L616:
	movw	r3, #19844	@ tmp288,
	ldr	r7, [r4, r3]	@ temp.2100, <variable>.CurrPOC.AbsFrameNum
	cmp	r7, #0	@ temp.2100,
	movweq	r3, #19872	@ tmp309,
	moveq	r6, r7	@ prephitmp.2104, temp.2100
	streq	r7, [r4, r3]	@ temp.2100, <variable>.CurrPOC.ExpectedPicOrderCnt
	beq	.L619	@,
	sub	r7, r7, #1	@ tmp289, temp.2100,
	mov	r0, r7	@, tmp289
	bl	__aeabi_uidiv	@
	movw	ip, #19868	@ tmp293,
	mov	r6, r0	@ tmp292,
	mov	r0, r7	@, tmp289
	str	r6, [r4, ip]	@ tmp292, <variable>.CurrPOC.PicOrderCntCycleCnt
	ldr	r1, [r5, #2916]	@, <variable>.num_ref_frames_in_pic_order_cnt_cycle
	bl	__aeabi_uidivmod	@
	movw	r2, #19876	@ tmp303,
	ldr	r0, [r4, r2]	@ <variable>.CurrPOC.ExpectedDeltaPerPicOrderCntCycle, <variable>.CurrPOC.ExpectedDeltaPerPicOrderCntCycle
	movw	ip, #19872	@ tmp305,
	movw	r2, #19864	@ tmp302,
	mul	r6, r0, r6	@ prephitmp.2104, <variable>.CurrPOC.ExpectedDeltaPerPicOrderCntCycle, tmp292
	str	r6, [r4, ip]	@ prephitmp.2104, <variable>.CurrPOC.ExpectedPicOrderCnt
	cmp	r1, #0	@ D.38965,
	str	r1, [r4, r2]	@ D.38965, <variable>.CurrPOC.FrameNumInPicOrderCntCycle
	blt	.L619	@,
	add	r3, r5, #2912	@ tmp306, sps,
	cmp	r1, #1	@ D.38965,
	and	r8, r1, #1	@ tmp401, D.38965,
	mov	r0, #1	@ i.2106,
	ldr	r7, [r3, #8]	@ tmp307, <variable>.offset_for_ref_frame
	add	r2, r3, #12	@ ivtmp.2080, tmp306,
	add	r6, r6, r7	@ prephitmp.2104, prephitmp.2104, tmp307
	str	r6, [r4, ip]	@ prephitmp.2104, <variable>.CurrPOC.ExpectedPicOrderCnt
	blt	.L619	@,
	cmp	r8, #0	@ tmp401,
	beq	.L620	@,
	ldr	r7, [r2, #0]	@ tmp413, <variable>.offset_for_ref_frame
	mov	r0, #2	@ i.2106,
	cmp	r1, r0	@ D.38965, i.2106
	add	r2, r3, #16	@ ivtmp.2080, tmp306,
	add	r6, r6, r7	@ prephitmp.2104, prephitmp.2104, tmp413
	str	r6, [r4, ip]	@ prephitmp.2104, <variable>.CurrPOC.ExpectedPicOrderCnt
	blt	.L619	@,
.L620:
	mov	r3, r2	@ tmp403, ivtmp.2080
	add	r0, r0, #2	@ i.2106, i.2106,
	ldr	r7, [r3], #4	@ tmp406, <variable>.offset_for_ref_frame
	cmp	r1, r0	@ D.38965, i.2106
	add	lr, r6, r7	@ prephitmp.2104, prephitmp.2104, tmp406
	str	lr, [r4, ip]	@ prephitmp.2104, <variable>.CurrPOC.ExpectedPicOrderCnt
	ldr	r7, [r2, #4]	@ tmp411, <variable>.offset_for_ref_frame
	add	r2, r3, #4	@ ivtmp.2080, tmp403,
	add	r6, lr, r7	@ prephitmp.2104, prephitmp.2104, tmp411
	str	r6, [r4, ip]	@ prephitmp.2104, <variable>.CurrPOC.ExpectedPicOrderCnt
	bge	.L620	@,
.L619:
	movw	r3, #20704	@ tmp311,
	movw	r0, #20673	@ tmp316,
	ldr	ip, [r4, r3]	@ <variable>.CurrSlice.nal_ref_idc, <variable>.CurrSlice.nal_ref_idc
	ldrb	r1, [r4, r0]	@ zero_extendqisi2	@ <variable>.CurrSlice.field_pic_flag, <variable>.CurrSlice.field_pic_flag
	cmp	ip, #0	@ <variable>.CurrSlice.nal_ref_idc,
	ldreq	ip, [r5, #2908]	@ <variable>.offset_for_non_ref_pic, <variable>.offset_for_non_ref_pic
	movwne	ip, #19872	@ tmp313,
	ldrne	r6, [r4, ip]	@ prephitmp.2108, <variable>.CurrPOC.ExpectedPicOrderCnt
	addeq	r6, r6, ip	@ prephitmp.2108, prephitmp.2104, <variable>.offset_for_non_ref_pic
	movweq	ip, #19872	@ tmp315,
	streq	r6, [r4, ip]	@ prephitmp.2108, <variable>.CurrPOC.ExpectedPicOrderCnt
	cmp	r1, #0	@ <variable>.CurrSlice.field_pic_flag,
	beq	.L649	@,
	movw	ip, #20674	@ tmp328,
	ldrb	r0, [r4, ip]	@ zero_extendqisi2	@ <variable>.CurrSlice.bottom_field_flag, <variable>.CurrSlice.bottom_field_flag
	cmp	r0, #0	@ <variable>.CurrSlice.bottom_field_flag,
	movwne	r2, #19836	@ tmp334,
	ldrne	r0, [r5, #2912]	@ <variable>.offset_for_top_to_bottom_field, <variable>.offset_for_top_to_bottom_field
	movweq	r0, #19836	@ tmp330,
	ldrne	r2, [r4, r2]	@ <variable>.CurrPOC.delta_pic_order_cnt, <variable>.CurrPOC.delta_pic_order_cnt
	ldreq	r0, [r4, r0]	@ <variable>.CurrPOC.delta_pic_order_cnt, <variable>.CurrPOC.delta_pic_order_cnt
	addne	r0, r2, r0	@ tmp335, <variable>.CurrPOC.delta_pic_order_cnt, <variable>.offset_for_top_to_bottom_field
	movw	r2, #19832	@ tmp339,
	addeq	r6, r6, r0	@ prephitmp.2113, prephitmp.2108, <variable>.CurrPOC.delta_pic_order_cnt
	addne	r6, r0, r6	@ prephitmp.2113, tmp335, prephitmp.2108
	movweq	r0, #19820	@ tmp332,
	movwne	r0, #19824	@ tmp338,
	str	r6, [r4, r0]	@ prephitmp.2113,
	str	r6, [r4, r2]	@ prephitmp.2113, <variable>.CurrPOC.ThisPOC
.L624:
	movw	r2, #19852	@ tmp342,
	movw	r1, #19856	@ tmp345,
	ldr	r0, [r4, r2]	@ <variable>.CurrPOC.frame_num, <variable>.CurrPOC.frame_num
	movw	ip, #19828	@ tmp340,
	ldr	r2, [r4, r1]	@ <variable>.CurrPOC.FrameNumOffset, <variable>.CurrPOC.FrameNumOffset
	movw	r3, #19848	@ tmp341,
	movw	r1, #19860	@ tmp344,
	str	r6, [r4, ip]	@ prephitmp.2113, <variable>.CurrPOC.framepoc
	str	r0, [r4, r3]	@ <variable>.CurrPOC.frame_num, <variable>.CurrPOC.PreviousFrameNum
	str	r2, [r4, r1]	@ <variable>.CurrPOC.FrameNumOffset,
	ldmfd	sp, {r3, r4, r5, r6, r7, r8, fp, sp, pc}	@
.L649:
	movw	r3, #19836	@ tmp318,
	movw	r1, #19840	@ tmp321,
	ldr	ip, [r4, r3]	@ <variable>.CurrPOC.delta_pic_order_cnt, <variable>.CurrPOC.delta_pic_order_cnt
	movw	r0, #19820	@ tmp320,
	ldr	r2, [r4, r1]	@ <variable>.CurrPOC.delta_pic_order_cnt, <variable>.CurrPOC.delta_pic_order_cnt
	add	r6, r6, ip	@ D.38979, prephitmp.2108, <variable>.CurrPOC.delta_pic_order_cnt
	str	r6, [r4, r0]	@ D.38979, <variable>.CurrPOC.toppoc
	ldr	r1, [r5, #2912]	@ <variable>.offset_for_top_to_bottom_field, <variable>.offset_for_top_to_bottom_field
	movw	ip, #19824	@ tmp325,
	add	r3, r2, r1	@ tmp322, <variable>.CurrPOC.delta_pic_order_cnt, <variable>.offset_for_top_to_bottom_field
	movw	r1, #19828	@ tmp326,
	add	r0, r3, r6	@ D.38983, tmp322, D.38979
	movw	r2, #19832	@ tmp327,
	cmp	r0, r6	@ D.38983, D.38979
	movlt	r6, r0	@ prephitmp.2113, D.38983
	movge	r6, r6	@ prephitmp.2113, D.38979
	str	r0, [r4, ip]	@ D.38983, <variable>.CurrPOC.bottompoc
	str	r6, [r4, r1]	@ prephitmp.2113,
	str	r6, [r4, r2]	@ prephitmp.2113, <variable>.CurrPOC.ThisPOC
	b	.L624	@
.L648:
	movw	r1, #19844	@ tmp280,
	ldr	r2, [r4, r1]	@ D.38950, <variable>.CurrPOC.AbsFrameNum
	cmp	r2, #0	@ D.38950,
	subne	r2, r2, #1	@ tmp282, D.38950,
	strne	r2, [r4, r1]	@ tmp282, <variable>.CurrPOC.AbsFrameNum
	b	.L615	@
.L647:
	movw	r0, #19832	@ tmp355,
	mov	r3, #0	@ tmp348,
	movw	r2, #19856	@ tmp347,
	str	r3, [r4, r0]	@ tmp348, <variable>.CurrPOC.ThisPOC
	movw	r1, #19824	@ tmp349,
	movw	ip, #19820	@ tmp351,
	movw	r0, #19828	@ tmp353,
	str	r3, [r4, r2]	@ tmp348, <variable>.CurrPOC.FrameNumOffset
	str	r3, [r4, r1]	@ tmp348, <variable>.CurrPOC.bottompoc
	str	r3, [r4, ip]	@ tmp348,
	str	r3, [r4, r0]	@ tmp348,
	b	.L627	@
.L645:
	movw	r0, #19800	@ tmp192,
	movw	r1, #19796	@ tmp190,
	mov	r3, #0	@ tmp191,
	str	r3, [r4, r0]	@ tmp191, <variable>.CurrPOC.PrevPicOrderCntLsb
	str	r3, [r4, r1]	@ tmp191, <variable>.CurrPOC.PrevPicOrderCntMsb
.L595:
	movw	ip, #19788	@ tmp395,
	movw	r1, #19796	@ tmp396,
	mov	r3, #0	@ prephitmp.2131,
	ldr	r0, [r4, ip]	@ D.38889, <variable>.CurrPOC.pic_order_cnt_lsb
	ldr	ip, [r4, r1]	@ prephitmp.2063, <variable>.CurrPOC.PrevPicOrderCntMsb
	mov	r1, r3	@ prephitmp.2061, prephitmp.2131
	b	.L601	@
.L604:
	movw	r1, #20674	@ tmp228,
	movw	r0, #19788	@ tmp230,
	ldrb	r2, [r4, r1]	@ zero_extendqisi2	@ <variable>.CurrSlice.bottom_field_flag, <variable>.CurrSlice.bottom_field_flag
	movw	r1, #19832	@ tmp237,
	ldr	ip, [r4, r0]	@ <variable>.CurrPOC.pic_order_cnt_lsb, <variable>.CurrPOC.pic_order_cnt_lsb
	cmp	r2, #0	@ <variable>.CurrSlice.bottom_field_flag,
	add	r3, r3, ip	@ prephitmp.2056, prephitmp.2131, <variable>.CurrPOC.pic_order_cnt_lsb
	movweq	ip, #19820	@ tmp232,
	movwne	ip, #19824	@ tmp236,
	str	r3, [r4, ip]	@ prephitmp.2056,
	str	r3, [r4, r1]	@ prephitmp.2056, <variable>.CurrPOC.ThisPOC
	b	.L605	@
.L596:
	movw	r0, #19816	@ tmp198,
	ldr	r3, [r4, r0]	@ <variable>.CurrPOC.last_pic_bottom_field, <variable>.CurrPOC.last_pic_bottom_field
	cmp	r3, #0	@ <variable>.CurrPOC.last_pic_bottom_field,
	beq	.L598	@,
	movw	r3, #19800	@ tmp202,
	movw	ip, #19796	@ tmp200,
	str	r1, [r4, r3]	@ tmp171, <variable>.CurrPOC.PrevPicOrderCntLsb
	str	r1, [r4, ip]	@ tmp171, <variable>.CurrPOC.PrevPicOrderCntMsb
	b	.L595	@
.L628:
	movw	r3, #19848	@ tmp364,
	movw	r0, #19860	@ tmp366,
	str	r1, [r4, r3]	@ tmp171, <variable>.CurrPOC.PreviousFrameNum
	mov	r3, r1	@ prephitmp.2051, tmp171
	str	r1, [r4, r0]	@ tmp171, <variable>.CurrPOC.PrevFrameNumOffset
.L630:
	movw	r1, #19856	@ tmp369,
	str	r3, [r4, r1]	@ prephitmp.2051, <variable>.CurrPOC.FrameNumOffset
	b	.L631	@
.L634:
	movw	r0, #20674	@ tmp383,
	movw	r1, #19828	@ tmp387,
	ldrb	ip, [r4, r0]	@ zero_extendqisi2	@ <variable>.CurrSlice.bottom_field_flag, <variable>.CurrSlice.bottom_field_flag
	cmp	ip, #0	@ <variable>.CurrSlice.bottom_field_flag,
	movweq	ip, #19820	@ tmp386,
	movwne	ip, #19824	@ tmp388,
	str	r3, [r4, ip]	@ prephitmp.2123,
	str	r3, [r4, r1]	@ prephitmp.2123,
	b	.L627	@
.L610:
	movw	r3, #19852	@ tmp259,
	movw	r7, #19848	@ tmp260,
	ldr	r2, [r4, r3]	@ <variable>.CurrPOC.frame_num, <variable>.CurrPOC.frame_num
	ldr	r1, [r4, r7]	@ <variable>.CurrPOC.PreviousFrameNum, <variable>.CurrPOC.PreviousFrameNum
	cmp	r2, r1	@ <variable>.CurrPOC.frame_num, <variable>.CurrPOC.PreviousFrameNum
	bcs	.L612	@,
	movw	r7, #19860	@ tmp264,
	movw	ip, #19856	@ tmp263,
	ldr	r1, [r4, r7]	@ <variable>.CurrPOC.PrevFrameNumOffset, <variable>.CurrPOC.PrevFrameNumOffset
	add	r0, r0, r1	@ tmp266, MaxFrameNum, <variable>.CurrPOC.PrevFrameNumOffset
	str	r0, [r4, ip]	@ tmp266, <variable>.CurrPOC.FrameNumOffset
	b	.L609	@
.L646:
	rsb	r3, r2, r3	@ D.38905, MaxPicOrderCntLsb, prephitmp.2131
	movw	r2, #19804	@ tmp216,
	str	r3, [r4, r2]	@ D.38905, <variable>.CurrPOC.PicOrderCntMsb
	b	.L602	@
.L598:
	movw	r1, #19820	@ tmp206,
	movw	r0, #19796	@ tmp204,
	ldr	r1, [r4, r1]	@ prephitmp.2061, <variable>.CurrPOC.toppoc
	mov	r5, r3	@ prephitmp.2065, <variable>.CurrPOC.last_pic_bottom_field
	str	r3, [r4, r0]	@ <variable>.CurrPOC.last_pic_bottom_field, <variable>.CurrPOC.PrevPicOrderCntMsb
	movw	r0, #19800	@ tmp207,
	mov	ip, r3	@ prephitmp.2063, prephitmp.2065
	str	r1, [r4, r0]	@ prephitmp.2061, <variable>.CurrPOC.PrevPicOrderCntLsb
	b	.L597	@
.L612:
	movw	r2, #19860	@ tmp267,
	ldr	r3, [r4, r2]	@ prephitmp.2055, <variable>.CurrPOC.PrevFrameNumOffset
	b	.L611	@
	.fnend
	.size	DecPOC, .-DecPOC
	.align	2
	.global	CalcPicNum
	.type	CalcPicNum, %function
CalcPicNum:
	.fnstart
.LFB1431:
	@ args = 0, pretend = 0, frame = 0
	@ frame_needed = 1, uses_anonymous_args = 0
	.movsp ip
	mov	ip, sp	@,
	stmfd	sp!, {r4, r5, r6, r7, r8, sl, fp, ip, lr, pc}	@,
	.pad #4
	.save {r4, r5, r6, r7, r8, sl, fp, ip, lr}
	.setfp fp, ip, #-4
	sub	fp, ip, #4	@,,
	push	{lr}
	bl	__gnu_mcount_nc
	movw	r3, #20684	@ tmp158,
	movw	r2, #13584	@ tmp160,
	ldr	r4, [r0, r3]	@ <variable>.CurrSlice.pic_parameter_set_id, <variable>.CurrSlice.pic_parameter_set_id
	ldr	r5, [r0, r2]	@ <variable>.PPS, <variable>.PPS
	mov	ip, #2208	@ tmp162,
	movw	r1, #13580	@ tmp166,
	movw	r2, #50979	@ tmp173,
	ldr	r1, [r0, r1]	@ <variable>.SPS, <variable>.SPS
	mla	r3, ip, r4, r5	@ tmp163, tmp162, <variable>.CurrSlice.pic_parameter_set_id, <variable>.PPS
	movw	ip, #3992	@ tmp168,
	ldrb	r2, [r0, r2]	@ zero_extendqisi2	@ D.39043, <variable>.CurrPic.structure
	cmp	r2, #0	@ D.39043,
	ldr	r5, [r3, #28]	@ <variable>.seq_parameter_set_id, <variable>.seq_parameter_set_id
	mov	r3, #1	@ tmp172,
	mla	r4, ip, r5, r1	@ tmp169, tmp168, <variable>.seq_parameter_set_id, <variable>.SPS
	ldr	r1, [r4, #2896]	@ <variable>.log2_max_frame_num_minus4, <variable>.log2_max_frame_num_minus4
	add	ip, r1, #4	@ tmp170, <variable>.log2_max_frame_num_minus4,
	mov	ip, r3, asl ip	@ MaxFrameNum, tmp172,
	beq	.L651	@,
	mov	r7, #26624	@ tmp176,
	cmp	r2, #2	@ D.39043,
	movne	r4, #0	@, add_bottom
	moveq	r4, #1	@, add_bottom
	ldr	r6, [r0, r7]	@ <variable>.DPB.ref_frames_in_buffer, <variable>.DPB.ref_frames_in_buffer
	cmp	r2, #1	@ D.39043,
	movne	r5, #0	@, add_top
	moveq	r5, #1	@, add_top
	cmp	r6, #0	@ <variable>.DPB.ref_frames_in_buffer,
	beq	.L653	@,
	add	r8, r0, #26368	@ ivtmp.2199, pH264Ctx,
	mov	r2, #0	@ i,
	add	r3, r8, #120	@ ivtmp.2199, ivtmp.2199,
	movw	r8, #51424	@ tmp245,
.L666:
	ldr	r1, [r3, #0]	@ temp.2207, <variable>.DPB.fs_ref
	ldrb	r6, [r1, #2]	@ zero_extendqisi2	@ <variable>.is_reference, <variable>.is_reference
	cmp	r6, #0	@ <variable>.is_reference,
	beq	.L662	@,
	ldr	r6, [r1, #544]	@ temp.2209, <variable>.frame_num
	ldr	sl, [r0, r8]	@ <variable>.CurrPic.frame_num, <variable>.CurrPic.frame_num
	cmp	r6, sl	@ temp.2209, <variable>.CurrPic.frame_num
	rsbhi	r6, ip, r6	@ tmp205, MaxFrameNum, temp.2209
	str	r6, [r1, #548]	@ temp.2209, <variable>.frame_num_wrap
	ldr	r1, [r3, #0]	@ prephitmp.2167, <variable>.DPB.fs_ref
	ldrb	r6, [r1, #2]	@ zero_extendqisi2	@ prephitmp.2171, <variable>.is_reference
	tst	r6, #1	@ prephitmp.2171,
	beq	.L665	@,
	ldr	sl, [r1, #468]	@ tmp209,
	bic	sl, sl, #-16777216	@ tmp207, tmp209,
	bic	sl, sl, #255	@ tmp207, tmp207,
	cmp	sl, #65536	@ tmp207,
	ldreq	r6, [r1, #548]	@ <variable>.frame_num_wrap, <variable>.frame_num_wrap
	addeq	r6, r5, r6, asl #1	@, tmp212, add_top, <variable>.frame_num_wrap,
	streq	r6, [r1, #480]	@ tmp212, <variable>.top_field.pic_num
	ldreq	r1, [r3, #0]	@ prephitmp.2167, <variable>.DPB.fs_ref
	ldreqb	r6, [r1, #2]	@ zero_extendqisi2	@ prephitmp.2171, <variable>.is_reference
.L665:
	tst	r6, #2	@ prephitmp.2171,
	beq	.L662	@,
	ldr	r6, [r1, #504]	@ tmp216,
	bic	r6, r6, #-16777216	@ tmp214, tmp216,
	bic	r6, r6, #255	@ tmp214, tmp214,
	cmp	r6, #65536	@ tmp214,
	ldreq	r6, [r1, #548]	@ <variable>.frame_num_wrap, <variable>.frame_num_wrap
	addeq	r6, r4, r6, asl #1	@, tmp219, add_bottom, <variable>.frame_num_wrap,
	streq	r6, [r1, #516]	@ tmp219, <variable>.bottom_field.pic_num
.L662:
	ldr	r1, [r0, r7]	@ <variable>.DPB.ref_frames_in_buffer, <variable>.DPB.ref_frames_in_buffer
	add	r2, r2, #1	@ i, i,
	add	r3, r3, #4	@ ivtmp.2199, ivtmp.2199,
	cmp	r1, r2	@ <variable>.DPB.ref_frames_in_buffer, i
	bhi	.L666	@,
.L653:
	movw	r6, #26628	@ tmp222,
	ldr	r3, [r0, r6]	@ <variable>.DPB.ltref_frames_in_buffer, <variable>.DPB.ltref_frames_in_buffer
	cmp	r3, #0	@ <variable>.DPB.ltref_frames_in_buffer,
	ldmeqfd	sp, {r4, r5, r6, r7, r8, sl, fp, sp, pc}	@
	add	r2, r0, #26368	@ ivtmp.2194, pH264Ctx,
	add	r3, r2, #184	@ ivtmp.2194, ivtmp.2194,
	mov	r2, #0	@ i.2211,
.L669:
	ldr	ip, [r3, #0]	@ prephitmp.2160, <variable>.DPB.fs_ltref
	add	r2, r2, #1	@ i.2211, i.2211,
	ldrb	r1, [ip, #2]	@ zero_extendqisi2	@ temp.2221, <variable>.is_reference
	cmp	r1, #0	@ temp.2221,
	beq	.L667	@,
	tst	r1, #1	@ prephitmp.2164,
	beq	.L668	@,
	ldr	r7, [ip, #468]	@ tmp228,
	bic	r7, r7, #-16777216	@ tmp226, tmp228,
	bic	r7, r7, #255	@ tmp226, tmp226,
	cmp	r7, #256	@ tmp226,
	ldreq	r1, [ip, #552]	@ <variable>.long_term_frame_idx, <variable>.long_term_frame_idx
	addeq	r1, r5, r1, asl #1	@, tmp231, add_top, <variable>.long_term_frame_idx,
	streq	r1, [ip, #476]	@ tmp231, <variable>.top_field.long_term_pic_num
	ldreq	ip, [r3, #0]	@ prephitmp.2160, <variable>.DPB.fs_ltref
	ldreqb	r1, [ip, #2]	@ zero_extendqisi2	@ prephitmp.2164, <variable>.is_reference
.L668:
	tst	r1, #2	@ prephitmp.2164,
	beq	.L667	@,
	ldr	r1, [ip, #504]	@ tmp235,
	bic	r1, r1, #-16777216	@ tmp233, tmp235,
	bic	r1, r1, #255	@ tmp233, tmp233,
	cmp	r1, #256	@ tmp233,
	ldreq	r1, [ip, #552]	@ <variable>.long_term_frame_idx, <variable>.long_term_frame_idx
	addeq	r1, r4, r1, asl #1	@, tmp238, add_bottom, <variable>.long_term_frame_idx,
	streq	r1, [ip, #512]	@ tmp238, <variable>.bottom_field.long_term_pic_num
.L667:
	ldr	ip, [r0, r6]	@ <variable>.DPB.ltref_frames_in_buffer, <variable>.DPB.ltref_frames_in_buffer
	add	r3, r3, #4	@ ivtmp.2194, ivtmp.2194,
	cmp	ip, r2	@ <variable>.DPB.ltref_frames_in_buffer, i.2211
	bhi	.L669	@,
	ldmfd	sp, {r4, r5, r6, r7, r8, sl, fp, sp, pc}	@
.L651:
	mov	r5, #26624	@ tmp178,
	ldr	r4, [r0, r5]	@ <variable>.DPB.ref_frames_in_buffer, <variable>.DPB.ref_frames_in_buffer
	cmp	r4, #0	@ <variable>.DPB.ref_frames_in_buffer,
	beq	.L654	@,
	add	r1, r0, #26368	@ ivtmp.2189, pH264Ctx,
	movw	r6, #51424	@ tmp242,
	add	r3, r1, #120	@ ivtmp.2189, ivtmp.2189,
	b	.L658	@
.L655:
	ldr	r1, [r0, r5]	@ <variable>.DPB.ref_frames_in_buffer, <variable>.DPB.ref_frames_in_buffer
	add	r2, r2, #1	@ i.2204, i.2204,
	add	r3, r3, #4	@ ivtmp.2189, ivtmp.2189,
	cmp	r1, r2	@ <variable>.DPB.ref_frames_in_buffer, i.2204
	bls	.L654	@,
.L658:
	ldr	r1, [r3, #0]	@ D.39047, <variable>.DPB.fs_ref
	ldrb	r4, [r1, #2]	@ zero_extendqisi2	@ <variable>.is_reference, <variable>.is_reference
	cmp	r4, #3	@ <variable>.is_reference,
	bne	.L655	@,
	ldr	r4, [r1, #432]	@ tmp184,
	bic	r4, r4, #-16777216	@ tmp182, tmp184,
	bic	r4, r4, #255	@ tmp182, tmp182,
	cmp	r4, #65536	@ tmp182,
	bne	.L655	@,
	ldr	r4, [r1, #544]	@ D.39055, <variable>.frame_num
	add	r2, r2, #1	@ i.2204, i.2204,
	ldr	r7, [r0, r6]	@ <variable>.CurrPic.frame_num, <variable>.CurrPic.frame_num
	cmp	r4, r7	@ D.39055, <variable>.CurrPic.frame_num
	rsb	r7, ip, r4	@ tmp187, MaxFrameNum, D.39055
	strls	r4, [r1, #548]	@ D.39055, <variable>.frame_num_wrap
	strhi	r7, [r1, #548]	@ tmp187, <variable>.frame_num_wrap
	ldr	r1, [r3, #0]	@ temp.2203, <variable>.DPB.fs_ref
	add	r3, r3, #4	@ ivtmp.2189, ivtmp.2189,
	ldr	r4, [r1, #548]	@ <variable>.frame_num_wrap, <variable>.frame_num_wrap
	str	r4, [r1, #444]	@ <variable>.frame_num_wrap, <variable>.frame.pic_num
	ldr	r1, [r0, r5]	@ <variable>.DPB.ref_frames_in_buffer, <variable>.DPB.ref_frames_in_buffer
	cmp	r1, r2	@ <variable>.DPB.ref_frames_in_buffer, i.2204
	bhi	.L658	@,
.L654:
	movw	r4, #26628	@ tmp191,
	ldr	ip, [r0, r4]	@ <variable>.DPB.ltref_frames_in_buffer, <variable>.DPB.ltref_frames_in_buffer
	cmp	ip, #0	@ <variable>.DPB.ltref_frames_in_buffer,
	ldmeqfd	sp, {r4, r5, r6, r7, r8, sl, fp, sp, pc}	@
	add	r2, r0, #26368	@ ivtmp.2184, pH264Ctx,
	add	r3, r2, #184	@ ivtmp.2184, ivtmp.2184,
	mov	r2, #0	@ i.2205,
	b	.L661	@
.L660:
	ldr	r1, [r0, r4]	@ <variable>.DPB.ltref_frames_in_buffer, <variable>.DPB.ltref_frames_in_buffer
	cmp	r1, r2	@ <variable>.DPB.ltref_frames_in_buffer, i.2205
	bls	.L675	@,
.L661:
	ldr	r1, [r3, #0]	@ D.39065, <variable>.DPB.fs_ltref
	add	r2, r2, #1	@ i.2205, i.2205,
	add	r3, r3, #4	@ ivtmp.2184, ivtmp.2184,
	ldrb	ip, [r1, #2]	@ zero_extendqisi2	@ <variable>.is_reference, <variable>.is_reference
	cmp	ip, #3	@ <variable>.is_reference,
	bne	.L660	@,
	ldr	ip, [r1, #432]	@ tmp197,
	bic	ip, ip, #-16777216	@ tmp195, tmp197,
	bic	ip, ip, #255	@ tmp195, tmp195,
	cmp	ip, #256	@ tmp195,
	ldreq	ip, [r1, #552]	@ <variable>.long_term_frame_idx, <variable>.long_term_frame_idx
	streq	ip, [r1, #440]	@ <variable>.long_term_frame_idx, <variable>.frame.long_term_pic_num
	ldr	r1, [r0, r4]	@ <variable>.DPB.ltref_frames_in_buffer, <variable>.DPB.ltref_frames_in_buffer
	cmp	r1, r2	@ <variable>.DPB.ltref_frames_in_buffer, i.2205
	bhi	.L661	@,
.L675:
	ldmfd	sp, {r4, r5, r6, r7, r8, sl, fp, sp, pc}	@
	.fnend
	.size	CalcPicNum, .-CalcPicNum
	.align	2
	.global	IsOutDPB
	.type	IsOutDPB, %function
IsOutDPB:
	.fnstart
.LFB1432:
	@ args = 0, pretend = 0, frame = 0
	@ frame_needed = 1, uses_anonymous_args = 0
	.movsp ip
	mov	ip, sp	@,
	stmfd	sp!, {r3, r4, fp, ip, lr, pc}	@,
	.pad #4
	.save {r3, r4, fp, ip, lr}
	.setfp fp, ip, #-4
	sub	fp, ip, #4	@,,
	push	{lr}
	bl	__gnu_mcount_nc
	cmp	r1, #0	@ pFrameStore
	beq	.L677	@,
	movw	r3, #26620	@ tmp141,
	ldr	r4, [r0, r3]	@ D.39141, <variable>.DPB.used_size
	cmp	r4, #0	@ D.39141,
	beq	.L677	@,
	movw	ip, #26424	@ tmp142,
	ldr	r2, [r0, ip]	@ <variable>.DPB.fs, <variable>.DPB.fs
	cmp	r2, r1	@ <variable>.DPB.fs, pFrameStore
	beq	.L678	@,
	tst	r4, #1	@ D.39141,
	add	r3, r0, #26368	@ tmp144, pH264Ctx,
	add	r2, r3, #60	@ ivtmp.2253, tmp144,
	mov	r0, #0	@ i,
	bne	.L679	@,
	ldr	ip, [r2, #0]	@ D.39138, <variable>.DPB.fs
	mov	r0, #1	@ i,
	add	r2, r3, #64	@ ivtmp.2253, tmp144,
	cmp	ip, r1	@ D.39138, pFrameStore
	bne	.L679	@,
.L678:
	mov	r0, #0	@ D.39136,
	ldmfd	sp, {r3, r4, fp, sp, pc}	@
.L680:
	ldr	ip, [r3], #4	@ D.39138, <variable>.DPB.fs
	cmp	ip, r1	@ D.39138, pFrameStore
	beq	.L678	@,
	ldr	ip, [r2, #4]	@ D.39138, <variable>.DPB.fs
	add	r2, r3, #4	@ ivtmp.2253, tmp150,
	cmp	ip, r1	@ D.39138, pFrameStore
	beq	.L678	@,
.L679:
	add	r0, r0, #1	@ tmp149, i,
	mov	r3, r2	@ tmp150, ivtmp.2253
	cmp	r0, r4	@ tmp149, D.39141
	add	r0, r0, #1	@ i, tmp149,
	bcc	.L680	@,
.L677:
	mov	r0, #1	@ D.39136,
	ldmfd	sp, {r3, r4, fp, sp, pc}	@
	.fnend
	.size	IsOutDPB, .-IsOutDPB
	.align	2
	.global	UpdatePicQpInf
	.type	UpdatePicQpInf, %function
UpdatePicQpInf:
	.fnstart
.LFB1438:
	@ args = 0, pretend = 0, frame = 0
	@ frame_needed = 1, uses_anonymous_args = 0
	.movsp ip
	mov	ip, sp	@,
	stmfd	sp!, {fp, ip, lr, pc}	@,
	.pad #4
	.save {fp, ip, lr}
	.setfp fp, ip, #-4
	sub	fp, ip, #4	@,,
	push	{lr}
	bl	__gnu_mcount_nc
	ldr	r2, [r1, #28]	@ <variable>.MaxQp, <variable>.MaxQp
	ldr	r3, [r1, #32]	@ <variable>.MinQp, <variable>.MinQp
	cmp	r2, r0	@ <variable>.MaxQp, SlcQp
	strge	r2, [r1, #28]	@, <variable>.MaxQp, <variable>.MaxQp
	strlt	r0, [r1, #28]	@, SlcQp, <variable>.MaxQp
	cmp	r3, r0	@ <variable>.MinQp, SlcQp
	strle	r3, [r1, #32]	@, <variable>.MinQp, <variable>.MinQp
	strgt	r0, [r1, #32]	@, SlcQp, <variable>.MinQp
	ldmfd	sp, {fp, sp, pc}	@
	.fnend
	.size	UpdatePicQpInf, .-UpdatePicQpInf
	.align	2
	.global	StopPicNum
	.type	StopPicNum, %function
StopPicNum:
	.fnstart
.LFB1440:
	@ args = 0, pretend = 0, frame = 0
	@ frame_needed = 1, uses_anonymous_args = 0
	.movsp ip
	mov	ip, sp	@,
	stmfd	sp!, {fp, ip, lr, pc}	@,
	.pad #4
	.save {fp, ip, lr}
	.setfp fp, ip, #-4
	sub	fp, ip, #4	@,,
	push	{lr}
	bl	__gnu_mcount_nc
	ldmfd	sp, {fp, sp, pc}	@
	.fnend
	.size	StopPicNum, .-StopPicNum
	.align	2
	.global	H264_GetPicStreamSize
	.type	H264_GetPicStreamSize, %function
H264_GetPicStreamSize:
	.fnstart
.LFB1442:
	@ args = 0, pretend = 0, frame = 0
	@ frame_needed = 1, uses_anonymous_args = 0
	.movsp ip
	mov	ip, sp	@,
	stmfd	sp!, {fp, ip, lr, pc}	@,
	.pad #4
	.save {fp, ip, lr}
	.setfp fp, ip, #-4
	sub	fp, ip, #4	@,,
	push	{lr}
	bl	__gnu_mcount_nc
	movw	r3, #53824	@ tmp138,
	ldr	r3, [r0, r3]	@ pH264SliceParam, <variable>.DecPicPara.pFirstSlice
	cmp	r3, #0	@ pH264SliceParam,
	moveq	r0, r3	@ TotalSize, pH264SliceParam
	ldmeqfd	sp, {fp, sp, pc}	@
	mov	r0, #0	@ TotalSize,
.L695:
	ldr	r2, [r3, #12]	@ <variable>.valid_bitlen, <variable>.valid_bitlen
	ldr	r1, [r3, #8]	@ <variable>.valid_bitlen, <variable>.valid_bitlen
	ldr	r3, [r3, #4056]	@ pH264SliceParam, <variable>.pNextSlice
	add	ip, r1, r2	@ tmp139, <variable>.valid_bitlen, <variable>.valid_bitlen
	add	r2, ip, #7	@ tmp142, tmp139,
	cmp	r3, #0	@ pH264SliceParam,
	add	r0, r0, r2, lsr #3	@, TotalSize, TotalSize, tmp142,
	bne	.L695	@,
	ldmfd	sp, {fp, sp, pc}	@
	.fnend
	.size	H264_GetPicStreamSize, .-H264_GetPicStreamSize
	.align	2
	.global	ExitSlice
	.type	ExitSlice, %function
ExitSlice:
	.fnstart
.LFB1453:
	@ args = 0, pretend = 0, frame = 0
	@ frame_needed = 1, uses_anonymous_args = 0
	.movsp ip
	mov	ip, sp	@,
	stmfd	sp!, {r3, r4, r5, r6, fp, ip, lr, pc}	@,
	.pad #4
	.save {r3, r4, r5, r6, fp, ip, lr}
	.setfp fp, ip, #-4
	sub	fp, ip, #4	@,,
	push	{lr}
	bl	__gnu_mcount_nc
	movw	r4, #20684	@ tmp137,
	movw	ip, #13584	@ tmp140,
	ldr	r1, [r0, r4]	@ D.40961, <variable>.CurrSlice.pic_parameter_set_id
	ldr	r3, [r0, ip]	@ <variable>.PPS, <variable>.PPS
	movw	r6, #13580	@ tmp138,
	mov	r2, #2208	@ tmp142,
	ldr	ip, [r0, r6]	@ <variable>.SPS, <variable>.SPS
	movw	r5, #20673	@ tmp158,
	movw	r4, #20724	@ tmp152,
	mla	r6, r2, r1, r3	@ tmp143, tmp142, D.40961, <variable>.PPS
	ldrb	r3, [r0, r5]	@ zero_extendqisi2	@ <variable>.CurrSlice.field_pic_flag, <variable>.CurrSlice.field_pic_flag
	ldr	r5, [r0, r4]	@ <variable>.CurrSlice.first_mb_in_slice, <variable>.CurrSlice.first_mb_in_slice
	movw	r4, #20692	@ tmp155,
	ldr	r4, [r0, r4]	@ <variable>.CurrSlice.frame_num, <variable>.CurrSlice.frame_num
	cmp	r3, #0	@ <variable>.CurrSlice.field_pic_flag,
	ldr	r2, [r6, #28]	@ <variable>.seq_parameter_set_id, <variable>.seq_parameter_set_id
	movw	r6, #22328	@ tmp148,
	str	r1, [r0, r6]	@ D.40961, <variable>.PrevSlice.pic_parameter_set_id
	movw	r1, #3992	@ tmp146,
	mla	r2, r1, r2, ip	@ sps, tmp146, <variable>.seq_parameter_set_id, <variable>.SPS
	movw	r1, #22360	@ tmp151,
	ldr	ip, [r2, #744]	@ <variable>.seq_parameter_set_id, <variable>.seq_parameter_set_id
	str	r5, [r0, r1]	@ <variable>.CurrSlice.first_mb_in_slice, <variable>.PrevSlice.first_mb_in_slice
	movw	r1, #22336	@ tmp154,
	str	r4, [r0, r1]	@ <variable>.CurrSlice.frame_num, <variable>.PrevSlice.frame_num
	movw	r1, #22324	@ tmp149,
	str	ip, [r0, r1]	@ <variable>.seq_parameter_set_id, <variable>.PrevSlice.seq_parameter_set_id
	movw	ip, #22320	@ tmp157,
	strb	r3, [r0, ip]	@ <variable>.CurrSlice.field_pic_flag, <variable>.PrevSlice.field_pic_flag
	movwne	r3, #20674	@ tmp164,
	ldrneb	ip, [r0, r3]	@ zero_extendqisi2	@ <variable>.CurrSlice.bottom_field_flag, <variable>.CurrSlice.bottom_field_flag
	movwne	r3, #22321	@ tmp163,
	movw	r1, #20704	@ tmp168,
	ldr	r1, [r0, r1]	@ <variable>.CurrSlice.nal_ref_idc, <variable>.CurrSlice.nal_ref_idc
	strneb	ip, [r0, r3]	@ <variable>.CurrSlice.bottom_field_flag, <variable>.PrevSlice.bottom_field_flag
	movw	r3, #20675	@ tmp171,
	ldrb	r3, [r0, r3]	@ zero_extendqisi2	@ <variable>.CurrSlice.nal_unit_type, <variable>.CurrSlice.nal_unit_type
	movw	ip, #22322	@ tmp170,
	cmp	r3, #5	@ <variable>.CurrSlice.nal_unit_type,
	strb	r3, [r0, ip]	@ <variable>.CurrSlice.nal_unit_type, <variable>.PrevSlice.nal_unit_type
	movw	r3, #22332	@ tmp167,
	str	r1, [r0, r3]	@ <variable>.CurrSlice.nal_ref_idc, <variable>.PrevSlice.nal_ref_idc
	movweq	r3, #20712	@ tmp177,
	ldreq	r1, [r0, r3]	@ <variable>.CurrSlice.idr_pic_id, <variable>.CurrSlice.idr_pic_id
	movweq	r3, #22340	@ tmp176,
	streq	r1, [r0, r3]	@ <variable>.CurrSlice.idr_pic_id, <variable>.PrevSlice.idr_pic_id
	ldr	r3, [r2, #2900]	@ prephitmp.2343, <variable>.pic_order_cnt_type
	cmp	r3, #0	@ prephitmp.2343,
	bne	.L701	@,
	movw	r1, #19788	@ tmp180,
	movw	r3, #19792	@ tmp183,
	ldr	ip, [r0, r1]	@ <variable>.CurrPOC.pic_order_cnt_lsb, <variable>.CurrPOC.pic_order_cnt_lsb
	ldr	r1, [r0, r3]	@ <variable>.CurrPOC.delta_pic_order_cnt_bottom, <variable>.CurrPOC.delta_pic_order_cnt_bottom
	movw	r3, #22344	@ tmp179,
	str	ip, [r0, r3]	@ <variable>.CurrPOC.pic_order_cnt_lsb, <variable>.PrevSlice.pic_oder_cnt_lsb
	movw	r3, #22348	@ tmp182,
	str	r1, [r0, r3]	@ <variable>.CurrPOC.delta_pic_order_cnt_bottom, <variable>.PrevSlice.delta_pic_oder_cnt_bottom
	ldr	r3, [r2, #2900]	@ prephitmp.2343, <variable>.pic_order_cnt_type
.L701:
	cmp	r3, #1	@ prephitmp.2343,
	bne	.L702	@,
	movw	r2, #19836	@ tmp186,
	movw	ip, #19840	@ tmp189,
	ldr	r1, [r0, r2]	@ <variable>.CurrPOC.delta_pic_order_cnt, <variable>.CurrPOC.delta_pic_order_cnt
	movw	r3, #22352	@ tmp185,
	ldr	r2, [r0, ip]	@ <variable>.CurrPOC.delta_pic_order_cnt, <variable>.CurrPOC.delta_pic_order_cnt
	movw	ip, #22356	@ tmp188,
	str	r1, [r0, r3]	@ <variable>.CurrPOC.delta_pic_order_cnt, <variable>.PrevSlice.delta_pic_order_cnt
	str	r2, [r0, ip]	@ <variable>.CurrPOC.delta_pic_order_cnt, <variable>.PrevSlice.delta_pic_order_cnt
.L702:
	movw	r3, #54124	@ tmp191,
	ldr	ip, [r0, r3]	@ <variable>.TotalSlice, <variable>.TotalSlice
	add	r1, ip, #1	@ tmp194, <variable>.TotalSlice,
	str	r1, [r0, r3]	@ tmp194, <variable>.TotalSlice
	ldmfd	sp, {r3, r4, r5, r6, fp, sp, pc}	@
	.fnend
	.size	ExitSlice, .-ExitSlice
	.align	2
	.global	PicTypeStatistic
	.type	PicTypeStatistic, %function
PicTypeStatistic:
	.fnstart
.LFB1454:
	@ args = 0, pretend = 0, frame = 0
	@ frame_needed = 1, uses_anonymous_args = 0
	.movsp ip
	mov	ip, sp	@,
	stmfd	sp!, {fp, ip, lr, pc}	@,
	.pad #4
	.save {fp, ip, lr}
	.setfp fp, ip, #-4
	sub	fp, ip, #4	@,,
	push	{lr}
	bl	__gnu_mcount_nc
	movw	r3, #20672	@ tmp134,
	ldrb	r3, [r0, r3]	@ zero_extendqisi2	@ <variable>.CurrSlice.slice_type, <variable>.CurrSlice.slice_type
	cmp	r3, #1	@ <variable>.CurrSlice.slice_type,
	beq	.L707	@,
	bcs	.L712	@,
	movw	r1, #51452	@ tmp140,
	ldr	r2, [r0, r1]	@ <variable>.CurrPic.pic_type, <variable>.CurrPic.pic_type
	cmp	r2, #2	@ <variable>.CurrPic.pic_type,
	movne	r2, #1	@ tmp143,
	strne	r2, [r0, r1]	@ tmp143, <variable>.CurrPic.pic_type
	mov	r1, #51456	@ tmp150,
	mov	r2, #0	@ tmp151,
	str	r2, [r0, r1]	@ tmp151, <variable>.CurrPic.is_idr_pic
	ldmfd	sp, {fp, sp, pc}	@
.L712:
	cmp	r3, #2	@ <variable>.CurrSlice.slice_type,
	ldmnefd	sp, {fp, sp, pc}	@
	movw	r3, #20675	@ tmp146,
	ldrb	ip, [r0, r3]	@ zero_extendqisi2	@ <variable>.CurrSlice.nal_unit_type, <variable>.CurrSlice.nal_unit_type
	cmp	ip, #5	@ <variable>.CurrSlice.nal_unit_type,
	moveq	ip, #51456	@ tmp148,
	moveq	r2, #1	@ tmp149,
	streq	r2, [r0, ip]	@ tmp149, <variable>.CurrPic.is_idr_pic
	movne	r1, #51456	@ tmp150,
	movne	r2, #0	@ tmp151,
	strne	r2, [r0, r1]	@ tmp151, <variable>.CurrPic.is_idr_pic
	ldmfd	sp, {fp, sp, pc}	@
.L707:
	movw	r3, #51452	@ tmp136,
	mov	r1, #51456	@ tmp138,
	mov	ip, #2	@ tmp137,
	mov	r2, #0	@ tmp139,
	str	ip, [r0, r3]	@ tmp137, <variable>.CurrPic.pic_type
	str	r2, [r0, r1]	@ tmp139, <variable>.CurrPic.is_idr_pic
	ldmfd	sp, {fp, sp, pc}	@
	.fnend
	.size	PicTypeStatistic, .-PicTypeStatistic
	.align	2
	.global	PassBytes
	.type	PassBytes, %function
PassBytes:
	.fnstart
.LFB1466:
	@ args = 0, pretend = 0, frame = 0
	@ frame_needed = 1, uses_anonymous_args = 0
	.movsp ip
	mov	ip, sp	@,
	stmfd	sp!, {r3, r4, r5, r6, fp, ip, lr, pc}	@,
	.pad #4
	.save {r3, r4, r5, r6, fp, ip, lr}
	.setfp fp, ip, #-4
	sub	fp, ip, #4	@,,
	push	{lr}
	bl	__gnu_mcount_nc
	ldr	r3, [r0, #368]	@ D.42404, <variable>.pCurrNal
	cmp	r3, #0	@ D.42404,
	cmpne	r1, #0	@, len,
	bne	.L720	@,
.L714:
	mvn	r0, #0	@ D.42410,
	ldmfd	sp, {r3, r4, r5, r6, fp, sp, pc}	@
.L720:
	ldrb	r2, [r3, #0]	@ zero_extendqisi2	@ D.42411, <variable>.nal_used_segment
	rsb	ip, r2, r2, asl #3	@, tmp155, D.42411, D.42411,
	add	ip, r3, ip, asl #2	@, tmp157, D.42404, tmp155,
	ldr	ip, [ip, #8]	@ <variable>.streamBuffer, <variable>.streamBuffer
	cmp	ip, #0	@ <variable>.streamBuffer,
	beq	.L714	@,
	ldr	ip, [r3, #68]	@ D.42418, <variable>.nal_segment
	cmp	ip, #2	@ D.42418,
	bhi	.L714	@,
	cmp	r2, #1	@ D.42411,
	bhi	.L714	@,
	cmp	ip, r2	@ D.42418, segment_idx
	bls	.L714	@,
	mov	r4, r1, asl #3	@ len.2410, len,
	mov	r6, #28	@ tmp188,
.L718:
	mla	r3, r6, r2, r3	@ tmp163, tmp188, segment_idx, D.42404
	add	r2, r2, #1	@ segment_idx, segment_idx,
	add	r5, r3, #24	@ tmp164, tmp163,
	ldr	r1, [r3, #12]	@ <variable>.bitstream_length, <variable>.bitstream_length
	ldr	ip, [r3, #24]	@ <variable>.bitsoffset, <variable>.bitsoffset
	mov	r1, r1, asl #3	@ D.42426, <variable>.bitstream_length,
	add	ip, r4, ip	@ D.42424, len.2410, <variable>.bitsoffset
	cmp	ip, r1	@ D.42424, D.42426
	rsb	r4, r1, ip	@ len.2410, D.42426, D.42424
	bls	.L721	@,
	str	r1, [r3, #24]	@ D.42426, <variable>.bitsoffset
	ldr	r3, [r0, #368]	@ temp.2411, <variable>.pCurrNal
	ldrb	r1, [r3, #0]	@ zero_extendqisi2	@ <variable>.nal_used_segment, <variable>.nal_used_segment
	add	ip, r1, #1	@ tmp184, <variable>.nal_used_segment,
	strb	ip, [r3, #0]	@ tmp184, <variable>.nal_used_segment
	ldr	r3, [r0, #368]	@ D.42404, <variable>.pCurrNal
	ldr	r1, [r3, #68]	@ <variable>.nal_segment, <variable>.nal_segment
	cmp	r1, r2	@ <variable>.nal_segment, segment_idx
	bhi	.L718	@,
	mov	r0, #0	@ D.42410,
	ldmfd	sp, {r3, r4, r5, r6, fp, sp, pc}	@
.L721:
	str	ip, [r5, #0]	@ D.42424, <variable>.bitsoffset
	mov	r0, #1	@ D.42410,
	ldmfd	sp, {r3, r4, r5, r6, fp, sp, pc}	@
	.fnend
	.size	PassBytes, .-PassBytes
	.align	2
	.global	GetBytes
	.type	GetBytes, %function
GetBytes:
	.fnstart
.LFB1467:
	@ args = 0, pretend = 0, frame = 0
	@ frame_needed = 1, uses_anonymous_args = 0
	.movsp ip
	mov	ip, sp	@,
	stmfd	sp!, {r3, r4, r5, r6, r7, r8, r9, sl, fp, ip, lr, pc}	@,
	.pad #4
	.save {r3, r4, r5, r6, r7, r8, r9, sl, fp, ip, lr}
	.setfp fp, ip, #-4
	sub	fp, ip, #4	@,,
	push	{lr}
	bl	__gnu_mcount_nc
	cmp	r1, #0	@ pdes
	bne	.L731	@,
.L723:
	mvn	r0, #0	@ D.42452,
	ldmfd	sp, {r3, r4, r5, r6, r7, r8, r9, sl, fp, sp, pc}	@
.L731:
	ldr	r5, [r0, #368]	@ D.42448, <variable>.pCurrNal
	cmp	r5, #0	@ D.42448,
	cmpne	r2, #0	@, len,
	movne	r4, #0	@, tmp158
	moveq	r4, #1	@, tmp158
	beq	.L723	@,
	ldrb	ip, [r5, #0]	@ zero_extendqisi2	@ D.42453, <variable>.nal_used_segment
	rsb	r3, ip, ip, asl #3	@, tmp162, D.42453, D.42453,
	add	r3, r5, r3, asl #2	@, tmp164, D.42448, tmp162,
	ldr	r3, [r3, #8]	@ <variable>.streamBuffer, <variable>.streamBuffer
	cmp	r3, #0	@ <variable>.streamBuffer,
	beq	.L723	@,
	ldr	r3, [r5, #68]	@ D.42460, <variable>.nal_segment
	cmp	r3, #2	@ D.42460,
	bhi	.L723	@,
	cmp	ip, #1	@ D.42453,
	bhi	.L723	@,
	cmp	r3, ip	@ D.42460, segment_idx
	bls	.L723	@,
	mov	r9, #28	@ tmp208,
.L728:
	mul	r8, r9, ip	@ tmp168, tmp208, segment_idx
	mov	r3, #0	@ ivtmp.2441,
	add	sl, r8, r5	@ tmp170, tmp168, D.42448
	ldr	r6, [sl, #24]	@ <variable>.bitsoffset, <variable>.bitsoffset
	ldr	r5, [sl, #8]	@ D.42465, <variable>.streamBuffer
	ldr	r7, [sl, #12]	@ <variable>.bitstream_length, <variable>.bitstream_length
	add	r6, r6, #7	@ tmp177, <variable>.bitsoffset,
	add	r7, r5, r7	@ end_byte, D.42465, <variable>.bitstream_length
	add	r5, r5, r6, lsr #3	@, byte_pos, D.42465, tmp177,
.L724:
	add	sl, r3, r5	@ D.45718, ivtmp.2441, byte_pos
	add	r6, r3, r1	@ D.45716, ivtmp.2441, pdes
	cmp	r7, sl	@ end_byte, D.45718
	bls	.L732	@,
	ldrb	sl, [r5, r3]	@ zero_extendqisi2	@ tmp186,* ivtmp.2441
	add	r4, r4, #1	@ cnt, cnt,
	cmp	r2, r4	@ len, cnt
	strb	sl, [r1, r3]	@ tmp186,* ivtmp.2441
	add	r3, r3, #1	@ ivtmp.2441, ivtmp.2441,
	ldr	r6, [r0, #368]	@ temp.2459, <variable>.pCurrNal
	add	r6, r8, r6	@ tmp191, tmp207, temp.2459
	ldr	sl, [r6, #24]	@ <variable>.bitsoffset, <variable>.bitsoffset
	add	sl, sl, #8	@ tmp199, <variable>.bitsoffset,
	str	sl, [r6, #24]	@ tmp199, <variable>.bitsoffset
	bhi	.L724	@,
	mov	r0, r2	@ D.42452, len
	ldmfd	sp, {r3, r4, r5, r6, r7, r8, r9, sl, fp, sp, pc}	@
.L732:
	ldr	r3, [r0, #368]	@ temp.2461, <variable>.pCurrNal
	add	ip, ip, #1	@ segment_idx, segment_idx,
	ldrb	r1, [r3, #0]	@ zero_extendqisi2	@ <variable>.nal_used_segment, <variable>.nal_used_segment
	add	r5, r1, #1	@ tmp202, <variable>.nal_used_segment,
	strb	r5, [r3, #0]	@ tmp202, <variable>.nal_used_segment
	ldr	r5, [r0, #368]	@ D.42448, <variable>.pCurrNal
	ldr	r1, [r5, #68]	@ <variable>.nal_segment, <variable>.nal_segment
	cmp	r1, ip	@ <variable>.nal_segment, segment_idx
	movhi	r1, r6	@ pdes, D.45716
	bhi	.L728	@
.L727:
	mov	r0, r4	@ D.42452, cnt
	ldmfd	sp, {r3, r4, r5, r6, r7, r8, r9, sl, fp, sp, pc}	@
	.fnend
	.size	GetBytes, .-GetBytes
	.align	2
	.global	InitOldSlice
	.type	InitOldSlice, %function
InitOldSlice:
	.fnstart
.LFB1471:
	@ args = 0, pretend = 0, frame = 0
	@ frame_needed = 1, uses_anonymous_args = 0
	.movsp ip
	mov	ip, sp	@,
	stmfd	sp!, {fp, ip, lr, pc}	@,
	.pad #4
	.save {fp, ip, lr}
	.setfp fp, ip, #-4
	sub	fp, ip, #4	@,,
	push	{lr}
	bl	__gnu_mcount_nc
	movw	r3, #13576	@ tmp135,
	ldr	ip, [r0, r3]	@ <variable>.MaxPpsNum, <variable>.MaxPpsNum
	movw	r2, #22328	@ tmp134,
	movw	r1, #22356	@ tmp156,
	movw	r3, #22320	@ tmp139,
	str	ip, [r0, r2]	@ <variable>.MaxPpsNum, <variable>.PrevSlice.pic_parameter_set_id
	mov	ip, #0	@ tmp140,
	str	ip, [r0, r1]	@ tmp140, <variable>.PrevSlice.delta_pic_order_cnt
	movw	r1, #22336	@ tmp137,
	strb	ip, [r0, r3]	@ tmp140, <variable>.PrevSlice.field_pic_flag
	movw	r3, #22321	@ tmp142,
	movw	r2, #:lower16:88888	@ tmp160,
	movt	r2, #:upper16:88888	@ tmp160,
	str	r2, [r0, r1]	@ tmp160, <variable>.PrevSlice.frame_num
	mov	r2, #2	@ tmp143,
	movw	r1, #22332	@ tmp145,
	strb	r2, [r0, r3]	@ tmp143, <variable>.PrevSlice.bottom_field_flag
	movw	r3, #22322	@ tmp147,
	mov	r2, #7	@ tmp146,
	str	r2, [r0, r1]	@ tmp146, <variable>.PrevSlice.nal_ref_idc
	mov	r1, #32	@ tmp148,
	movw	r2, #22344	@ tmp150,
	strb	r1, [r0, r3]	@ tmp148, <variable>.PrevSlice.nal_unit_type
	movw	r3, #22348	@ tmp152,
	mov	r1, #3	@ tmp151,
	str	r1, [r0, r2]	@ tmp151, <variable>.PrevSlice.pic_oder_cnt_lsb
	mvn	r2, #0	@ tmp153,
	movw	r1, #22352	@ tmp154,
	str	r2, [r0, r3]	@ tmp153, <variable>.PrevSlice.delta_pic_oder_cnt_bottom
	movw	r2, #22360	@ tmp158,
	movw	r3, #:lower16:92928	@ tmp161,
	str	ip, [r0, r1]	@ tmp140, <variable>.PrevSlice.delta_pic_order_cnt
	movt	r3, #:upper16:92928	@ tmp161,
	str	r3, [r0, r2]	@ tmp161, <variable>.PrevSlice.first_mb_in_slice
	ldmfd	sp, {fp, sp, pc}	@
	.fnend
	.size	InitOldSlice, .-InitOldSlice
	.align	2
	.global	FindNaluArraySlot
	.type	FindNaluArraySlot, %function
FindNaluArraySlot:
	.fnstart
.LFB1479:
	@ args = 0, pretend = 0, frame = 0
	@ frame_needed = 1, uses_anonymous_args = 0
	.movsp ip
	mov	ip, sp	@,
	stmfd	sp!, {fp, ip, lr, pc}	@,
	.pad #4
	.save {fp, ip, lr}
	.setfp fp, ip, #-4
	sub	fp, ip, #4	@,,
	push	{lr}
	bl	__gnu_mcount_nc
	ldrb	r2, [r0, #377]	@ zero_extendqisi2	@ <variable>.is_valid, <variable>.is_valid
	mov	r3, #0	@ Pos,
	cmp	r2, r3	@ <variable>.is_valid,
	addne	r2, r0, #96	@ ivtmp.2519, pH264Ctx,
	movne	r3, #1	@ Pos,
	bne	.L737	@,
	b	.L736	@
.L746:
	ldrb	ip, [r2, #473]	@ zero_extendqisi2	@ <variable>.is_valid, <variable>.is_valid
	add	r3, r3, #1	@ Pos, Pos,
	add	r2, r2, #192	@ ivtmp.2519, ivtmp.2519,
	cmp	ip, #0	@ <variable>.is_valid,
	beq	.L736	@,
	add	r3, r3, #1	@ Pos, Pos,
	cmp	r3, #137	@ Pos,
	beq	.L738	@,
.L737:
	ldrb	r1, [r2, #377]	@ zero_extendqisi2	@ <variable>.is_valid, <variable>.is_valid
	cmp	r1, #0	@ <variable>.is_valid,
	bne	.L746	@,
.L736:
	cmp	r3, #136	@ Pos,
	bhi	.L738	@,
	add	r1, r3, r3, asl #1	@, tmp155, Pos, Pos,
	mov	r2, #1	@ tmp159,
	add	r0, r0, r1, asl #5	@, tmp157, pH264Ctx, tmp155,
	strb	r2, [r0, #377]	@ tmp159, <variable>.is_valid
	mov	r0, r3	@, D.43309
	ldmfd	sp, {fp, sp, pc}	@
.L738:
	mvn	r3, #0	@ D.43309,
	mov	r0, r3	@, D.43309
	ldmfd	sp, {fp, sp, pc}	@
	.fnend
	.size	FindNaluArraySlot, .-FindNaluArraySlot
	.align	2
	.global	HaveSliceToDec
	.type	HaveSliceToDec, %function
HaveSliceToDec:
	.fnstart
.LFB1481:
	@ args = 0, pretend = 0, frame = 0
	@ frame_needed = 1, uses_anonymous_args = 0
	.movsp ip
	mov	ip, sp	@,
	stmfd	sp!, {fp, ip, lr, pc}	@,
	.pad #4
	.save {fp, ip, lr}
	.setfp fp, ip, #-4
	sub	fp, ip, #4	@,,
	push	{lr}
	bl	__gnu_mcount_nc
	movw	r1, #54092	@ tmp136,
	ldr	r3, [r0, r1]	@ <variable>.SliceParaNum, <variable>.SliceParaNum
	cmp	r3, #0	@ <variable>.SliceParaNum,
	mvneq	r0, #0	@,,
	movne	r0, #0	@,,
	ldmfd	sp, {fp, sp, pc}	@
	.fnend
	.size	HaveSliceToDec, .-HaveSliceToDec
	.global	__aeabi_idiv
	.align	2
	.global	H264GetDar
	.type	H264GetDar, %function
H264GetDar:
	.fnstart
.LFB1463:
	@ args = 4, pretend = 0, frame = 0
	@ frame_needed = 1, uses_anonymous_args = 0
	.movsp ip
	mov	ip, sp	@,
	stmfd	sp!, {r3, r4, fp, ip, lr, pc}	@,
	.pad #4
	.save {r3, r4, fp, ip, lr}
	.setfp fp, ip, #-4
	sub	fp, ip, #4	@,,
	push	{lr}
	bl	__gnu_mcount_nc
	cmp	r0, #0	@ ar_idc
	mov	ip, r1	@ sar_width, sar_width
	beq	.L752	@,
	subs	r1, r0, #255	@ D.41893, ar_idc,
	movne	r1, #1	@ D.41893
	cmp	r0, #255	@ ar_idc,
	cmpne	r0, #16	@, ar_idc,
	bgt	.L752	@,
	cmp	ip, #0	@ sar_width,
	cmpne	r2, #0	@, sar_height,
	beq	.L769	@,
.L753:
	cmp	r0, #1	@ ar_idc,
	moveq	r4, #5	@ final_dar,
	beq	.L755	@,
	cmp	r1, #0	@ D.41893,
	ldr	lr, [fp, #4]	@ img_height, img_height
	movwne	r2, #:lower16:.LANCHOR0	@ tmp162,
	movtne	r2, #:upper16:.LANCHOR0	@ tmp162,
	addne	r1, r2, r0, asl #3	@, tmp165, tmp162, ar_idc,
	ldrne	ip, [r2, r0, asl #3]	@ sar_width, SarTable
	mov	r0, r3, asl #10	@ tmp166, img_width,
	ldrne	r2, [r1, #4]	@ sar_height, SarTable
	mul	r0, ip, r0	@, sar_width, tmp166
	mul	r1, lr, r2	@, img_height, sar_height
	bl	__aeabi_idiv	@
	sub	r1, r0, #2400	@ iftmp.710, dar,
	sub	r3, r0, #2256	@ iftmp.2570, dar,
	sub	r2, r1, #6	@ iftmp.710, iftmp.710,
	sub	r3, r3, #7	@ iftmp.2570, iftmp.2570,
	cmp	r2, #0	@ iftmp.710,
	rsblt	r2, r0, #2400	@ tmp173, dar,
	addlt	r2, r2, #6	@ iftmp.710, tmp173,
	cmp	r3, #0	@ iftmp.2570,
	rsblt	r1, r0, #2256	@ tmp175, dar,
	addlt	r1, r1, #7	@ iftmp.711, tmp175,
	movge	r1, r3	@ iftmp.711, iftmp.2570
	cmp	r2, r1	@ iftmp.710, iftmp.711
	movlt	r4, #4	@ final_dar,
	blt	.L755	@,
	cmp	r3, #0	@ iftmp.2570,
	sub	ip, r0, #1808	@ iftmp.2571, dar,
	rsblt	r3, r0, #2256	@ tmp176, dar,
	sub	r2, ip, #12	@ iftmp.2571, iftmp.2571,
	addlt	r3, r3, #7	@ iftmp.2570, tmp176,
	cmp	r2, #0	@ iftmp.2571,
	rsblt	r1, r0, #1808	@ tmp178, dar,
	addlt	r1, r1, #12	@ iftmp.713, tmp178,
	movge	r1, r2	@ iftmp.713, iftmp.2571
	cmp	r3, r1	@ iftmp.2570, iftmp.713
	movlt	r4, #3	@ final_dar,
	blt	.L755	@,
	cmp	r2, #0	@ iftmp.2571,
	sub	r4, r0, #1360	@ iftmp.715, dar,
	sub	r4, r4, #5	@ iftmp.715, iftmp.715,
	rsblt	r2, r0, #1808	@ tmp179, dar,
	addlt	r2, r2, #12	@ iftmp.2571, tmp179,
	cmp	r4, #0	@ iftmp.715,
	rsblt	r4, r0, #1360	@ tmp181, dar,
	addlt	r4, r4, #5	@ iftmp.715, tmp181,
	cmp	r2, r4	@ iftmp.2571, iftmp.715
	movlt	r4, #2	@ final_dar,
	movge	r4, #1	@ final_dar,
	b	.L755	@
.L769:
	cmp	r0, #255	@ ar_idc,
	bne	.L753	@,
.L752:
	mov	r4, #0	@ final_dar,
.L755:
	mov	r2, r4	@, final_dar
	mov	r0, #22	@,
	movw	r1, #:lower16:.LC0	@,
	movt	r1, #:upper16:.LC0	@,
	bl	dprint_vfmw	@
	mov	r0, r4	@, final_dar
	ldmfd	sp, {r3, r4, fp, sp, pc}	@
	.fnend
	.size	H264GetDar, .-H264GetDar
	.align	2
	.global	SPSEqual
	.type	SPSEqual, %function
SPSEqual:
	.fnstart
.LFB1462:
	@ args = 0, pretend = 0, frame = 16
	@ frame_needed = 1, uses_anonymous_args = 0
	.movsp ip
	mov	ip, sp	@,
	stmfd	sp!, {r4, r5, r6, r7, r8, r9, sl, fp, ip, lr, pc}	@,
	.pad #4
	.save {r4, r5, r6, r7, r8, r9, sl, fp, ip, lr}
	.setfp fp, ip, #-4
	sub	fp, ip, #4	@,,
	.pad #20
	sub	sp, sp, #20	@,,
	push	{lr}
	bl	__gnu_mcount_nc
	subs	r3, r0, #0	@ pSPS1, pSPS1
	beq	.L802	@,
	cmp	r1, #0	@ pSPS2,
	beq	.L803	@,
	ldr	r6, [r3, #736]	@ <variable>.profile_idc, <variable>.profile_idc
	ldr	ip, [r1, #736]	@ <variable>.profile_idc, <variable>.profile_idc
	ldrb	r5, [r3, #0]	@ zero_extendqisi2	@ <variable>.constrained_set0_flag, <variable>.constrained_set0_flag
	ldrb	r2, [r1, #0]	@ zero_extendqisi2	@ <variable>.constrained_set0_flag, <variable>.constrained_set0_flag
	ldrb	r4, [r3, #1]	@ zero_extendqisi2	@ <variable>.constrained_set1_flag, <variable>.constrained_set1_flag
	cmp	r6, ip	@ <variable>.profile_idc, <variable>.profile_idc
	cmpeq	r5, r2	@, <variable>.constrained_set0_flag, <variable>.constrained_set0_flag
	ldrb	r7, [r1, #1]	@ zero_extendqisi2	@ <variable>.constrained_set1_flag, <variable>.constrained_set1_flag
	ldrb	r6, [r1, #2]	@ zero_extendqisi2	@ <variable>.constrained_set2_flag, <variable>.constrained_set2_flag
	ldrb	r5, [r3, #2]	@ zero_extendqisi2	@ <variable>.constrained_set2_flag, <variable>.constrained_set2_flag
	movne	r0, #0	@, equal.2669
	moveq	r0, #1	@, equal.2669
	cmp	r4, r7	@ <variable>.constrained_set1_flag, <variable>.constrained_set1_flag
	movne	ip, #0	@, equal.2670
	andeq	ip, r0, #1	@,, equal.2670, equal.2669
	ldr	r4, [r3, #740]	@ <variable>.level_idc, <variable>.level_idc
	ldr	r7, [r1, #740]	@ <variable>.level_idc, <variable>.level_idc
	cmp	r5, r6	@ <variable>.constrained_set2_flag, <variable>.constrained_set2_flag
	movne	r2, #0	@, equal.2671
	andeq	r2, ip, #1	@,, equal.2671, equal.2670
	ldr	r6, [r3, #744]	@ <variable>.seq_parameter_set_id, <variable>.seq_parameter_set_id
	cmp	r4, r7	@ <variable>.level_idc, <variable>.level_idc
	movne	r0, #0	@, equal.2672
	andeq	r0, r2, #1	@,, equal.2672, equal.2671
	ldr	ip, [r1, #744]	@ <variable>.seq_parameter_set_id, <variable>.seq_parameter_set_id
	ldrb	r2, [r3, #25]	@ zero_extendqisi2	@ <variable>.seq_scaling_matrix_present_flag, <variable>.seq_scaling_matrix_present_flag
	cmp	r6, ip	@ <variable>.seq_parameter_set_id, <variable>.seq_parameter_set_id
	movne	r6, #0	@, equal
	andeq	r6, r0, #1	@,, equal, equal.2672
	cmp	r2, #0	@ <variable>.seq_scaling_matrix_present_flag,
	beq	.L774	@,
	mov	r9, r3	@ ivtmp.2632, pSPS1
	mov	r8, r1	@ ivtmp.2634, pSPS2
	mov	sl, #0	@ i,
	str	r3, [fp, #-48]	@ pSPS1, %sfp
	str	r1, [fp, #-52]	@ pSPS2, %sfp
	b	.L778	@
.L805:
	ldr	r7, [fp, #-48]	@, %sfp
	mov	r4, sl, asl #6	@ tmp287, i,
	ldr	ip, [r9, #760]	@ tmp231, <variable>.ScalingList4x4
	add	r2, r4, r1	@, tmp287,
	ldr	r5, [r8, #760]	@ tmp232, <variable>.ScalingList4x4
	add	r3, r4, r7	@, tmp287,
	str	r2, [fp, #-60]	@, %sfp
	ldr	r0, [r9, #756]	@ tmp235, <variable>.ScalingList4x4
	str	r3, [fp, #-56]	@, %sfp
	ldr	r1, [r8, #756]	@ tmp236, <variable>.ScalingList4x4
	ldr	r3, [r9, #764]	@ tmp239, <variable>.ScalingList4x4
	cmp	ip, r5	@ tmp231, tmp232
	cmpeq	r0, r1	@, tmp235, tmp236
	ldr	r4, [r8, #764]	@ tmp240, <variable>.ScalingList4x4
	ldr	r7, [r9, #768]	@ tmp243, <variable>.ScalingList4x4
	ldr	r0, [r8, #768]	@ tmp244, <variable>.ScalingList4x4
	movne	r2, #0	@, equal.2689
	moveq	r2, #1	@, equal.2689
	ldr	ip, [r9, #772]	@ tmp247, <variable>.ScalingList4x4
	cmp	r3, r4	@ tmp239, tmp240
	movne	r1, #0	@, equal.2693
	andeq	r1, r2, #1	@,, equal.2693, equal.2689
	ldr	r4, [r8, #772]	@ tmp248, <variable>.ScalingList4x4
	cmp	r7, r0	@ tmp243, tmp244
	movne	r5, #0	@, equal.2697
	andeq	r5, r1, #1	@,, equal.2697, equal.2693
	ldr	r3, [r8, #776]	@ tmp252, <variable>.ScalingList4x4
	ldr	r7, [r9, #776]	@ tmp251, <variable>.ScalingList4x4
	cmp	ip, r4	@ tmp247, tmp248
	movne	r1, #0	@, equal.2701
	andeq	r1, r5, #1	@,, equal.2701, equal.2697
	ldr	r2, [r8, #780]	@ tmp256, <variable>.ScalingList4x4
	ldr	r4, [r9, #780]	@ tmp255, <variable>.ScalingList4x4
	cmp	r7, r3	@ tmp251, tmp252
	movne	r0, #0	@, equal.2705
	andeq	r0, r1, #1	@,, equal.2705, equal.2701
	ldr	r7, [r9, #784]	@ tmp259, <variable>.ScalingList4x4
	ldr	r3, [r8, #784]	@ tmp260, <variable>.ScalingList4x4
	cmp	r4, r2	@ tmp255, tmp256
	movne	ip, #0	@, equal.2709
	andeq	ip, r0, #1	@,, equal.2709, equal.2705
	ldr	r5, [r8, #788]	@ tmp264, <variable>.ScalingList4x4
	ldr	r0, [r9, #788]	@ tmp263, <variable>.ScalingList4x4
	cmp	r7, r3	@ tmp259, tmp260
	movne	r1, #0	@, equal.2713
	andeq	r1, ip, #1	@,, equal.2713, equal.2709
	ldr	r4, [r8, #792]	@ tmp268, <variable>.ScalingList4x4
	ldr	r7, [r9, #792]	@ tmp267, <variable>.ScalingList4x4
	cmp	r0, r5	@ tmp263, tmp264
	movne	ip, #0	@, equal.2717
	andeq	ip, r1, #1	@,, equal.2717, equal.2713
	ldr	r1, [r9, #796]	@ tmp271, <variable>.ScalingList4x4
	ldr	r5, [r8, #796]	@ tmp272, <variable>.ScalingList4x4
	cmp	r7, r4	@ tmp267, tmp268
	movne	r2, #0	@, equal.2721
	andeq	r2, ip, #1	@,, equal.2721, equal.2717
	ldr	r3, [r8, #800]	@ tmp276, <variable>.ScalingList4x4
	ldr	r4, [r9, #800]	@ tmp275, <variable>.ScalingList4x4
	cmp	r1, r5	@ tmp271, tmp272
	movne	r0, #0	@, equal.2725
	andeq	r0, r2, #1	@,, equal.2725, equal.2721
	ldr	ip, [r9, #804]	@ tmp279, <variable>.ScalingList4x4
	ldr	r2, [r8, #804]	@ tmp280, <variable>.ScalingList4x4
	cmp	r4, r3	@ tmp275, tmp276
	movne	r7, #0	@, equal.2729
	andeq	r7, r0, #1	@,, equal.2729, equal.2725
	ldr	r0, [fp, #-60]	@, %sfp
	cmp	ip, r2	@ tmp279, tmp280
	movne	r4, #0	@, equal.2733
	andeq	r4, r7, #1	@,, equal.2733, equal.2729
	ldr	ip, [fp, #-56]	@, %sfp
	ldr	r5, [r8, #808]	@ tmp284, <variable>.ScalingList4x4
	ldr	r1, [r9, #808]	@ tmp283, <variable>.ScalingList4x4
	ldr	r7, [ip, #752]	@ tmp295, <variable>.ScalingList4x4
	cmp	r1, r5	@ tmp283, tmp284
	movne	r4, #0	@, equal.2737
	andeq	r4, r4, #1	@,, equal.2737, equal.2733
	ldr	r3, [r0, #752]	@ tmp296, <variable>.ScalingList4x4
	and	r6, r6, r4	@ equal.2741, equal, equal.2737
	ldr	ip, [r9, #812]	@ tmp299, <variable>.ScalingList4x4
	ldr	r2, [r8, #812]	@ tmp300, <variable>.ScalingList4x4
	cmp	r7, r3	@ tmp295, tmp296
	movne	r5, #0	@, equal.2745
	andeq	r5, r6, #1	@,, equal.2745, equal.2741
	cmp	ip, r2	@ tmp299, tmp300
	movne	r6, #0	@, equal
	andeq	r6, r5, #1	@,, equal, equal.2745
.L775:
	add	sl, sl, #1	@ i, i,
	add	r9, r9, #64	@ ivtmp.2632, ivtmp.2632,
	cmp	sl, #8	@ i,
	add	r8, r8, #64	@ ivtmp.2634, ivtmp.2634,
	beq	.L804	@,
.L778:
	ldr	r1, [fp, #-48]	@, %sfp
	add	r4, r1, sl	@ tmp224,, i
	ldr	r1, [fp, #-52]	@, %sfp
	add	r0, r1, sl	@ tmp225,, i
	ldrb	r3, [r4, #4]	@ zero_extendqisi2	@ D.41791, <variable>.seq_scaling_list_present_flag
	ldrb	r7, [r0, #4]	@ zero_extendqisi2	@ D.41791, <variable>.seq_scaling_list_present_flag
	cmp	r3, r7	@ D.41791, D.41791
	movne	r6, #0	@, equal
	andeq	r6, r6, #1	@,, equal, equal
	cmp	r3, #0	@ D.41791,
	beq	.L775	@,
	cmp	sl, #5	@ i,
	bls	.L805	@,
	ldr	r0, [fp, #-52]	@, %sfp
	mov	r5, sl, asl #8	@ tmp302, i,
	ldr	r4, [fp, #-48]	@, %sfp
	sub	r1, r5, #400	@ tmp303, tmp302,
	ldr	r7, [fp, #-48]	@, %sfp
	add	r3, r0, r1	@ ivtmp.2619,, tmp303
	add	r2, r4, r1	@ ivtmp.2616,, tmp303
	ldr	r5, [r0, r1]	@ tmp308, <variable>.ScalingList8x8
	add	r0, r2, #8	@ ivtmp.2616, ivtmp.2616,
	mov	ip, #2	@ j,
	ldr	r4, [r7, r1]	@ tmp307, <variable>.ScalingList8x8
	add	r1, r3, #8	@ ivtmp.2619, ivtmp.2619,
	ldr	r7, [r2, #4]	@ tmp436, <variable>.ScalingList8x8
	ldr	r3, [r3, #4]	@ tmp437, <variable>.ScalingList8x8
	cmp	r4, r5	@ tmp307, tmp308
	movne	r6, #0	@, equal
	andeq	r6, r6, #1	@,, equal, equal
	cmp	r7, r3	@ tmp436, tmp437
	movne	r6, #0	@, equal
	andeq	r6, r6, #1	@,, equal, equal
.L777:
	mov	r2, r0	@ tmp403, ivtmp.2616
	mov	r3, r1	@ tmp404, ivtmp.2619
	ldr	r7, [r2], #4	@ tmp408, <variable>.ScalingList8x8
	add	ip, ip, #2	@ j, j,
	ldr	r5, [r3], #4	@ tmp409, <variable>.ScalingList8x8
	ldr	r4, [r0, #4]	@ tmp415, <variable>.ScalingList8x8
	add	r0, r2, #4	@ ivtmp.2616, tmp403,
	ldr	r2, [r1, #4]	@ tmp416, <variable>.ScalingList8x8
	cmp	r7, r5	@ tmp408, tmp409
	movne	r6, #0	@, equal
	andeq	r6, r6, #1	@,, equal, equal
	add	r1, r3, #4	@ ivtmp.2619, tmp404,
	cmp	r4, r2	@ tmp415, tmp416
	movne	r6, #0	@, equal
	andeq	r6, r6, #1	@,, equal, equal
	cmp	ip, #64	@ j,
	bne	.L777	@,
	add	sl, sl, #1	@ i, i,
	add	r9, r9, #64	@ ivtmp.2632, ivtmp.2632,
	cmp	sl, #8	@ i,
	add	r8, r8, #64	@ ivtmp.2634, ivtmp.2634,
	bne	.L778	@,
.L804:
	ldr	r3, [fp, #-48]	@ pSPS1, %sfp
	ldr	r1, [fp, #-52]	@ pSPS2, %sfp
.L774:
	ldr	r2, [r3, #2900]	@ D.41810, <variable>.pic_order_cnt_type
	ldr	r4, [r1, #2900]	@ <variable>.pic_order_cnt_type, <variable>.pic_order_cnt_type
	ldr	r0, [r3, #2896]	@ <variable>.log2_max_frame_num_minus4, <variable>.log2_max_frame_num_minus4
	ldr	r5, [r1, #2896]	@ <variable>.log2_max_frame_num_minus4, <variable>.log2_max_frame_num_minus4
	cmp	r2, r4	@ D.41810, <variable>.pic_order_cnt_type
	cmpeq	r0, r5	@, <variable>.log2_max_frame_num_minus4, <variable>.log2_max_frame_num_minus4
	movne	ip, #0	@, equal.2673
	moveq	ip, #1	@, equal.2673
	cmp	r2, #0	@ D.41810,
	and	r6, ip, r6	@ equal.2664, equal.2673, equal
	bne	.L806	@,
	ldr	r7, [r3, #2904]	@ <variable>.log2_max_pic_order_cnt_lsb_minus4, <variable>.log2_max_pic_order_cnt_lsb_minus4
	ldr	r2, [r1, #2904]	@ <variable>.log2_max_pic_order_cnt_lsb_minus4, <variable>.log2_max_pic_order_cnt_lsb_minus4
	cmp	r7, r2	@ <variable>.log2_max_pic_order_cnt_lsb_minus4, <variable>.log2_max_pic_order_cnt_lsb_minus4
	movne	r6, #0	@, equal.2664
	andeq	r6, r6, #1	@,, equal.2664, equal.2664
.L779:
	ldrb	r2, [r1, #17]	@ zero_extendqisi2	@ <variable>.gaps_in_frame_num_value_allowed_flag, <variable>.gaps_in_frame_num_value_allowed_flag
	ldr	r5, [r3, #3944]	@ <variable>.num_ref_frames, <variable>.num_ref_frames
	ldr	r0, [r1, #3944]	@ <variable>.num_ref_frames, <variable>.num_ref_frames
	ldrb	r7, [r3, #17]	@ zero_extendqisi2	@ <variable>.gaps_in_frame_num_value_allowed_flag, <variable>.gaps_in_frame_num_value_allowed_flag
	ldr	ip, [r1, #3948]	@ <variable>.pic_width_in_mbs_minus1, <variable>.pic_width_in_mbs_minus1
	cmp	r7, r2	@ <variable>.gaps_in_frame_num_value_allowed_flag, <variable>.gaps_in_frame_num_value_allowed_flag
	cmpeq	r5, r0	@, <variable>.num_ref_frames, <variable>.num_ref_frames
	ldr	r4, [r3, #3948]	@ <variable>.pic_width_in_mbs_minus1, <variable>.pic_width_in_mbs_minus1
	ldr	r5, [r3, #3952]	@ <variable>.pic_height_in_map_units_minus1, <variable>.pic_height_in_map_units_minus1
	ldr	r0, [r1, #3952]	@ <variable>.pic_height_in_map_units_minus1, <variable>.pic_height_in_map_units_minus1
	movne	r2, #0	@, equal.2677
	moveq	r2, #1	@, equal.2677
	cmp	r4, ip	@ <variable>.pic_width_in_mbs_minus1, <variable>.pic_width_in_mbs_minus1
	movne	r4, #0	@, equal.2678
	andeq	r4, r2, #1	@,, equal.2678, equal.2677
	ldrb	r2, [r3, #18]	@ zero_extendqisi2	@ D.41843, <variable>.frame_mbs_only_flag
	ldrb	ip, [r1, #18]	@ zero_extendqisi2	@ <variable>.frame_mbs_only_flag, <variable>.frame_mbs_only_flag
	cmp	r5, r0	@ <variable>.pic_height_in_map_units_minus1, <variable>.pic_height_in_map_units_minus1
	movne	r0, #0	@, equal.2679
	andeq	r0, r4, #1	@,, equal.2679, equal.2678
	cmp	ip, r2	@ <variable>.frame_mbs_only_flag, D.41843
	movne	r0, #0	@, equal.2680
	andeq	r0, r0, #1	@,, equal.2680, equal.2679
	cmp	r2, #0	@ D.41843,
	and	r6, r0, r6	@ equal.2665, equal.2680, equal.2664
	bne	.L783	@,
	ldrb	r4, [r3, #19]	@ zero_extendqisi2	@ <variable>.mb_adaptive_frame_field_flag, <variable>.mb_adaptive_frame_field_flag
	ldrb	ip, [r1, #19]	@ zero_extendqisi2	@ <variable>.mb_adaptive_frame_field_flag, <variable>.mb_adaptive_frame_field_flag
	cmp	r4, ip	@ <variable>.mb_adaptive_frame_field_flag, <variable>.mb_adaptive_frame_field_flag
	movne	r6, #0	@, equal.2665
	andeq	r6, r6, #1	@,, equal.2665, equal.2665
.L783:
	ldrb	r2, [r3, #21]	@ zero_extendqisi2	@ D.41854, <variable>.frame_cropping_flag
	ldrb	r0, [r3, #20]	@ zero_extendqisi2	@ <variable>.direct_8x8_inference_flag, <variable>.direct_8x8_inference_flag
	ldrb	r4, [r1, #21]	@ zero_extendqisi2	@ <variable>.frame_cropping_flag, <variable>.frame_cropping_flag
	ldrb	ip, [r1, #20]	@ zero_extendqisi2	@ <variable>.direct_8x8_inference_flag, <variable>.direct_8x8_inference_flag
	cmp	r4, r2	@ <variable>.frame_cropping_flag, D.41854
	cmpeq	r0, ip	@, <variable>.direct_8x8_inference_flag, <variable>.direct_8x8_inference_flag
	movne	r0, #0	@, equal.2681
	moveq	r0, #1	@, equal.2681
	cmp	r2, #0	@ D.41854,
	and	r2, r0, r6	@ equal.2666, equal.2681, equal.2665
	beq	.L784	@,
	ldr	r5, [r1, #3960]	@ <variable>.frame_crop_right_offset, <variable>.frame_crop_right_offset
	ldr	r4, [r3, #3956]	@ <variable>.frame_crop_left_offset, <variable>.frame_crop_left_offset
	ldr	r0, [r1, #3956]	@ <variable>.frame_crop_left_offset, <variable>.frame_crop_left_offset
	ldr	r7, [r3, #3960]	@ <variable>.frame_crop_right_offset, <variable>.frame_crop_right_offset
	ldr	r6, [r3, #3964]	@ <variable>.frame_crop_top_offset, <variable>.frame_crop_top_offset
	cmp	r7, r5	@ <variable>.frame_crop_right_offset, <variable>.frame_crop_right_offset
	cmpeq	r4, r0	@, <variable>.frame_crop_left_offset, <variable>.frame_crop_left_offset
	ldr	ip, [r1, #3964]	@ <variable>.frame_crop_top_offset, <variable>.frame_crop_top_offset
	ldr	r4, [r3, #3968]	@ <variable>.frame_crop_bottom_offset, <variable>.frame_crop_bottom_offset
	ldr	r0, [r1, #3968]	@ <variable>.frame_crop_bottom_offset, <variable>.frame_crop_bottom_offset
	movne	r5, #0	@, equal.2682
	moveq	r5, #1	@, equal.2682
	cmp	r6, ip	@ <variable>.frame_crop_top_offset, <variable>.frame_crop_top_offset
	movne	ip, #0	@, equal.2683
	andeq	ip, r5, #1	@,, equal.2683, equal.2682
	cmp	r4, r0	@ <variable>.frame_crop_bottom_offset, <variable>.frame_crop_bottom_offset
	movne	r0, #0	@, equal.2684
	andeq	r0, ip, #1	@,, equal.2684, equal.2683
	and	r2, r2, r0	@ equal.2666, equal.2666, equal.2684
.L784:
	ldrb	ip, [r3, #22]	@ zero_extendqisi2	@ <variable>.vui_parameters_present_flag, <variable>.vui_parameters_present_flag
	ldrb	r3, [r1, #22]	@ zero_extendqisi2	@ <variable>.vui_parameters_present_flag, <variable>.vui_parameters_present_flag
	cmp	ip, r3	@ <variable>.vui_parameters_present_flag, <variable>.vui_parameters_present_flag
	movne	r2, #0	@, tmp392
	andeq	r2, r2, #1	@,, tmp392, equal.2666
	cmp	r2, #0	@ tmp392,
	movne	r0, #0	@, ret,
	mvneq	r0, #0	@, ret,
.L772:
	sub	sp, fp, #40
	ldmfd	sp, {r4, r5, r6, r7, r8, r9, sl, fp, sp, pc}
.L806:
	cmp	r2, #1	@ D.41810,
	bne	.L779	@,
	ldr	r7, [r3, #2908]	@ <variable>.offset_for_non_ref_pic, <variable>.offset_for_non_ref_pic
	ldr	ip, [r1, #2908]	@ <variable>.offset_for_non_ref_pic, <variable>.offset_for_non_ref_pic
	ldrb	r5, [r3, #16]	@ zero_extendqisi2	@ <variable>.delta_pic_order_always_zero_flag, <variable>.delta_pic_order_always_zero_flag
	ldrb	r0, [r1, #16]	@ zero_extendqisi2	@ <variable>.delta_pic_order_always_zero_flag, <variable>.delta_pic_order_always_zero_flag
	ldr	r4, [r3, #2912]	@ <variable>.offset_for_top_to_bottom_field, <variable>.offset_for_top_to_bottom_field
	cmp	r7, ip	@ <variable>.offset_for_non_ref_pic, <variable>.offset_for_non_ref_pic
	cmpeq	r5, r0	@, <variable>.delta_pic_order_always_zero_flag, <variable>.delta_pic_order_always_zero_flag
	ldr	r2, [r1, #2912]	@ <variable>.offset_for_top_to_bottom_field, <variable>.offset_for_top_to_bottom_field
	ldr	r7, [r3, #2916]	@ D.41825, <variable>.num_ref_frames_in_pic_order_cnt_cycle
	ldr	r0, [r1, #2916]	@ <variable>.num_ref_frames_in_pic_order_cnt_cycle, <variable>.num_ref_frames_in_pic_order_cnt_cycle
	movne	ip, #0	@, equal.2674
	moveq	ip, #1	@, equal.2674
	cmp	r4, r2	@ <variable>.offset_for_top_to_bottom_field, <variable>.offset_for_top_to_bottom_field
	movne	r5, #0	@, equal.2675
	andeq	r5, ip, #1	@,, equal.2675, equal.2674
	cmp	r7, r0	@ D.41825, <variable>.num_ref_frames_in_pic_order_cnt_cycle
	movne	r5, #0	@, equal.2676
	andeq	r5, r5, #1	@,, equal.2676, equal.2675
	cmp	r7, #0	@ D.41825,
	and	r6, r6, r5	@ equal.2664, equal.2664, equal.2676
	beq	.L779	@,
	ldr	r4, [r3, #2920]	@ tmp339, <variable>.offset_for_ref_frame
	mov	r7, r7, asl #2	@ D.45878, D.41825,
	ldr	r5, [r1, #2920]	@ tmp340, <variable>.offset_for_ref_frame
	mov	r2, #4	@ ivtmp.2607,
	sub	r0, r7, #4	@ tmp397, D.45878,
	cmp	r4, r5	@ tmp339, tmp340
	movne	r6, #0	@, equal.2664
	andeq	r6, r6, #1	@,, equal.2664, equal.2664
	cmp	r2, r7	@ ivtmp.2607, D.45878
	ubfx	r0, r0, #2, #1	@ tmp398, tmp397,,
	beq	.L779	@,
	cmp	r0, #0	@ tmp398,
	beq	.L782	@,
	ldr	r4, [r3, #2924]	@ tmp433, <variable>.offset_for_ref_frame
	mov	r2, #8	@ ivtmp.2607,
	ldr	r0, [r1, #2924]	@ tmp434, <variable>.offset_for_ref_frame
	cmp	r4, r0	@ tmp433, tmp434
	movne	r6, #0	@, equal.2664
	andeq	r6, r6, #1	@,, equal.2664, equal.2664
	cmp	r2, r7	@ ivtmp.2607, D.45878
	beq	.L779	@,
.L782:
	add	r0, r2, #4	@ tmp399, ivtmp.2607,
	add	r4, r3, r2	@ tmp419, pSPS1, ivtmp.2607
	add	r2, r1, r2	@ tmp420, pSPS2, ivtmp.2607
	add	ip, r3, r0	@ tmp426, pSPS1, tmp399
	add	r8, r1, r0	@ tmp427, pSPS2, tmp399
	ldr	r5, [r4, #2920]	@ tmp421, <variable>.offset_for_ref_frame
	ldr	r4, [r2, #2920]	@ tmp422, <variable>.offset_for_ref_frame
	add	r2, r0, #4	@ ivtmp.2607, tmp399,
	ldr	ip, [ip, #2920]	@ tmp428, <variable>.offset_for_ref_frame
	ldr	r0, [r8, #2920]	@ tmp429, <variable>.offset_for_ref_frame
	cmp	r5, r4	@ tmp421, tmp422
	movne	r6, #0	@, equal.2664
	andeq	r6, r6, #1	@,, equal.2664, equal.2664
	cmp	ip, r0	@ tmp428, tmp429
	movne	r6, #0	@, equal.2664
	andeq	r6, r6, #1	@,, equal.2664, equal.2664
	cmp	r2, r7	@ ivtmp.2607, D.45878
	bne	.L782	@,
	b	.L779	@
.L803:
	mov	r0, r1	@, pSPS2
	movw	r2, #:lower16:.LC2	@,
	movw	r1, #:lower16:.LC1	@,
	movt	r2, #:upper16:.LC2	@,
	movt	r1, #:upper16:.LC1	@,
	movw	r3, #8542	@,
	bl	dprint_vfmw	@
	mvn	r0, #0	@ ret,
	b	.L772	@
.L802:
	movw	r1, #:lower16:.LC1	@,
	movw	r2, #:lower16:.LC2	@,
	movt	r1, #:upper16:.LC1	@,
	movt	r2, #:upper16:.LC2	@,
	movw	r3, #8541	@,
	bl	dprint_vfmw	@
	mvn	r0, #0	@ ret,
	b	.L772	@
	.fnend
	.size	SPSEqual, .-SPSEqual
	.align	2
	.global	PPSEqual
	.type	PPSEqual, %function
PPSEqual:
	.fnstart
.LFB1460:
	@ args = 0, pretend = 0, frame = 16
	@ frame_needed = 1, uses_anonymous_args = 0
	.movsp ip
	mov	ip, sp	@,
	stmfd	sp!, {r4, r5, r6, r7, r8, r9, sl, fp, ip, lr, pc}	@,
	.pad #4
	.save {r4, r5, r6, r7, r8, r9, sl, fp, ip, lr}
	.setfp fp, ip, #-4
	sub	fp, ip, #4	@,,
	.pad #20
	sub	sp, sp, #20	@,,
	push	{lr}
	bl	__gnu_mcount_nc
	subs	r2, r0, #0	@, pPPS1
	str	r2, [fp, #-48]	@, %sfp
	beq	.L828	@,
	cmp	r1, #0	@ pPPS2,
	beq	.L829	@,
	ldr	r7, [fp, #-48]	@, %sfp
	ldr	r3, [r1, #24]	@ <variable>.pic_parameter_set_id, <variable>.pic_parameter_set_id
	ldr	r2, [r1, #28]	@ <variable>.seq_parameter_set_id, <variable>.seq_parameter_set_id
	ldr	r5, [r7, #24]	@ <variable>.pic_parameter_set_id, <variable>.pic_parameter_set_id
	ldr	r7, [fp, #-48]	@, %sfp
	ldrb	ip, [r1, #0]	@ zero_extendqisi2	@ <variable>.entropy_coding_mode_flag, <variable>.entropy_coding_mode_flag
	ldr	r4, [r7, #28]	@ <variable>.seq_parameter_set_id, <variable>.seq_parameter_set_id
	ldrb	r0, [r7, #0]	@ zero_extendqisi2	@ <variable>.entropy_coding_mode_flag, <variable>.entropy_coding_mode_flag
	cmp	r5, r3	@ <variable>.pic_parameter_set_id, <variable>.pic_parameter_set_id
	cmpeq	r4, r2	@, <variable>.seq_parameter_set_id, <variable>.seq_parameter_set_id
	ldrb	r5, [r7, #1]	@ zero_extendqisi2	@ <variable>.pic_order_present_flag, <variable>.pic_order_present_flag
	ldrb	r4, [r1, #1]	@ zero_extendqisi2	@ <variable>.pic_order_present_flag, <variable>.pic_order_present_flag
	movne	r3, #0	@, equal.2829
	moveq	r3, #1	@, equal.2829
	cmp	r0, ip	@ <variable>.entropy_coding_mode_flag, <variable>.entropy_coding_mode_flag
	movne	r0, #0	@, equal.2830
	andeq	r0, r3, #1	@,, equal.2830, equal.2829
	ldr	ip, [r1, #36]	@ <variable>.num_ref_idx_l0_active_minus1, <variable>.num_ref_idx_l0_active_minus1
	cmp	r5, r4	@ <variable>.pic_order_present_flag, <variable>.pic_order_present_flag
	movne	r2, #0	@, equal.2831
	andeq	r2, r0, #1	@,, equal.2831, equal.2830
	ldr	r3, [r7, #36]	@ <variable>.num_ref_idx_l0_active_minus1, <variable>.num_ref_idx_l0_active_minus1
	ldr	r5, [r7, #40]	@ <variable>.num_ref_idx_l1_active_minus1, <variable>.num_ref_idx_l1_active_minus1
	ldr	r4, [r1, #40]	@ <variable>.num_ref_idx_l1_active_minus1, <variable>.num_ref_idx_l1_active_minus1
	cmp	r3, ip	@ <variable>.num_ref_idx_l0_active_minus1, <variable>.num_ref_idx_l0_active_minus1
	movne	r3, #0	@, equal.2832
	andeq	r3, r2, #1	@,, equal.2832, equal.2831
	ldrb	ip, [r1, #2]	@ zero_extendqisi2	@ <variable>.weighted_pred_flag, <variable>.weighted_pred_flag
	ldrb	r2, [r7, #2]	@ zero_extendqisi2	@ <variable>.weighted_pred_flag, <variable>.weighted_pred_flag
	cmp	r5, r4	@ <variable>.num_ref_idx_l1_active_minus1, <variable>.num_ref_idx_l1_active_minus1
	movne	r0, #0	@, equal.2833
	andeq	r0, r3, #1	@,, equal.2833, equal.2832
	ldr	r5, [r7, #44]	@ <variable>.weighted_bipred_idc, <variable>.weighted_bipred_idc
	ldr	r4, [r1, #44]	@ <variable>.weighted_bipred_idc, <variable>.weighted_bipred_idc
	cmp	r2, ip	@ <variable>.weighted_pred_flag, <variable>.weighted_pred_flag
	movne	r2, #0	@, equal.2834
	andeq	r2, r0, #1	@,, equal.2834, equal.2833
	ldr	ip, [r1, #48]	@ <variable>.pic_init_qp_minus26, <variable>.pic_init_qp_minus26
	ldr	r0, [r7, #48]	@ <variable>.pic_init_qp_minus26, <variable>.pic_init_qp_minus26
	cmp	r5, r4	@ <variable>.weighted_bipred_idc, <variable>.weighted_bipred_idc
	movne	r3, #0	@, equal.2835
	andeq	r3, r2, #1	@,, equal.2835, equal.2834
	ldr	r5, [r7, #52]	@ <variable>.chroma_qp_index_offset, <variable>.chroma_qp_index_offset
	ldr	r4, [r1, #52]	@ <variable>.chroma_qp_index_offset, <variable>.chroma_qp_index_offset
	cmp	r0, ip	@ <variable>.pic_init_qp_minus26, <variable>.pic_init_qp_minus26
	movne	r0, #0	@, equal.2836
	andeq	r0, r3, #1	@,, equal.2836, equal.2835
	ldrb	ip, [r1, #3]	@ zero_extendqisi2	@ <variable>.deblocking_filter_control_present_flag, <variable>.deblocking_filter_control_present_flag
	ldrb	r3, [r7, #3]	@ zero_extendqisi2	@ <variable>.deblocking_filter_control_present_flag, <variable>.deblocking_filter_control_present_flag
	cmp	r5, r4	@ <variable>.chroma_qp_index_offset, <variable>.chroma_qp_index_offset
	movne	r2, #0	@, equal.2837
	andeq	r2, r0, #1	@,, equal.2837, equal.2836
	ldrb	r5, [r7, #4]	@ zero_extendqisi2	@ <variable>.constrained_intra_pred_flag, <variable>.constrained_intra_pred_flag
	ldrb	r4, [r1, #4]	@ zero_extendqisi2	@ <variable>.constrained_intra_pred_flag, <variable>.constrained_intra_pred_flag
	cmp	r3, ip	@ <variable>.deblocking_filter_control_present_flag, <variable>.deblocking_filter_control_present_flag
	movne	r3, #0	@, equal.2838
	andeq	r3, r2, #1	@,, equal.2838, equal.2837
	ldr	r2, [r7, #60]	@ D.41540, <variable>.transform_8x8_mode_flag
	ldr	ip, [r1, #60]	@ <variable>.transform_8x8_mode_flag, <variable>.transform_8x8_mode_flag
	cmp	r5, r4	@ <variable>.constrained_intra_pred_flag, <variable>.constrained_intra_pred_flag
	movne	r0, #0	@, equal.2839
	andeq	r0, r3, #1	@,, equal.2839, equal.2838
	ldrb	r3, [r7, #18]	@ zero_extendqisi2	@ D.41543, <variable>.pic_scaling_matrix_present_flag
	ldrb	r5, [r1, #18]	@ zero_extendqisi2	@ <variable>.pic_scaling_matrix_present_flag, <variable>.pic_scaling_matrix_present_flag
	cmp	r2, ip	@ D.41540, <variable>.transform_8x8_mode_flag
	movne	r0, #0	@, equal.2840
	andeq	r0, r0, #1	@,, equal.2840, equal.2839
	cmp	r5, r3	@ <variable>.pic_scaling_matrix_present_flag, D.41543
	movne	r5, #0	@, equal
	andeq	r5, r0, #1	@,, equal, equal.2840
	cmp	r3, #0	@ D.41543,
	beq	.L811	@,
	mov	ip, r2, asl #1	@ tmp237, D.41540,
	adds	r0, ip, #6	@, tmp237,
	str	r0, [fp, #-56]	@, %sfp
	beq	.L811	@,
	mov	sl, r7	@ ivtmp.2795,
	mov	r9, r1	@ ivtmp.2797, pPPS2
	mov	r8, #0	@ i,
	str	r1, [fp, #-52]	@ pPPS2, %sfp
	b	.L815	@
.L826:
	cmp	r8, #5	@ i,
	bhi	.L813	@,
	ldr	r6, [sl, #72]	@ tmp245, <variable>.ScalingList4x4
	add	r8, r8, #1	@ i, i,
	ldr	ip, [r9, #72]	@ tmp246, <variable>.ScalingList4x4
	ldr	r0, [sl, #68]	@ tmp249, <variable>.ScalingList4x4
	ldr	r1, [r9, #68]	@ tmp250, <variable>.ScalingList4x4
	ldr	r2, [sl, #76]	@ tmp253, <variable>.ScalingList4x4
	cmp	r6, ip	@ tmp245, tmp246
	cmpeq	r0, r1	@, tmp249, tmp250
	ldr	r3, [r9, #76]	@ tmp254, <variable>.ScalingList4x4
	ldr	r7, [sl, #80]	@ tmp257, <variable>.ScalingList4x4
	ldr	r6, [r9, #80]	@ tmp258, <variable>.ScalingList4x4
	movne	r4, #0	@, equal.2845
	moveq	r4, #1	@, equal.2845
	ldr	r0, [sl, #84]	@ tmp261, <variable>.ScalingList4x4
	cmp	r2, r3	@ tmp253, tmp254
	movne	ip, #0	@, equal.2849
	andeq	ip, r4, #1	@,, equal.2849, equal.2845
	ldr	r2, [r9, #84]	@ tmp262, <variable>.ScalingList4x4
	cmp	r7, r6	@ tmp257, tmp258
	movne	r6, #0	@, equal.2853
	andeq	r6, ip, #1	@,, equal.2853, equal.2849
	ldr	r4, [sl, #88]	@ tmp265, <variable>.ScalingList4x4
	ldr	r3, [r9, #88]	@ tmp266, <variable>.ScalingList4x4
	cmp	r0, r2	@ tmp261, tmp262
	movne	r1, #0	@, equal.2857
	andeq	r1, r6, #1	@,, equal.2857, equal.2853
	ldr	r7, [sl, #92]	@ tmp269, <variable>.ScalingList4x4
	ldr	r2, [r9, #92]	@ tmp270, <variable>.ScalingList4x4
	cmp	r4, r3	@ tmp265, tmp266
	movne	ip, #0	@, equal.2861
	andeq	ip, r1, #1	@,, equal.2861, equal.2857
	ldr	r0, [sl, #96]	@ tmp273, <variable>.ScalingList4x4
	ldr	r3, [r9, #96]	@ tmp274, <variable>.ScalingList4x4
	cmp	r7, r2	@ tmp269, tmp270
	movne	r4, #0	@, equal.2865
	andeq	r4, ip, #1	@,, equal.2865, equal.2861
	ldr	r7, [sl, #100]	@ tmp277, <variable>.ScalingList4x4
	ldr	r2, [r9, #100]	@ tmp278, <variable>.ScalingList4x4
	cmp	r0, r3	@ tmp273, tmp274
	movne	r1, #0	@, equal.2869
	andeq	r1, r4, #1	@,, equal.2869, equal.2865
	ldr	ip, [sl, #104]	@ tmp281, <variable>.ScalingList4x4
	ldr	r3, [r9, #104]	@ tmp282, <variable>.ScalingList4x4
	cmp	r7, r2	@ tmp277, tmp278
	movne	r0, #0	@, equal.2873
	andeq	r0, r1, #1	@,, equal.2873, equal.2869
	ldr	r4, [sl, #108]	@ tmp285, <variable>.ScalingList4x4
	ldr	r2, [r9, #108]	@ tmp286, <variable>.ScalingList4x4
	cmp	ip, r3	@ tmp281, tmp282
	movne	r7, #0	@, equal.2877
	andeq	r7, r0, #1	@,, equal.2877, equal.2873
	ldr	r0, [sl, #112]	@ tmp289, <variable>.ScalingList4x4
	ldr	r3, [r9, #112]	@ tmp290, <variable>.ScalingList4x4
	cmp	r4, r2	@ tmp285, tmp286
	movne	r1, #0	@, equal.2881
	andeq	r1, r7, #1	@,, equal.2881, equal.2877
	ldr	ip, [sl, #116]	@ tmp293, <variable>.ScalingList4x4
	ldr	r4, [r9, #116]	@ tmp294, <variable>.ScalingList4x4
	cmp	r0, r3	@ tmp289, tmp290
	movne	r7, #0	@, equal.2885
	andeq	r7, r1, #1	@,, equal.2885, equal.2881
	ldr	r1, [sl, #120]	@ tmp297, <variable>.ScalingList4x4
	ldr	r3, [r9, #120]	@ tmp298, <variable>.ScalingList4x4
	cmp	ip, r4	@ tmp293, tmp294
	movne	r2, #0	@, equal.2889
	andeq	r2, r7, #1	@,, equal.2889, equal.2885
	ldr	r7, [fp, #-48]	@, %sfp
	cmp	r1, r3	@ tmp297, tmp298
	movne	r3, #0	@, equal.2893
	andeq	r3, r2, #1	@,, equal.2893, equal.2889
	ldr	r1, [fp, #-52]	@, %sfp
	ldr	ip, [sl, #124]	@ tmp307, <variable>.ScalingList4x4
	and	r3, r5, r3	@ equal.2897, equal, equal.2893
	ldr	r4, [r7, r8, asl #6]	@ tmp303, <variable>.ScalingList4x4
	add	sl, sl, #64	@ ivtmp.2795, ivtmp.2795,
	ldr	r0, [r1, r8, asl #6]	@ tmp304, <variable>.ScalingList4x4
	ldr	r2, [r9, #124]	@ tmp308, <variable>.ScalingList4x4
	add	r9, r9, #64	@ ivtmp.2797, ivtmp.2797,
	cmp	r4, r0	@ tmp303, tmp304
	movne	r3, #0	@, equal.2901
	andeq	r3, r3, #1	@,, equal.2901, equal.2897
	cmp	ip, r2	@ tmp307, tmp308
	movne	r5, #0	@, equal
	andeq	r5, r3, #1	@,, equal, equal.2901
	ldr	ip, [fp, #-56]	@, %sfp
	cmp	ip, r8	@, i
	bls	.L830	@,
.L815:
	ldr	r1, [fp, #-48]	@, %sfp
	ldr	r0, [fp, #-52]	@, %sfp
	add	r3, r1, r8	@ tmp238,, i
	add	ip, r0, r8	@ tmp239,, i
	ldrb	r1, [r3, #5]	@ zero_extendqisi2	@ D.41549, <variable>.pic_scaling_list_present_flag
	ldrb	r2, [ip, #5]	@ zero_extendqisi2	@ D.41549, <variable>.pic_scaling_list_present_flag
	cmp	r1, r2	@ D.41549, D.41549
	movne	r5, #0	@, equal
	andeq	r5, r5, #1	@,, equal, equal
	cmp	r1, #0	@ D.41549,
	bne	.L826	@,
	add	r8, r8, #1	@ i, i,
.L831:
	ldr	ip, [fp, #-56]	@, %sfp
	add	sl, sl, #64	@ ivtmp.2795, ivtmp.2795,
	add	r9, r9, #64	@ ivtmp.2797, ivtmp.2797,
	cmp	ip, r8	@, i
	bhi	.L815	@,
.L830:
	ldr	r1, [fp, #-52]	@ pPPS2, %sfp
.L811:
	ldr	r3, [fp, #-48]	@, %sfp
	ldr	r0, [r1, #56]	@ <variable>.second_chroma_qp_index_offset, <variable>.second_chroma_qp_index_offset
	ldr	r2, [r3, #56]	@ <variable>.second_chroma_qp_index_offset, <variable>.second_chroma_qp_index_offset
	cmp	r2, r0	@ <variable>.second_chroma_qp_index_offset, <variable>.second_chroma_qp_index_offset
	movne	r5, #0	@, tmp322
	andeq	r5, r5, #1	@,, tmp322, equal
	cmp	r5, #0	@ tmp322,
	movne	r0, #0	@, ret,
	mvneq	r0, #0	@, ret,
.L809:
	sub	sp, fp, #40
	ldmfd	sp, {r4, r5, r6, r7, r8, r9, sl, fp, sp, pc}
.L813:
	ldr	r0, [fp, #-52]	@, %sfp
	mov	r6, r8, asl #8	@ tmp310, i,
	ldr	r4, [fp, #-48]	@, %sfp
	sub	r1, r6, #1088	@ tmp311, tmp310,
	ldr	r7, [fp, #-48]	@, %sfp
	add	r3, r0, r1	@ ivtmp.2785,, tmp311
	add	r2, r4, r1	@ ivtmp.2782,, tmp311
	ldr	r6, [r0, r1]	@ tmp316, <variable>.ScalingList8x8
	add	r0, r2, #8	@ ivtmp.2782, ivtmp.2782,
	mov	ip, #2	@ j,
	ldr	r4, [r7, r1]	@ tmp315, <variable>.ScalingList8x8
	add	r1, r3, #8	@ ivtmp.2785, ivtmp.2785,
	ldr	r7, [r2, #4]	@ tmp344, <variable>.ScalingList8x8
	ldr	r3, [r3, #4]	@ tmp345, <variable>.ScalingList8x8
	cmp	r4, r6	@ tmp315, tmp316
	movne	r5, #0	@, equal
	andeq	r5, r5, #1	@,, equal, equal
	cmp	r7, r3	@ tmp344, tmp345
	movne	r5, #0	@, equal
	andeq	r5, r5, #1	@,, equal, equal
.L814:
	mov	r2, r0	@ tmp329, ivtmp.2782
	mov	r3, r1	@ tmp330, ivtmp.2785
	ldr	r7, [r2], #4	@ tmp334, <variable>.ScalingList8x8
	add	ip, ip, #2	@ j, j,
	ldr	r6, [r3], #4	@ tmp335, <variable>.ScalingList8x8
	ldr	r4, [r0, #4]	@ tmp341, <variable>.ScalingList8x8
	add	r0, r2, #4	@ ivtmp.2782, tmp329,
	ldr	r2, [r1, #4]	@ tmp342, <variable>.ScalingList8x8
	cmp	r7, r6	@ tmp334, tmp335
	movne	r5, #0	@, equal
	andeq	r5, r5, #1	@,, equal, equal
	add	r1, r3, #4	@ ivtmp.2785, tmp330,
	cmp	r4, r2	@ tmp341, tmp342
	movne	r5, #0	@, equal
	andeq	r5, r5, #1	@,, equal, equal
	cmp	ip, #64	@ j,
	bne	.L814	@,
	add	r8, r8, #1	@ i, i,
	b	.L831	@
.L829:
	mov	r0, r1	@, pPPS2
	movw	r2, #:lower16:.LC2	@,
	movw	r1, #:lower16:.LC1	@,
	movt	r2, #:upper16:.LC2	@,
	movt	r1, #:upper16:.LC1	@,
	movw	r3, #8332	@,
	bl	dprint_vfmw	@
	mvn	r0, #0	@ ret,
	b	.L809	@
.L828:
	movw	r1, #:lower16:.LC1	@,
	movw	r2, #:lower16:.LC2	@,
	movt	r1, #:upper16:.LC1	@,
	movt	r2, #:upper16:.LC2	@,
	movw	r3, #8331	@,
	bl	dprint_vfmw	@
	mvn	r0, #0	@ ret,
	b	.L809	@
	.fnend
	.size	PPSEqual, .-PPSEqual
	.align	2
	.global	CalcStreamBits
	.type	CalcStreamBits, %function
CalcStreamBits:
	.fnstart
.LFB1455:
	@ args = 0, pretend = 0, frame = 0
	@ frame_needed = 1, uses_anonymous_args = 0
	.movsp ip
	mov	ip, sp	@,
	stmfd	sp!, {r4, r5, r6, r7, fp, ip, lr, pc}	@,
	.pad #4
	.save {r4, r5, r6, r7, fp, ip, lr}
	.setfp fp, ip, #-4
	sub	fp, ip, #4	@,,
	.pad #8
	sub	sp, sp, #8	@,,
	push	{lr}
	bl	__gnu_mcount_nc
	mov	r4, r0	@ pH264Ctx, pH264Ctx
	movw	r0, #17580	@ tmp169,
	ldrb	r3, [r4, r0]	@ zero_extendqisi2	@ <variable>.CurrPPS.entropy_coding_mode_flag, <variable>.CurrPPS.entropy_coding_mode_flag
	cmp	r3, #0	@ <variable>.CurrPPS.entropy_coding_mode_flag,
	beq	.L833	@,
	ldr	lr, [r4, #368]	@ D.41029, <variable>.pCurrNal
	ldr	r0, [lr, #64]	@ <variable>.nal_bitoffset, <variable>.nal_bitoffset
	add	r3, r0, #7	@ tmp171, <variable>.nal_bitoffset,
	bic	ip, r3, #7	@ tmp173, tmp171,
	str	ip, [lr, #64]	@ tmp173, <variable>.nal_bitoffset
	ldr	r1, [r4, #368]	@ temp.2947, <variable>.pCurrNal
	ldr	r5, [r1, #72]	@ <variable>.nal_trail_zero_bit_num, <variable>.nal_trail_zero_bit_num
	sub	r2, r5, #1	@ tmp175, <variable>.nal_trail_zero_bit_num,
	str	r2, [r1, #72]	@ tmp175, <variable>.nal_trail_zero_bit_num
.L833:
	ldr	ip, [r4, #368]	@ temp.2993, <variable>.pCurrNal
	ldrb	r5, [ip, #0]	@ zero_extendqisi2	@ temp.2994, <variable>.nal_used_segment
	cmp	r5, #0	@ temp.2994,
	moveq	r6, r5	@ code_len_byte, temp.2994
	moveq	r7, r5	@ temp.2994, temp.2994
	beq	.L835	@,
	mov	r7, r5, asl #3	@ temp.2994, temp.2994,
	mov	r3, #28	@ ivtmp.2945,
	rsb	r1, r5, r7	@ tmp178, temp.2994, temp.2994
	ldr	r6, [ip, #12]	@ code_len_byte, <variable>.bitstream_length
	add	r2, ip, r3	@ ivtmp.2946, temp.2993,
	mov	r1, r1, asl #2	@ D.46225, tmp178,
	cmp	r3, r1	@ ivtmp.2945, D.46225
	sub	lr, r1, #28	@ tmp452, D.46225,
	ubfx	r0, lr, #2, #1	@ tmp456, tmp452,,
	beq	.L835	@,
	cmp	r0, #0	@ tmp456,
	beq	.L836	@,
	ldr	lr, [r2, #12]	@ <variable>.bitstream_length, <variable>.bitstream_length
	mov	r3, #56	@ ivtmp.2945,
	cmp	r3, r1	@ ivtmp.2945, D.46225
	add	r2, ip, r3	@ ivtmp.2946, temp.2993,
	add	r6, r6, lr	@ code_len_byte, code_len_byte, <variable>.bitstream_length
	beq	.L835	@,
.L836:
	ldr	lr, [r2, #12]	@ <variable>.bitstream_length, <variable>.bitstream_length
	add	r3, r3, #56	@ ivtmp.2945, ivtmp.2945,
	ldr	r0, [r2, #40]	@ <variable>.bitstream_length, <variable>.bitstream_length
	cmp	r3, r1	@ ivtmp.2945, D.46225
	add	r6, r6, lr	@ code_len_byte, code_len_byte, <variable>.bitstream_length
	add	r2, r2, #56	@ ivtmp.2946, ivtmp.2946,
	add	r6, r6, r0	@ code_len_byte, code_len_byte, <variable>.bitstream_length
	bne	.L836	@,
.L835:
	rsb	r3, r5, r7	@ tmp186, temp.2994, temp.2994
	ldr	r2, [ip, #64]	@ <variable>.nal_bitoffset, <variable>.nal_bitoffset
	mov	r0, #7	@,
	movw	r1, #:lower16:.LC3	@,
	add	lr, ip, r3, asl #2	@, tmp188, temp.2993, tmp186,
	movt	r1, #:upper16:.LC3	@,
	mov	r3, r6	@, code_len_byte
	ldr	lr, [lr, #12]	@ <variable>.bitstream_length, <variable>.bitstream_length
	str	lr, [sp, #0]	@ <variable>.bitstream_length,
	ldr	lr, [ip, #72]	@ <variable>.nal_trail_zero_bit_num, <variable>.nal_trail_zero_bit_num
	str	lr, [sp, #4]	@ <variable>.nal_trail_zero_bit_num,
	bl	dprint_vfmw	@
	ldr	r3, [r4, #368]	@ temp.2950, <variable>.pCurrNal
	ldrb	r0, [r3, #0]	@ zero_extendqisi2	@ <variable>.nal_used_segment, <variable>.nal_used_segment
	ldr	r1, [r3, #64]	@ <variable>.nal_bitoffset, <variable>.nal_bitoffset
	rsb	r2, r0, r0, asl #3	@, tmp196, <variable>.nal_used_segment, <variable>.nal_used_segment,
	and	r0, r1, #7	@ tmp201, <variable>.nal_bitoffset,
	add	ip, r3, r2, asl #2	@, tmp198, temp.2950, tmp196,
	str	r0, [ip, #24]	@ tmp201, <variable>.bitsoffset
	ldr	r1, [r4, #368]	@ temp.2953, <variable>.pCurrNal
	ldrb	r3, [r1, #0]	@ zero_extendqisi2	@ temp.2956, <variable>.nal_used_segment
	ldr	ip, [r1, #64]	@ <variable>.nal_bitoffset, <variable>.nal_bitoffset
	rsb	r2, r3, r3, asl #3	@, tmp205, temp.2956, temp.2956,
	add	r3, r1, r2, asl #2	@, tmp207, temp.2953, tmp205,
	ldr	r0, [r3, #16]	@ <variable>.stream_phy_addr, <variable>.stream_phy_addr
	add	r2, r0, ip, lsr #3	@, tmp218, <variable>.stream_phy_addr, <variable>.nal_bitoffset,
	rsb	r1, r6, r2	@ tmp220, code_len_byte, tmp218
	str	r1, [r3, #28]	@ tmp220, <variable>.bytespos
	ldr	r3, [r4, #368]	@ temp.2957, <variable>.pCurrNal
	ldrb	ip, [r3, #0]	@ zero_extendqisi2	@ temp.2959, <variable>.nal_used_segment
	ldr	r1, [r3, #64]	@ <variable>.nal_bitoffset, <variable>.nal_bitoffset
	rsb	r0, ip, ip, asl #3	@, tmp224, temp.2959, temp.2959,
	add	ip, r3, r0, asl #2	@, tmp226, temp.2957, tmp224,
	ldr	r2, [ip, #12]	@ <variable>.bitstream_length, <variable>.bitstream_length
	add	r6, r6, r2	@ tmp235, code_len_byte, <variable>.bitstream_length
	rsb	r6, r1, r6, asl #3	@, tmp239, <variable>.nal_bitoffset, tmp235,
	str	r6, [ip, #20]	@ tmp239, <variable>.valid_bitlen
	b	.L861	@
.L862:
	rsb	r0, r2, r1	@ tmp251, temp.2991, tmp443
	add	lr, r3, r0, asl #2	@, tmp253, temp.2973, tmp251,
	ldr	ip, [lr, #24]	@ <variable>.bitsoffset, <variable>.bitsoffset
	add	r1, ip, #8	@ tmp263, <variable>.bitsoffset,
	str	r1, [lr, #24]	@ tmp263, <variable>.bitsoffset
	ldr	r0, [r4, #368]	@ temp.2964, <variable>.pCurrNal
	ldrb	r2, [r0, #0]	@ zero_extendqisi2	@ temp.2966, <variable>.nal_used_segment
	rsb	ip, r2, r2, asl #3	@, tmp267, temp.2966, temp.2966,
	add	r3, r0, ip, asl #2	@, tmp269, temp.2964, tmp267,
	add	r1, r3, #24	@ tmp270, tmp269,
	ldr	lr, [r1, #4]	@ <variable>.bytespos, <variable>.bytespos
	sub	r2, lr, #1	@ tmp279, <variable>.bytespos,
	str	r2, [r1, #4]	@ tmp279, <variable>.bytespos
.L861:
	ldr	r3, [r4, #368]	@ temp.2973, <variable>.pCurrNal
	ldrb	r2, [r3, #0]	@ zero_extendqisi2	@ temp.2991, <variable>.nal_used_segment
	mov	r1, r2, asl #3	@ tmp443, temp.2991,
	rsb	r0, r2, r1	@ tmp243, temp.2991, tmp443
	add	ip, r3, r0, asl #2	@, tmp245, temp.2973, tmp243,
	ldr	lr, [ip, #28]	@ temp.2967, <variable>.bytespos
	tst	lr, #3	@ temp.2967,
	bne	.L862	@,
	rsb	r7, r5, r7	@ tmp292, temp.2994, temp.2994
	mov	r2, r5	@, temp.2994
	mov	r0, #7	@,
	movw	r1, #:lower16:.LC4	@,
	add	r7, r3, r7, asl #2	@, tmp294, temp.2973, tmp292,
	movt	r1, #:upper16:.LC4	@,
	ldr	ip, [r7, #20]	@ <variable>.valid_bitlen, <variable>.valid_bitlen
	ldr	r3, [r7, #24]	@ <variable>.bitsoffset, <variable>.bitsoffset
	stmia	sp, {ip, lr}	@ phole stm
	bl	dprint_vfmw	@
	ldr	r2, [r4, #368]	@ temp.2968, <variable>.pCurrNal
	ldrb	r5, [r2, #0]	@ zero_extendqisi2	@ <variable>.nal_used_segment, <variable>.nal_used_segment
	ldr	r3, [r2, #68]	@ temp.2969, <variable>.nal_segment
	add	r5, r5, #1	@ i.2972, <variable>.nal_used_segment,
	cmp	r5, r3	@ i.2972, temp.2969
	bcs	.L839	@,
	mov	r6, #0	@ tmp447,
.L848:
	mov	ip, r5, asl #3	@ tmp440, i.2972,
	rsb	r1, r5, ip	@ tmp309, i.2972, tmp440
	mov	r1, r1, asl #2	@ tmp310, tmp309,
	add	lr, r1, r2	@ tmp311, tmp310, temp.2968
	str	r6, [lr, #24]	@ tmp447, <variable>.bitsoffset
	ldr	r2, [r4, #368]	@ temp.2974, <variable>.pCurrNal
	add	r3, r1, r2	@ tmp319, tmp310, temp.2974
	ldr	r0, [r3, #16]	@ <variable>.stream_phy_addr, <variable>.stream_phy_addr
	str	r0, [r3, #28]	@ <variable>.stream_phy_addr, <variable>.bytespos
	ldr	lr, [r4, #368]	@ temp.2975, <variable>.pCurrNal
	add	r3, r1, lr	@ tmp334, tmp310, temp.2975
	ldr	r2, [r3, #12]	@ <variable>.bitstream_length, <variable>.bitstream_length
	mov	r0, r2, asl #3	@ tmp344, <variable>.bitstream_length,
	str	r0, [r3, #20]	@ tmp344, <variable>.valid_bitlen
	ldr	r3, [r4, #368]	@ temp.2963, <variable>.pCurrNal
	add	lr, r1, r3	@ tmp350, tmp310, temp.2963
	ldr	r2, [lr, #28]	@ <variable>.bytespos, <variable>.bytespos
	tst	r2, #3	@ <variable>.bytespos,
	beq	.L840	@,
	mov	r2, r1	@ tmp446, tmp310
.L849:
	add	r0, r2, r3	@ tmp359, tmp446, temp.2963
	ldr	lr, [r0, #24]	@ <variable>.bitsoffset, <variable>.bitsoffset
	add	r1, lr, #8	@ tmp369, <variable>.bitsoffset,
	str	r1, [r0, #24]	@ tmp369, <variable>.bitsoffset
	ldr	r3, [r4, #368]	@ temp.2980, <variable>.pCurrNal
	add	lr, r2, r3	@ tmp375, tmp446, temp.2980
	add	r1, lr, #24	@ tmp376, tmp375,
	ldr	r0, [r1, #4]	@ <variable>.bytespos, <variable>.bytespos
	sub	r3, r0, #1	@ tmp385, <variable>.bytespos,
	str	r3, [r1, #4]	@ tmp385, <variable>.bytespos
	ldr	r3, [r4, #368]	@ temp.2963, <variable>.pCurrNal
	add	lr, r2, r3	@ tmp391, tmp446, temp.2963
	ldr	r0, [lr, #28]	@ <variable>.bytespos, <variable>.bytespos
	tst	r0, #3	@ <variable>.bytespos,
	bne	.L849	@,
.L840:
	rsb	ip, r5, ip	@ tmp398, i.2972, tmp440
	mov	r2, r5	@, i.2972
	mov	r0, #7	@,
	movw	r1, #:lower16:.LC5	@,
	add	lr, r3, ip, asl #2	@, tmp400, temp.2963, tmp398,
	movt	r1, #:upper16:.LC5	@,
	add	r5, r5, #1	@ i.2972, i.2972,
	ldr	ip, [lr, #20]	@ <variable>.valid_bitlen, <variable>.valid_bitlen
	ldr	r3, [lr, #24]	@ <variable>.bitsoffset, <variable>.bitsoffset
	str	ip, [sp, #0]	@ <variable>.valid_bitlen,
	bl	dprint_vfmw	@
	ldr	r2, [r4, #368]	@ temp.2968, <variable>.pCurrNal
	ldr	r3, [r2, #68]	@ temp.2969, <variable>.nal_segment
	cmp	r3, r5	@ temp.2969, i.2972
	bhi	.L848	@,
.L839:
	sub	r3, r3, #1	@ D.41067, temp.2969,
	ldr	r1, [r2, #72]	@ <variable>.nal_trail_zero_bit_num, <variable>.nal_trail_zero_bit_num
	rsb	ip, r3, r3, asl #3	@, tmp414, D.41067, D.41067,
	add	lr, r2, ip, asl #2	@, tmp416, temp.2968, tmp414,
	add	r2, lr, #16	@ tmp417, tmp416,
	ldr	r0, [r2, #4]	@ <variable>.valid_bitlen, <variable>.valid_bitlen
	rsb	r3, r1, r0	@ tmp427, <variable>.nal_trail_zero_bit_num, <variable>.valid_bitlen
	str	r3, [r2, #4]	@ tmp427, <variable>.valid_bitlen
	ldr	r2, [r4, #368]	@ temp.2985, <variable>.pCurrNal
	ldrb	r3, [r2, #0]	@ zero_extendqisi2	@ i, <variable>.nal_used_segment
	ldr	r1, [r2, #68]	@ <variable>.nal_segment, <variable>.nal_segment
	cmp	r1, r3	@ <variable>.nal_segment, i
	bls	.L846	@,
	movw	r5, #51480	@ tmp444,
.L847:
	rsb	r0, r3, r3, asl #3	@, tmp432, i, i,
	ldr	lr, [r4, r5]	@ <variable>.CurrPic.stream_base_addr, <variable>.CurrPic.stream_base_addr
	add	r3, r3, #1	@ i, i,
	add	ip, r2, r0, asl #2	@, tmp434, temp.2985, tmp432,
	ldr	r0, [ip, #28]	@ temp.2988, <variable>.bytespos
	cmp	r0, lr	@ temp.2988, <variable>.CurrPic.stream_base_addr
	strcc	r0, [r4, r5]	@ temp.2988, <variable>.CurrPic.stream_base_addr
	ldrcc	r1, [r2, #68]	@ <variable>.nal_segment, <variable>.nal_segment
	cmp	r1, r3	@ <variable>.nal_segment, i
	bhi	.L847	@,
.L846:
	sub	sp, fp, #28
	ldmfd	sp, {r4, r5, r6, r7, fp, sp, pc}
	.fnend
	.size	CalcStreamBits, .-CalcStreamBits
	.align	2
	.global	IsNewPic
	.type	IsNewPic, %function
IsNewPic:
	.fnstart
.LFB1446:
	@ args = 0, pretend = 0, frame = 0
	@ frame_needed = 1, uses_anonymous_args = 0
	.movsp ip
	mov	ip, sp	@,
	stmfd	sp!, {r3, r4, fp, ip, lr, pc}	@,
	.pad #4
	.save {r3, r4, fp, ip, lr}
	.setfp fp, ip, #-4
	sub	fp, ip, #4	@,,
	push	{lr}
	bl	__gnu_mcount_nc
	movw	ip, #22324	@ tmp151,
	mov	r3, r0	@ pH264Ctx, pH264Ctx
	ldr	r4, [r0, ip]	@ <variable>.PrevSlice.seq_parameter_set_id, <variable>.PrevSlice.seq_parameter_set_id
	movw	lr, #22328	@ tmp157,
	movw	r0, #14332	@ tmp152,
	movw	r2, #20684	@ tmp158,
	ldr	ip, [r3, r0]	@ <variable>.CurrSPS.seq_parameter_set_id, <variable>.CurrSPS.seq_parameter_set_id
	ldr	r2, [r3, r2]	@ <variable>.CurrSlice.pic_parameter_set_id, <variable>.CurrSlice.pic_parameter_set_id
	movw	r1, #22336	@ tmp163,
	ldr	r0, [r3, lr]	@ <variable>.PrevSlice.pic_parameter_set_id, <variable>.PrevSlice.pic_parameter_set_id
	movw	lr, #20692	@ tmp164,
	ldr	r1, [r3, r1]	@ <variable>.PrevSlice.frame_num, <variable>.PrevSlice.frame_num
	cmp	r0, r2	@ <variable>.PrevSlice.pic_parameter_set_id, <variable>.CurrSlice.pic_parameter_set_id
	cmpeq	r4, ip	@, <variable>.PrevSlice.seq_parameter_set_id, <variable>.CurrSPS.seq_parameter_set_id
	ldr	lr, [r3, lr]	@ <variable>.CurrSlice.frame_num, <variable>.CurrSlice.frame_num
	movw	r4, #22320	@ tmp169,
	movw	r0, #20673	@ tmp170,
	ldrb	r2, [r3, r4]	@ zero_extendqisi2	@ D.40291, <variable>.PrevSlice.field_pic_flag
	moveq	ip, #0	@, result.3020
	movne	ip, #1	@, result.3020
	ldrb	r0, [r3, r0]	@ zero_extendqisi2	@ D.40292, <variable>.CurrSlice.field_pic_flag
	cmp	r1, lr	@ <variable>.PrevSlice.frame_num, <variable>.CurrSlice.frame_num
	moveq	r1, ip	@, result.3021, result.3020
	orrne	r1, ip, #1	@,, result.3021, result.3020
	cmp	r2, r0	@ D.40291, D.40292
	orrne	r1, r1, #1	@,, result, result.3021
	cmp	r2, #0	@ D.40291,
	beq	.L864	@,
	cmp	r0, #0	@ D.40292,
	bne	.L872	@,
.L864:
	movw	r4, #22332	@ tmp179,
	movw	ip, #20704	@ tmp180,
	ldr	r2, [r3, r4]	@ D.40305, <variable>.PrevSlice.nal_ref_idc
	ldr	r4, [r3, ip]	@ D.40306, <variable>.CurrSlice.nal_ref_idc
	cmp	r2, r4	@ D.40305, D.40306
	moveq	r4, #0	@ prephitmp.3008,
	beq	.L866	@,
	cmp	r2, #0	@ D.40305,
	moveq	r4, #1	@ prephitmp.3008,
	bne	.L873	@,
.L866:
	movw	r0, #20675	@ tmp184,
	movw	lr, #22322	@ tmp183,
	ldrb	r2, [r3, r0]	@ zero_extendqisi2	@ D.40311, <variable>.CurrSlice.nal_unit_type
	ldrb	r0, [r3, lr]	@ zero_extendqisi2	@ D.40310, <variable>.PrevSlice.nal_unit_type
	cmp	r0, r2	@ D.40310, D.40311
	orrne	r1, r1, #1	@,, result.3022, result
	cmp	r2, #5	@ D.40311,
	orr	r4, r1, r4	@ result.3019, result.3022, prephitmp.3008
	beq	.L874	@,
.L868:
	movw	r0, #16488	@ tmp193,
	ldr	r2, [r3, r0]	@ D.40320, <variable>.CurrSPS.pic_order_cnt_type
	cmp	r2, #0	@ D.40320,
	bne	.L869	@,
	movw	r2, #22348	@ tmp194,
	movw	lr, #19792	@ tmp195,
	movw	r0, #22344	@ tmp200,
	movw	r1, #19788	@ tmp201,
	ldr	ip, [r3, r2]	@ <variable>.PrevSlice.delta_pic_oder_cnt_bottom, <variable>.PrevSlice.delta_pic_oder_cnt_bottom
	ldr	r2, [r3, lr]	@ <variable>.CurrPOC.delta_pic_order_cnt_bottom, <variable>.CurrPOC.delta_pic_order_cnt_bottom
	ldr	lr, [r3, r0]	@ <variable>.PrevSlice.pic_oder_cnt_lsb, <variable>.PrevSlice.pic_oder_cnt_lsb
	ldr	r0, [r3, r1]	@ <variable>.CurrPOC.pic_order_cnt_lsb,
	cmp	lr, r0	@ <variable>.PrevSlice.pic_oder_cnt_lsb, <variable>.CurrPOC.pic_order_cnt_lsb
	cmpeq	ip, r2	@, <variable>.PrevSlice.delta_pic_oder_cnt_bottom, <variable>.CurrPOC.delta_pic_order_cnt_bottom
	moveq	r1, #0	@, result.3023
	movne	r1, #1	@, result.3023
	orr	r4, r4, r1	@ result.3019, result.3019, result.3023
.L870:
	movw	lr, #20724	@ tmp218,
	mov	r0, #19	@,
	ldr	r3, [r3, lr]	@ <variable>.CurrSlice.first_mb_in_slice, <variable>.CurrSlice.first_mb_in_slice
	movw	r1, #:lower16:.LC6	@,
	movt	r1, #:upper16:.LC6	@,
	cmp	r3, #0	@ <variable>.CurrSlice.first_mb_in_slice,
	orreq	r4, r4, #1	@,, result.3025, result.3019
	mov	r2, r4	@, result.3025
	bl	dprint_vfmw	@
	mov	r0, r4	@, result.3025
	ldmfd	sp, {r3, r4, fp, sp, pc}	@
.L869:
	cmp	r2, #1	@ D.40320,
	bne	.L870	@,
	movw	r0, #22356	@ tmp206,
	movw	r1, #22352	@ tmp212,
	ldr	ip, [r3, r0]	@ <variable>.PrevSlice.delta_pic_order_cnt, <variable>.PrevSlice.delta_pic_order_cnt
	movw	r2, #19840	@ tmp207,
	ldr	r0, [r3, r1]	@ <variable>.PrevSlice.delta_pic_order_cnt, <variable>.PrevSlice.delta_pic_order_cnt
	movw	r1, #19836	@ tmp213,
	ldr	lr, [r3, r2]	@ <variable>.CurrPOC.delta_pic_order_cnt, <variable>.CurrPOC.delta_pic_order_cnt
	ldr	r1, [r3, r1]	@ <variable>.CurrPOC.delta_pic_order_cnt,
	cmp	r0, r1	@ <variable>.PrevSlice.delta_pic_order_cnt, <variable>.CurrPOC.delta_pic_order_cnt
	cmpeq	ip, lr	@, <variable>.PrevSlice.delta_pic_order_cnt, <variable>.CurrPOC.delta_pic_order_cnt
	moveq	ip, #0	@, result.3024
	movne	ip, #1	@, result.3024
	orr	r4, r4, ip	@ result.3019, result.3019, result.3024
	b	.L870	@
.L873:
	rsbs	r4, r4, #1	@ prephitmp.3008, D.40306
	movcc	r4, #0	@ prephitmp.3008
	b	.L866	@
.L872:
	movw	r0, #22321	@ tmp173,
	movw	lr, #20674	@ tmp174,
	ldrb	r4, [r3, r0]	@ zero_extendqisi2	@ <variable>.PrevSlice.bottom_field_flag, <variable>.PrevSlice.bottom_field_flag
	ldrb	r2, [r3, lr]	@ zero_extendqisi2	@ <variable>.CurrSlice.bottom_field_flag, <variable>.CurrSlice.bottom_field_flag
	cmp	r4, r2	@ <variable>.PrevSlice.bottom_field_flag, <variable>.CurrSlice.bottom_field_flag
	orrne	r1, r1, #1	@,, result, result
	b	.L864	@
.L874:
	cmp	r0, #5	@ D.40310,
	bne	.L868	@,
	movw	lr, #22340	@ tmp187,
	movw	r2, #20712	@ tmp188,
	ldr	r1, [r3, lr]	@ <variable>.PrevSlice.idr_pic_id, <variable>.PrevSlice.idr_pic_id
	ldr	ip, [r3, r2]	@ <variable>.CurrSlice.idr_pic_id, <variable>.CurrSlice.idr_pic_id
	cmp	r1, ip	@ <variable>.PrevSlice.idr_pic_id, <variable>.CurrSlice.idr_pic_id
	orrne	r4, r4, #1	@,, result.3019, result.3019
	b	.L868	@
	.fnend
	.size	IsNewPic, .-IsNewPic
	.align	2
	.global	PPSSPSCheckTmpId
	.type	PPSSPSCheckTmpId, %function
PPSSPSCheckTmpId:
	.fnstart
.LFB1445:
	@ args = 0, pretend = 0, frame = 0
	@ frame_needed = 1, uses_anonymous_args = 0
	.movsp ip
	mov	ip, sp	@,
	stmfd	sp!, {r4, r5, fp, ip, lr, pc}	@,
	.pad #4
	.save {r4, r5, fp, ip, lr}
	.setfp fp, ip, #-4
	sub	fp, ip, #4	@,,
	push	{lr}
	bl	__gnu_mcount_nc
	mov	r5, r1	@ tmp_pic_parameter_set_id, tmp_pic_parameter_set_id
	mov	r4, r0	@ pH264Ctx, pH264Ctx
	mov	r2, r5	@, tmp_pic_parameter_set_id
	movw	r1, #:lower16:.LC7	@,
	mov	r0, #19	@,
	movt	r1, #:upper16:.LC7	@,
	bl	dprint_vfmw	@
	movw	ip, #13584	@ tmp140,
	ldr	r3, [r4, ip]	@ <variable>.PPS, <variable>.PPS
	mov	r1, #2208	@ tmp142,
	mla	r3, r1, r5, r3	@ pPPS, tmp142, tmp_pic_parameter_set_id, <variable>.PPS
	ldrb	r2, [r3, #19]	@ zero_extendqisi2	@ <variable>.is_valid, <variable>.is_valid
	cmp	r2, #0	@ <variable>.is_valid,
	beq	.L881	@,
	movw	r1, #13572	@ tmp146,
	ldr	r2, [r3, #28]	@ D.40265, <variable>.seq_parameter_set_id
	ldr	r3, [r4, r1]	@ <variable>.MaxSpsNum, <variable>.MaxSpsNum
	sub	lr, r3, #1	@ tmp147, <variable>.MaxSpsNum,
	cmp	r2, lr	@ D.40265, tmp147
	bhi	.L882	@,
	movw	ip, #13580	@ tmp151,
	movw	r1, #3992	@ tmp153,
	ldr	r3, [r4, ip]	@ <variable>.SPS, <variable>.SPS
	mla	lr, r1, r2, r3	@ tmp154, tmp153, D.40265, <variable>.SPS
	ldrb	ip, [lr, #23]	@ zero_extendqisi2	@ <variable>.is_valid, <variable>.is_valid
	cmp	ip, #0	@ <variable>.is_valid,
	movne	r0, #0	@ D.40264,
	ldmnefd	sp, {r4, r5, fp, sp, pc}	@
	mov	r0, #1	@,
	movw	r1, #:lower16:.LC10	@,
	movt	r1, #:upper16:.LC10	@,
	bl	dprint_vfmw	@
	mvn	r0, #0	@ D.40264,
	ldmfd	sp, {r4, r5, fp, sp, pc}	@
.L881:
	mov	r2, r5	@, tmp_pic_parameter_set_id
	mov	r0, #1	@,
	movw	r1, #:lower16:.LC8	@,
	movt	r1, #:upper16:.LC8	@,
	bl	dprint_vfmw	@
	mvn	r0, #0	@ D.40264,
	ldmfd	sp, {r4, r5, fp, sp, pc}	@
.L882:
	mov	r0, #1	@,
	movw	r1, #:lower16:.LC9	@,
	movt	r1, #:upper16:.LC9	@,
	bl	dprint_vfmw	@
	mvn	r0, #0	@ D.40264,
	ldmfd	sp, {r4, r5, fp, sp, pc}	@
	.fnend
	.size	PPSSPSCheckTmpId, .-PPSSPSCheckTmpId
	.align	2
	.global	PPSSPSCheck
	.type	PPSSPSCheck, %function
PPSSPSCheck:
	.fnstart
.LFB1444:
	@ args = 0, pretend = 0, frame = 0
	@ frame_needed = 1, uses_anonymous_args = 0
	.movsp ip
	mov	ip, sp	@,
	stmfd	sp!, {r4, r5, fp, ip, lr, pc}	@,
	.pad #4
	.save {r4, r5, fp, ip, lr}
	.setfp fp, ip, #-4
	sub	fp, ip, #4	@,,
	push	{lr}
	bl	__gnu_mcount_nc
	movw	r5, #20684	@ tmp140,
	mov	r4, r0	@ pH264Ctx, pH264Ctx
	movw	r1, #:lower16:.LC11	@,
	ldr	r2, [r4, r5]	@, <variable>.CurrSlice.pic_parameter_set_id
	movt	r1, #:upper16:.LC11	@,
	mov	r0, #19	@,
	bl	dprint_vfmw	@
	movw	r1, #13584	@ tmp143,
	ldr	r3, [r4, r1]	@ <variable>.PPS, <variable>.PPS
	mov	ip, #2208	@ tmp145,
	ldr	r2, [r4, r5]	@ temp.3072, <variable>.CurrSlice.pic_parameter_set_id
	mla	r3, ip, r2, r3	@ pPPS, tmp145, temp.3072, <variable>.PPS
	ldrb	r1, [r3, #19]	@ zero_extendqisi2	@ <variable>.is_valid, <variable>.is_valid
	cmp	r1, #0	@ <variable>.is_valid,
	beq	.L888	@,
	movw	lr, #13580	@ tmp150,
	ldr	r2, [r3, #28]	@ D.40245, <variable>.seq_parameter_set_id
	ldr	ip, [r4, lr]	@ <variable>.SPS, <variable>.SPS
	movw	r1, #3992	@ tmp152,
	mla	r3, r1, r2, ip	@ tmp153, tmp152, D.40245, <variable>.SPS
	ldrb	lr, [r3, #23]	@ zero_extendqisi2	@ <variable>.is_valid, <variable>.is_valid
	cmp	lr, #0	@ <variable>.is_valid,
	movne	r0, #0	@ D.40243,
	ldmnefd	sp, {r4, r5, fp, sp, pc}	@
	mov	r0, #1	@,
	movw	r1, #:lower16:.LC13	@,
	movt	r1, #:upper16:.LC13	@,
	bl	dprint_vfmw	@
	mvn	r0, #0	@ D.40243,
	ldmfd	sp, {r4, r5, fp, sp, pc}	@
.L888:
	mov	r0, #1	@,
	movw	r1, #:lower16:.LC12	@,
	movt	r1, #:upper16:.LC12	@,
	bl	dprint_vfmw	@
	mvn	r0, #0	@ D.40243,
	ldmfd	sp, {r4, r5, fp, sp, pc}	@
	.fnend
	.size	PPSSPSCheck, .-PPSSPSCheck
	.align	2
	.global	DumpList
	.type	DumpList, %function
DumpList:
	.fnstart
.LFB1421:
	@ args = 0, pretend = 0, frame = 0
	@ frame_needed = 1, uses_anonymous_args = 0
	.movsp ip
	mov	ip, sp	@,
	stmfd	sp!, {r4, r5, r6, r7, r8, fp, ip, lr, pc}	@,
	.pad #4
	.save {r4, r5, r6, r7, r8, fp, ip, lr}
	.setfp fp, ip, #-4
	sub	fp, ip, #4	@,,
	.pad #12
	sub	sp, sp, #12	@,,
	push	{lr}
	bl	__gnu_mcount_nc
	movw	r1, #:lower16:g_PrintEnable	@ tmp146,
	movt	r1, #:upper16:g_PrintEnable	@ tmp146,
	mov	r8, r0	@ pH264Ctx, pH264Ctx
	ldr	r3, [r1, #0]	@ g_PrintEnable, g_PrintEnable
	tst	r3, #8192	@ g_PrintEnable,
	addne	r6, r0, #20480	@ ivtmp.3125, pH264Ctx,
	movne	r7, #0	@ j,
	addne	r6, r6, #236	@ ivtmp.3125, ivtmp.3125,
	beq	.L908	@,
.L891:
	ldr	r2, [r6, #0]	@ tmp154, <variable>.CurrSlice.listXsize
	cmp	r2, #0	@ tmp154,
	beq	.L894	@,
	add	r1, r7, r7, asl #5	@, tmp157, j, j,
	mov	r4, #0	@ i,
	add	r3, r8, r1, asl #2	@, tmp161, pH264Ctx, tmp157,
	add	r5, r3, #26880	@ ivtmp.3117, tmp161,
	add	r5, r5, #148	@ ivtmp.3117, ivtmp.3117,
.L892:
	ldr	ip, [r5], #4	@ tmp150, <variable>.pListX
	mov	r3, r4	@, i
	mov	r0, #13	@,
	movw	r1, #:lower16:.LC14	@,
	mov	r2, r7	@, j
	movt	r1, #:upper16:.LC14	@,
	ldr	ip, [ip, #4]	@ D.38553, <variable>.frame_store
	add	r4, r4, #1	@ i, i,
	ldr	lr, [ip, #544]	@ <variable>.frame_num, <variable>.frame_num
	str	lr, [sp, #0]	@ <variable>.frame_num,
	ldr	ip, [ip, #556]	@ <variable>.poc, <variable>.poc
	str	ip, [sp, #4]	@ <variable>.poc,
	bl	dprint_vfmw	@
	ldr	r0, [r6, #0]	@ tmp153, <variable>.CurrSlice.listXsize
	cmp	r0, r4	@ tmp153, i
	bhi	.L892	@,
.L894:
	add	r7, r7, #1	@ j, j,
	add	r6, r6, #4	@ ivtmp.3125, ivtmp.3125,
	cmp	r7, #2	@ j,
	bne	.L891	@,
	movw	r6, #20716	@ tmp162,
	ldr	r0, [r8, r6]	@ <variable>.CurrSlice.listXsize, <variable>.CurrSlice.listXsize
	cmp	r0, #0	@ <variable>.CurrSlice.listXsize,
	bne	.L912	@,
	movw	r6, #20720	@ tmp181,
	ldr	r1, [r8, r6]	@ <variable>.CurrSlice.listXsize, <variable>.CurrSlice.listXsize
	cmp	r1, #0	@ <variable>.CurrSlice.listXsize,
	bne	.L913	@,
.L908:
	sub	sp, fp, #32
	ldmfd	sp, {r4, r5, r6, r7, r8, fp, sp, pc}
.L913:
	mov	r0, #13	@,
	movw	r1, #:lower16:.LC20	@,
	movt	r1, #:upper16:.LC20	@,
	bl	dprint_vfmw	@
	ldr	r0, [r8, r6]	@ <variable>.CurrSlice.listXsize, <variable>.CurrSlice.listXsize
	cmp	r0, #0	@ <variable>.CurrSlice.listXsize,
	beq	.L902	@,
	add	r5, r8, #27136	@ ivtmp.3107, pH264Ctx,
	add	r4, r5, #24	@ ivtmp.3107, ivtmp.3107,
	mov	r5, #0	@ i.3129,
	b	.L907	@
.L904:
	ldr	lr, [r3, #4]	@ <variable>.frame_store, <variable>.frame_store
	ldr	r2, [lr, #556]	@, <variable>.poc
	bl	dprint_vfmw	@
.L903:
	ldr	r2, [r8, r6]	@ <variable>.CurrSlice.listXsize, <variable>.CurrSlice.listXsize
	add	r5, r5, #1	@ i.3129, i.3129,
	add	r4, r4, #4	@ ivtmp.3107, ivtmp.3107,
	cmp	r2, r5	@ <variable>.CurrSlice.listXsize, i.3129
	bls	.L902	@,
.L907:
	ldr	r3, [r4, #0]	@ D.38574, <variable>.pListX
	ldrb	r2, [r3, #0]	@ zero_extendqisi2	@ <variable>.structure, <variable>.structure
	cmp	r2, #1	@ <variable>.structure,
	beq	.L905	@,
	movw	r1, #:lower16:.LC16	@,
	mov	r0, #13	@,
	movt	r1, #:upper16:.LC16	@,
	bcc	.L904	@,
	cmp	r2, #2	@ <variable>.structure,
	bne	.L903	@,
	ldr	ip, [r3, #4]	@ <variable>.frame_store, <variable>.frame_store
	movw	r1, #:lower16:.LC18	@,
	mov	r0, #13	@,
	movt	r1, #:upper16:.LC18	@,
	add	r5, r5, #1	@ i.3129, i.3129,
	add	r4, r4, #4	@ ivtmp.3107, ivtmp.3107,
	ldr	r2, [ip, #556]	@, <variable>.poc
	bl	dprint_vfmw	@
	ldr	r2, [r8, r6]	@ <variable>.CurrSlice.listXsize, <variable>.CurrSlice.listXsize
	cmp	r2, r5	@ <variable>.CurrSlice.listXsize, i.3129
	bhi	.L907	@,
.L902:
	movw	r1, #:lower16:.LC19	@,
	mov	r0, #13	@,
	movt	r1, #:upper16:.LC19	@,
	bl	dprint_vfmw	@
	b	.L908	@
.L905:
	ldr	r3, [r3, #4]	@ <variable>.frame_store, <variable>.frame_store
	movw	r1, #:lower16:.LC17	@,
	mov	r0, #13	@,
	movt	r1, #:upper16:.LC17	@,
	ldr	r2, [r3, #556]	@, <variable>.poc
	bl	dprint_vfmw	@
	b	.L903	@
.L912:
	mov	r0, #13	@,
	movw	r1, #:lower16:.LC15	@,
	movt	r1, #:upper16:.LC15	@,
	bl	dprint_vfmw	@
	ldr	ip, [r8, r6]	@ <variable>.CurrSlice.listXsize, <variable>.CurrSlice.listXsize
	cmp	ip, #0	@ <variable>.CurrSlice.listXsize,
	beq	.L896	@,
	add	r4, r8, #26880	@ ivtmp.3112, pH264Ctx,
	mov	r5, #0	@ i.3134,
	add	r4, r4, #148	@ ivtmp.3112, ivtmp.3112,
	b	.L901	@
.L898:
	ldr	lr, [r3, #4]	@ <variable>.frame_store, <variable>.frame_store
	ldr	r2, [lr, #556]	@, <variable>.poc
	bl	dprint_vfmw	@
.L897:
	ldr	r2, [r8, r6]	@ <variable>.CurrSlice.listXsize, <variable>.CurrSlice.listXsize
	add	r5, r5, #1	@ i.3134, i.3134,
	add	r4, r4, #4	@ ivtmp.3112, ivtmp.3112,
	cmp	r2, r5	@ <variable>.CurrSlice.listXsize, i.3134
	bls	.L896	@,
.L901:
	ldr	r3, [r4, #0]	@ D.38561, <variable>.pListX
	ldrb	r2, [r3, #0]	@ zero_extendqisi2	@ <variable>.structure, <variable>.structure
	cmp	r2, #1	@ <variable>.structure,
	beq	.L899	@,
	movw	r1, #:lower16:.LC16	@,
	mov	r0, #13	@,
	movt	r1, #:upper16:.LC16	@,
	bcc	.L898	@,
	cmp	r2, #2	@ <variable>.structure,
	bne	.L897	@,
	ldr	ip, [r3, #4]	@ <variable>.frame_store, <variable>.frame_store
	movw	r1, #:lower16:.LC18	@,
	mov	r0, #13	@,
	movt	r1, #:upper16:.LC18	@,
	add	r5, r5, #1	@ i.3134, i.3134,
	add	r4, r4, #4	@ ivtmp.3112, ivtmp.3112,
	ldr	r2, [ip, #556]	@, <variable>.poc
	bl	dprint_vfmw	@
	ldr	r2, [r8, r6]	@ <variable>.CurrSlice.listXsize, <variable>.CurrSlice.listXsize
	cmp	r2, r5	@ <variable>.CurrSlice.listXsize, i.3134
	bhi	.L901	@,
.L896:
	movw	r1, #:lower16:.LC19	@,
	mov	r0, #13	@,
	movt	r1, #:upper16:.LC19	@,
	movw	r6, #20720	@ tmp181,
	bl	dprint_vfmw	@
	ldr	r1, [r8, r6]	@ <variable>.CurrSlice.listXsize, <variable>.CurrSlice.listXsize
	cmp	r1, #0	@ <variable>.CurrSlice.listXsize,
	beq	.L908	@,
	b	.L913	@
.L899:
	ldr	r3, [r3, #4]	@ <variable>.frame_store, <variable>.frame_store
	movw	r1, #:lower16:.LC17	@,
	mov	r0, #13	@,
	movt	r1, #:upper16:.LC17	@,
	ldr	r2, [r3, #556]	@, <variable>.poc
	bl	dprint_vfmw	@
	b	.L897	@
	.fnend
	.size	DumpList, .-DumpList
	.align	2
	.global	DumpDPB
	.type	DumpDPB, %function
DumpDPB:
	.fnstart
.LFB1393:
	@ args = 0, pretend = 0, frame = 0
	@ frame_needed = 1, uses_anonymous_args = 0
	.movsp ip
	mov	ip, sp	@,
	stmfd	sp!, {r4, r5, r6, r7, fp, ip, lr, pc}	@,
	.pad #4
	.save {r4, r5, r6, r7, fp, ip, lr}
	.setfp fp, ip, #-4
	sub	fp, ip, #4	@,,
	.pad #8
	sub	sp, sp, #8	@,,
	push	{lr}
	bl	__gnu_mcount_nc
	movw	r1, #:lower16:g_PrintEnable	@ tmp144,
	movt	r1, #:upper16:g_PrintEnable	@ tmp144,
	mov	r5, r0	@ pH264Ctx, pH264Ctx
	ldr	r3, [r1, #0]	@ g_PrintEnable, g_PrintEnable
	tst	r3, #16384	@ g_PrintEnable,
	beq	.L920	@,
	movw	r7, #26620	@ tmp147,
	ldr	r0, [r0, r7]	@ <variable>.DPB.used_size, <variable>.DPB.used_size
	cmp	r0, #0	@ <variable>.DPB.used_size,
	beq	.L916	@,
	add	r6, r5, #26368	@ ivtmp.3189, pH264Ctx,
	mov	r4, #0	@ i,
	add	r6, r6, #56	@ ivtmp.3189, ivtmp.3189,
.L917:
	ldr	ip, [r6], #4	@ D.37232, <variable>.DPB.fs
	mov	r2, r4	@, i
	mov	r0, #14	@,
	movw	r1, #:lower16:.LC21	@,
	movt	r1, #:upper16:.LC21	@,
	add	r4, r4, #1	@ i, i,
	ldr	lr, [ip, #556]	@ <variable>.poc, <variable>.poc
	ldr	r3, [ip, #544]	@ <variable>.frame_num, <variable>.frame_num
	str	lr, [sp, #0]	@ <variable>.poc,
	ldrb	ip, [ip, #2]	@ zero_extendqisi2	@ <variable>.is_reference, <variable>.is_reference
	str	ip, [sp, #4]	@ <variable>.is_reference,
	bl	dprint_vfmw	@
	ldr	r2, [r5, r7]	@ <variable>.DPB.used_size, <variable>.DPB.used_size
	cmp	r2, r4	@ <variable>.DPB.used_size, i
	bhi	.L917	@,
.L916:
	mov	r0, #14	@,
	movw	r1, #:lower16:.LC19	@,
	mov	r7, #26624	@ tmp155,
	movt	r1, #:upper16:.LC19	@,
	bl	dprint_vfmw	@
	ldr	r3, [r5, r7]	@ <variable>.DPB.ref_frames_in_buffer, <variable>.DPB.ref_frames_in_buffer
	cmp	r3, #0	@ <variable>.DPB.ref_frames_in_buffer,
	beq	.L918	@,
	add	r4, r5, #26368	@ ivtmp.3184, pH264Ctx,
	add	r6, r4, #120	@ ivtmp.3184, ivtmp.3184,
	mov	r4, #0	@ i.3194,
.L919:
	ldr	ip, [r6, #0]	@ D.37240, <variable>.DPB.fs_ref
	mov	r2, r4	@, i.3194
	mov	r0, #14	@,
	movw	r1, #:lower16:.LC22	@,
	movt	r1, #:upper16:.LC22	@,
	ldr	lr, [ip, #556]	@ <variable>.poc, <variable>.poc
	ldr	r3, [ip, #544]	@ <variable>.frame_num, <variable>.frame_num
	str	lr, [sp, #0]	@ <variable>.poc,
	ldrb	lr, [ip, #2]	@ zero_extendqisi2	@ <variable>.is_reference, <variable>.is_reference
	str	lr, [sp, #4]	@ <variable>.is_reference,
	bl	dprint_vfmw	@
	ldr	ip, [r6], #4	@ tmp161, <variable>.DPB.fs_ref
	mov	r2, r4	@, i.3194
	mov	r0, #14	@,
	movw	r1, #:lower16:.LC23	@,
	movt	r1, #:upper16:.LC23	@,
	add	r4, r4, #1	@ i.3194, i.3194,
	ldr	r3, [ip, #448]	@, <variable>.frame.poc
	bl	dprint_vfmw	@
	ldr	r1, [r5, r7]	@ <variable>.DPB.ref_frames_in_buffer, <variable>.DPB.ref_frames_in_buffer
	cmp	r1, r4	@ <variable>.DPB.ref_frames_in_buffer, i.3194
	bhi	.L919	@,
.L918:
	movw	r1, #:lower16:.LC19	@,
	mov	r0, #14	@,
	movt	r1, #:upper16:.LC19	@,
	bl	dprint_vfmw	@
.L920:
	sub	sp, fp, #28
	ldmfd	sp, {r4, r5, r6, r7, fp, sp, pc}
	.fnend
	.size	DumpDPB, .-DumpDPB
	.align	2
	.global	IsRefListWrong
	.type	IsRefListWrong, %function
IsRefListWrong:
	.fnstart
.LFB1482:
	@ args = 0, pretend = 0, frame = 0
	@ frame_needed = 1, uses_anonymous_args = 0
	.movsp ip
	mov	ip, sp	@,
	stmfd	sp!, {r3, r4, r5, r6, r7, r8, fp, ip, lr, pc}	@,
	.pad #4
	.save {r3, r4, r5, r6, r7, r8, fp, ip, lr}
	.setfp fp, ip, #-4
	sub	fp, ip, #4	@,,
	push	{lr}
	bl	__gnu_mcount_nc
	movw	r8, #20716	@ tmp143,
	ldr	r3, [r0, r8]	@ <variable>.CurrSlice.listXsize, <variable>.CurrSlice.listXsize
	mov	r4, r0	@ pH264Ctx, pH264Ctx
	cmp	r3, #0	@ <variable>.CurrSlice.listXsize,
	beq	.L924	@,
	add	r5, r0, #26880	@ ivtmp.3235, pH264Ctx,
	mov	r6, #0	@ i,
	add	r5, r5, #148	@ ivtmp.3235, ivtmp.3235,
	movw	r7, #54168	@ tmp167,
	b	.L926	@
.L933:
	ldr	ip, [r0, #440]	@ <variable>.pstDecodeFs, <variable>.pstDecodeFs
	cmp	ip, #0	@ <variable>.pstDecodeFs,
	beq	.L925	@,
	ldr	r3, [r4, r8]	@ D.43384, <variable>.CurrSlice.listXsize
	cmp	r3, r6	@ D.43384, i
	bls	.L932	@,
.L926:
	ldr	r1, [r5, #0]	@ tmp148, <variable>.pListX
	add	r6, r6, #1	@ i, i,
	ldr	r0, [r4, r7]	@, <variable>.ChanID
	add	r5, r5, #4	@ ivtmp.3235, ivtmp.3235,
	ldr	r2, [r1, #4]	@ <variable>.frame_store, <variable>.frame_store
	ldr	r1, [r2, #540]	@, <variable>.logic_fs_id
	bl	FSP_GetLogicFs	@
	cmp	r0, #0	@ pstLogicFs
	bne	.L933	@,
.L925:
	mvn	r0, #0	@ ret,
	ldmfd	sp, {r3, r4, r5, r6, r7, r8, fp, sp, pc}	@
.L924:
	mov	r0, #0	@ ret,
	ldmfd	sp, {r3, r4, r5, r6, r7, r8, fp, sp, pc}	@
.L932:
	cmp	r3, #0	@ D.43384,
	beq	.L924	@,
	movw	r8, #20720	@ tmp153,
	ldr	r0, [r4, r8]	@ <variable>.CurrSlice.listXsize, <variable>.CurrSlice.listXsize
	cmp	r0, #0	@ <variable>.CurrSlice.listXsize,
	beq	.L924	@,
	add	r6, r4, #27136	@ ivtmp.3230, pH264Ctx,
	movw	r7, #54168	@ tmp165,
	add	r5, r6, #24	@ ivtmp.3230, ivtmp.3230,
	mov	r6, #0	@ i.3243,
	b	.L927	@
.L934:
	ldr	r2, [r0, #440]	@ <variable>.pstDecodeFs, <variable>.pstDecodeFs
	cmp	r2, #0	@ <variable>.pstDecodeFs,
	beq	.L925	@,
	ldr	r1, [r4, r8]	@ <variable>.CurrSlice.listXsize, <variable>.CurrSlice.listXsize
	cmp	r1, r6	@ <variable>.CurrSlice.listXsize, i.3243
	bls	.L924	@,
.L927:
	ldr	r3, [r5, #0]	@ tmp158, <variable>.pListX
	add	r6, r6, #1	@ i.3243, i.3243,
	ldr	r0, [r4, r7]	@, <variable>.ChanID
	add	r5, r5, #4	@ ivtmp.3230, ivtmp.3230,
	ldr	lr, [r3, #4]	@ <variable>.frame_store, <variable>.frame_store
	ldr	r1, [lr, #540]	@, <variable>.logic_fs_id
	bl	FSP_GetLogicFs	@
	cmp	r0, #0	@ pstLogicFs.3241
	bne	.L934	@,
	b	.L925	@
	.fnend
	.size	IsRefListWrong, .-IsRefListWrong
	.align	2
	.global	WriteSliceMsg
	.type	WriteSliceMsg, %function
WriteSliceMsg:
	.fnstart
.LFB1439:
	@ args = 0, pretend = 0, frame = 16
	@ frame_needed = 1, uses_anonymous_args = 0
	.movsp ip
	mov	ip, sp	@,
	stmfd	sp!, {r4, r5, r6, r7, r8, r9, sl, fp, ip, lr, pc}	@,
	.pad #4
	.save {r4, r5, r6, r7, r8, r9, sl, fp, ip, lr}
	.setfp fp, ip, #-4
	sub	fp, ip, #4	@,,
	.pad #20
	sub	sp, sp, #20	@,,
	push	{lr}
	bl	__gnu_mcount_nc
	movw	r3, #54092	@ tmp196,
	ldr	r2, [r0, r3]	@, <variable>.SliceParaNum
	mov	r4, #13568	@ tmp201,
	mov	r6, r0	@ pH264Ctx, pH264Ctx
	movw	r1, #4060	@ tmp200,
	str	r2, [fp, #-48]	@, %sfp
	ldr	ip, [fp, #-48]	@, %sfp
	ldr	r0, [r0, r4]	@ <variable>.MaxSliceNum, <variable>.MaxSliceNum
	add	r2, ip, #1	@ D.39870,,
	str	r2, [r6, r3]	@ D.39870, <variable>.SliceParaNum
	sub	r7, r0, #1	@ tmp202, <variable>.MaxSliceNum,
	movw	r0, #54088	@ tmp198,
	cmp	ip, r7	@, tmp202
	mul	r4, r1, ip	@ tmp199, tmp200,
	ldr	ip, [r6, r0]	@ D.39871, <variable>.DecSlicePara
	movcs	r3, #0	@ tmp207,
	mlacc	r2, r1, r2, ip	@ tmp206, tmp200, D.39870, D.39871
	add	r7, ip, r4	@ pCurrSlicePara, D.39871, tmp199
	strcs	r3, [r7, #4056]	@ tmp207, <variable>.pNextSlice
	strcc	r2, [r7, #4056]	@ tmp206, <variable>.pNextSlice
	ldr	r1, [r6, #368]	@ D.39882, <variable>.pCurrNal
	ldrb	r3, [r1, #0]	@ zero_extendqisi2	@ i.3448, <variable>.nal_used_segment
	ldr	r0, [r1, #68]	@ i.3590, <variable>.nal_segment
	cmp	r3, #1	@ i.3448,
	cmpls	r3, r0	@, i.3448, i.3590
	bcs	.L938	@,
	add	r5, r3, #4	@ tmp215, i.3448,
	add	r2, r7, r5, asl #2	@, ivtmp.3438, pCurrSlicePara, tmp215,
.L939:
	rsb	r0, r3, r3, asl #3	@, tmp220, i.3448, i.3448,
	add	r3, r3, #1	@ i.3448, i.3448,
	mov	r5, r0, asl #2	@ tmp221, tmp220,
	add	r1, r5, r1	@ tmp222, tmp221, D.39882
	ldr	r1, [r1, #24]	@ <variable>.bitsoffset, <variable>.bitsoffset
	str	r1, [r2, #0]	@ <variable>.bitsoffset, <variable>.bitsoffset
	ldr	r1, [r6, #368]	@ <variable>.pCurrNal, <variable>.pCurrNal
	add	r1, r5, r1	@ tmp231, tmp221, <variable>.pCurrNal
	ldr	r1, [r1, #20]	@ <variable>.valid_bitlen, <variable>.valid_bitlen
	str	r1, [r2, #-8]	@ <variable>.valid_bitlen, <variable>.valid_bitlen
	ldr	r1, [r6, #368]	@ <variable>.pCurrNal, <variable>.pCurrNal
	add	r0, r5, r1	@ tmp240, tmp221, <variable>.pCurrNal
	cmp	r3, #1	@ i.3448,
	movhi	r5, #0	@, tmp249
	movls	r5, #1	@, tmp249
	ldr	r1, [r0, #28]	@ <variable>.bytespos, <variable>.bytespos
	str	r1, [r2, #8]	@ <variable>.bytespos, <variable>.bytespos
	add	r2, r2, #4	@ ivtmp.3438, ivtmp.3438,
	ldr	r1, [r6, #368]	@ D.39882, <variable>.pCurrNal
	ldr	r0, [r1, #68]	@ i.3590, <variable>.nal_segment
	cmp	r0, r3	@ i.3590, i.3448
	movls	r5, #0	@, tmp249,
	cmp	r5, #0	@ tmp249,
	bne	.L939	@,
.L938:
	cmp	r0, #1	@ i.3590,
	bhi	.L940	@,
	add	r3, r0, #4	@ tmp250, i.3590,
	add	r1, r7, #24	@ D.46742, pCurrSlicePara,
	mov	r2, #0	@ tmp589,
	add	r0, r7, r3, asl #2	@, ivtmp.3431, pCurrSlicePara, tmp250,
	add	r3, r0, #4	@ ivtmp.3431, ivtmp.3431,
	rsb	r5, r0, r1	@ tmp602, ivtmp.3431, D.46742
	cmp	r3, r1	@ ivtmp.3431, D.46742
	sub	r5, r5, #4	@ tmp603, tmp602,
	ubfx	r5, r5, #2, #1	@ tmp604, tmp603,,
	str	r2, [r0, #0]	@ tmp589, <variable>.bitsoffset
	str	r2, [r0, #-8]	@ tmp589, <variable>.valid_bitlen
	str	r2, [r0, #8]	@ tmp589, <variable>.bytespos
	beq	.L940	@,
	cmp	r5, #0	@ tmp604,
	beq	.L941	@,
	str	r2, [r3, #0]	@ tmp589, <variable>.bitsoffset
	str	r2, [r3, #-8]	@ tmp589, <variable>.valid_bitlen
	str	r2, [r3, #8]	@ tmp589, <variable>.bytespos
	add	r3, r3, #4	@ ivtmp.3431, ivtmp.3431,
	cmp	r3, r1	@ ivtmp.3431, D.46742
	beq	.L940	@,
.L941:
	add	r0, r3, #4	@ tmp605, ivtmp.3431,
	str	r2, [r3, #-8]	@ tmp589, <variable>.valid_bitlen
	str	r2, [r3, #8]	@ tmp589, <variable>.bytespos
	str	r2, [r3, #4]	@ tmp589, <variable>.bitsoffset
	str	r2, [r3, #0]	@ tmp589, <variable>.bitsoffset
	add	r3, r0, #4	@ ivtmp.3431, tmp605,
	cmp	r3, r1	@ ivtmp.3431, D.46742
	str	r2, [r0, #-8]	@ tmp589, <variable>.valid_bitlen
	str	r2, [r0, #8]	@ tmp589, <variable>.bytespos
	bne	.L941	@,
.L940:
	movw	r0, #50985	@ tmp255,
	ldr	r2, [fp, #-48]	@, %sfp
	ldrb	r3, [r6, r0]	@ zero_extendqisi2	@ <variable>.CurrPic.MbaffFrameFlag, <variable>.CurrPic.MbaffFrameFlag
	movw	r1, #17628	@ tmp258,
	movw	r0, #22284	@ tmp259,
	cmp	r2, #0	@,
	strb	r3, [r7, #1]	@ <variable>.CurrPic.MbaffFrameFlag, <variable>.MbaffFrameFlag
	ldr	r3, [r6, r0]	@ <variable>.CurrSlice.slice_qp_delta, <variable>.CurrSlice.slice_qp_delta
	ldr	r2, [r6, r1]	@ <variable>.CurrPPS.pic_init_qp_minus26, <variable>.CurrPPS.pic_init_qp_minus26
	add	r1, r2, r3	@ tmp260, <variable>.CurrPPS.pic_init_qp_minus26, <variable>.CurrSlice.slice_qp_delta
	add	r3, r1, #26	@ D.39896, tmp260,
	str	r3, [r7, #32]	@ D.39896, <variable>.SliceQPy
	bne	.L942	@,
	movw	r2, #51416	@ tmp264,
	ldr	r0, [r6, r2]	@ <variable>.CurrPic.frame_store, <variable>.CurrPic.frame_store
	str	r3, [r0, #460]	@ D.39896, <variable>.frame.MaxQp
	ldr	r3, [r6, r2]	@ <variable>.CurrPic.frame_store, <variable>.CurrPic.frame_store
	ldr	r1, [r7, #32]	@ <variable>.SliceQPy, <variable>.SliceQPy
	str	r1, [r3, #464]	@ <variable>.SliceQPy, <variable>.frame.MinQp
.L943:
	movw	r3, #22280	@ tmp273,
	movw	r1, #20732	@ tmp275,
	ldr	r2, [r6, r3]	@ <variable>.CurrSlice.cabac_init_idc, <variable>.CurrSlice.cabac_init_idc
	movw	r3, #20672	@ tmp279,
	str	r2, [r7, #36]	@ <variable>.CurrSlice.cabac_init_idc, <variable>.cabac_init_idc
	movw	r2, #20728	@ tmp277,
	ldr	r0, [r6, r1]	@ <variable>.CurrSlice.num_ref_idx_l1_active_minus1, <variable>.CurrSlice.num_ref_idx_l1_active_minus1
	str	r0, [r7, #40]	@ <variable>.CurrSlice.num_ref_idx_l1_active_minus1, <variable>.num_ref_idx_l1_active_minus1
	ldr	r1, [r6, r2]	@ <variable>.CurrSlice.num_ref_idx_l0_active_minus1, <variable>.CurrSlice.num_ref_idx_l0_active_minus1
	movw	r2, #20724	@ tmp282,
	str	r1, [r7, #44]	@ <variable>.CurrSlice.num_ref_idx_l0_active_minus1, <variable>.num_ref_idx_l0_active_minus1
	movw	r1, #20678	@ tmp284,
	ldrb	r0, [r6, r3]	@ zero_extendqisi2	@ <variable>.CurrSlice.slice_type, <variable>.CurrSlice.slice_type
	strb	r0, [ip, r4]	@ <variable>.CurrSlice.slice_type, <variable>.slice_type
	ldr	ip, [r6, r2]	@ <variable>.CurrSlice.first_mb_in_slice, <variable>.CurrSlice.first_mb_in_slice
	movw	r2, #13608	@ tmp287,
	str	ip, [r7, #48]	@ <variable>.CurrSlice.first_mb_in_slice, <variable>.first_mb_in_slice
	ldrb	r0, [r6, r1]	@ zero_extendqisi2	@ <variable>.CurrSlice.direct_spatial_mv_pred_flag, <variable>.CurrSlice.direct_spatial_mv_pred_flag
	movw	r1, #20716	@ tmp290,
	strb	r0, [r7, #2]	@ <variable>.CurrSlice.direct_spatial_mv_pred_flag, <variable>.direct_spatial_mv_pred_flag
	ldrb	ip, [r6, r2]	@ zero_extendqisi2	@ <variable>.CurrSPS.direct_8x8_inference_flag, <variable>.CurrSPS.direct_8x8_inference_flag
	movw	r2, #20720	@ tmp292,
	strb	ip, [r7, #3]	@ <variable>.CurrSPS.direct_8x8_inference_flag, <variable>.direct_8x8_inference_flag
	ldr	r0, [r6, r1]	@ <variable>.CurrSlice.listXsize, <variable>.CurrSlice.listXsize
	str	r0, [r7, #52]	@ <variable>.CurrSlice.listXsize, <variable>.listXsize
	ldr	ip, [r6, r2]	@ <variable>.CurrSlice.listXsize, <variable>.CurrSlice.listXsize
	str	ip, [r7, #56]	@ <variable>.CurrSlice.listXsize, <variable>.listXsize
	ldrb	r3, [r6, r3]	@ zero_extendqisi2	@ temp.3455, <variable>.CurrSlice.slice_type
	cmp	r3, #1	@ temp.3455,
	beq	.L1029	@,
	cmp	r3, #0	@ temp.3455,
	movweq	r3, #17582	@ tmp298,
	movne	r3, #0	@ tmp301,
	ldreqb	r3, [r6, r3]	@ zero_extendqisi2	@ <variable>.CurrPPS.weighted_pred_flag, <variable>.CurrPPS.weighted_pred_flag
	strb	r3, [r7, #4]	@ tmp301, <variable>.weight_flag
.L945:
	movw	r2, #17632	@ tmp303,
	movw	r0, #17636	@ tmp305,
	ldr	r1, [r6, r2]	@ <variable>.CurrPPS.chroma_qp_index_offset, <variable>.CurrPPS.chroma_qp_index_offset
	movw	r3, #22292	@ tmp307,
	str	r1, [r7, #60]	@ <variable>.CurrPPS.chroma_qp_index_offset, <variable>.chroma_qp_index_offset
	movw	r1, #22296	@ tmp309,
	ldr	ip, [r6, r0]	@ <variable>.CurrPPS.second_chroma_qp_index_offset, <variable>.CurrPPS.second_chroma_qp_index_offset
	str	ip, [r7, #64]	@ <variable>.CurrPPS.second_chroma_qp_index_offset, <variable>.second_chroma_qp_index_offset
	movw	ip, #22288	@ tmp311,
	ldr	r2, [r6, r3]	@ <variable>.CurrSlice.slice_alpha_c0_offset_div2, <variable>.CurrSlice.slice_alpha_c0_offset_div2
	str	r2, [r7, #68]	@ <variable>.CurrSlice.slice_alpha_c0_offset_div2, <variable>.slice_alpha_c0_offset_div2
	movw	r2, #20672	@ tmp313,
	ldr	r0, [r6, r1]	@ <variable>.CurrSlice.slice_beta_offset_div2, <variable>.CurrSlice.slice_beta_offset_div2
	str	r0, [r7, #72]	@ <variable>.CurrSlice.slice_beta_offset_div2, <variable>.slice_beta_offset_div2
	ldr	r3, [r6, ip]	@ <variable>.CurrSlice.disable_deblocking_filter_idc, <variable>.CurrSlice.disable_deblocking_filter_idc
	str	r3, [r7, #76]	@ <variable>.CurrSlice.disable_deblocking_filter_idc, <variable>.disable_deblocking_filter_idc
	ldrb	r1, [r6, r2]	@ zero_extendqisi2	@ <variable>.CurrSlice.slice_type, <variable>.CurrSlice.slice_type
	cmp	r1, #2	@ <variable>.CurrSlice.slice_type,
	beq	.L947	@,
	movw	r8, #20716	@ tmp315,
	ldr	r4, [r6, r8]	@ temp.3610, <variable>.CurrSlice.listXsize
	cmp	r4, #0	@ temp.3610,
	beq	.L948	@,
	movw	ip, #27028	@ tmp317,
	ldr	r3, [r6, ip]	@ <variable>.pListX, <variable>.pListX
	ldr	r3, [r3, #4]	@ temp.3585, <variable>.frame_store
	ldrb	r9, [r3, #0]	@ zero_extendqisi2	@ <variable>.non_existing, <variable>.non_existing
	cmp	r9, #0	@ <variable>.non_existing,
	beq	.L949	@,
	tst	r4, #1	@ temp.3610,
	add	r3, r6, #26880	@ tmp325, pH264Ctx,
	add	r1, r3, #152	@ ivtmp.3425, tmp325,
	mov	r0, #0	@ i.3458,
	bne	.L951	@,
	ldr	r9, [r1, #0]	@ tmp624, <variable>.pListX
	add	r1, r3, #156	@ ivtmp.3425, tmp325,
	mov	r0, #1	@ i.3458,
	ldr	r3, [r9, #4]	@ temp.3585, <variable>.frame_store
	ldrb	r2, [r3, #0]	@ zero_extendqisi2	@ <variable>.non_existing, <variable>.non_existing
	cmp	r2, #0	@ <variable>.non_existing,
	bne	.L951	@,
.L949:
	movw	lr, #54168	@ tmp321,
	ldr	r1, [r3, #540]	@, <variable>.logic_fs_id
	ldr	r0, [r6, lr]	@, <variable>.ChanID
	bl	FSP_GetLogicFs	@
	ldr	r1, [r0, #440]	@ <variable>.pstDecodeFs, <variable>.pstDecodeFs
	ldr	r4, [r1, #4]	@, <variable>.PhyFsID
	str	r4, [fp, #-52]	@, %sfp
	b	.L952	@
.L953:
	ldr	r9, [r2], #4	@ tmp319, <variable>.pListX
	ldr	r3, [r9, #4]	@ temp.3585, <variable>.frame_store
	ldrb	r8, [r3, #0]	@ zero_extendqisi2	@ <variable>.non_existing, <variable>.non_existing
	cmp	r8, #0	@ <variable>.non_existing,
	beq	.L949	@,
	ldr	ip, [r1, #4]	@ tmp626, <variable>.pListX
	add	r1, r2, #4	@ ivtmp.3425, tmp600,
	ldr	r3, [ip, #4]	@ temp.3585, <variable>.frame_store
	ldrb	r8, [r3, #0]	@ zero_extendqisi2	@ <variable>.non_existing, <variable>.non_existing
	cmp	r8, #0	@ <variable>.non_existing,
	beq	.L949	@,
.L951:
	add	r0, r0, #1	@ tmp599, i.3458,
	mov	r2, r1	@ tmp600, ivtmp.3425
	cmp	r0, r4	@ tmp599, temp.3610
	add	r0, r0, #1	@ i.3458, tmp599,
	bcc	.L953	@,
.L948:
	mov	r2, #0	@,
	str	r2, [fp, #-52]	@, %sfp
.L952:
	movw	r3, #20720	@ tmp326,
	ldr	r4, [r6, r3]	@ temp.3606, <variable>.CurrSlice.listXsize
	cmp	r4, #0	@ temp.3606,
	beq	.L954	@,
	movw	r9, #27160	@ tmp328,
	ldr	r8, [r6, r9]	@ <variable>.pListX, <variable>.pListX
	ldr	r3, [r8, #4]	@ temp.3586, <variable>.frame_store
	ldrb	ip, [r3, #0]	@ zero_extendqisi2	@ <variable>.non_existing, <variable>.non_existing
	cmp	ip, #0	@ <variable>.non_existing,
	beq	.L955	@,
	tst	r4, #1	@ temp.3606,
	add	r3, r6, #27136	@ tmp336, pH264Ctx,
	add	r1, r3, #28	@ ivtmp.3420, tmp336,
	mov	r0, #0	@ i.3463,
	bne	.L957	@,
	ldr	r8, [r1, #0]	@ tmp620, <variable>.pListX
	add	r1, r3, #32	@ ivtmp.3420, tmp336,
	mov	r0, #1	@ i.3463,
	ldr	r3, [r8, #4]	@ temp.3586, <variable>.frame_store
	ldrb	r9, [r3, #0]	@ zero_extendqisi2	@ <variable>.non_existing, <variable>.non_existing
	cmp	r9, #0	@ <variable>.non_existing,
	bne	.L957	@,
	b	.L955	@
.L959:
	ldr	r3, [r2], #4	@ tmp330, <variable>.pListX
	ldr	r3, [r3, #4]	@ temp.3586, <variable>.frame_store
	ldrb	ip, [r3, #0]	@ zero_extendqisi2	@ <variable>.non_existing, <variable>.non_existing
	cmp	ip, #0	@ <variable>.non_existing,
	beq	.L955	@,
	ldr	r3, [r1, #4]	@ tmp622, <variable>.pListX
	add	r1, r2, #4	@ ivtmp.3420, tmp595,
	ldr	r3, [r3, #4]	@ temp.3586, <variable>.frame_store
	ldrb	ip, [r3, #0]	@ zero_extendqisi2	@ <variable>.non_existing, <variable>.non_existing
	cmp	ip, #0	@ <variable>.non_existing,
	beq	.L955	@,
.L957:
	add	r0, r0, #1	@ tmp594, i.3463,
	mov	r2, r1	@ tmp595, ivtmp.3420
	cmp	r0, r4	@ tmp594, temp.3606
	add	r0, r0, #1	@ i.3463, tmp594,
	bcc	.L959	@,
.L954:
	mov	r8, #0	@,
	str	r8, [fp, #-60]	@, %sfp
.L958:
	movw	r9, #50979	@ tmp337,
	ldrb	r8, [r6, r9]	@ zero_extendqisi2	@ <variable>.CurrPic.structure, <variable>.CurrPic.structure
	cmp	r8, #0	@ <variable>.CurrPic.structure,
	beq	.L960	@,
	movw	r9, #20716	@ tmp339,
	ldr	ip, [r6, r9]	@ <variable>.CurrSlice.listXsize, <variable>.CurrSlice.listXsize
	cmp	ip, #0	@ <variable>.CurrSlice.listXsize,
	beq	.L962	@,
	add	r8, r6, #26880	@ ivtmp.3400, pH264Ctx,
	mov	r5, r7	@ ivtmp.3405, pCurrSlicePara
	add	r4, r8, #148	@ ivtmp.3400, ivtmp.3400,
	str	r7, [fp, #-56]	@ pCurrSlicePara, %sfp
	mov	r8, #0	@ i.3446,
	movw	sl, #54168	@ tmp586,
	ldr	r7, [fp, #-52]	@ ExistImgIdc_0.3444, %sfp
	b	.L978	@
.L976:
	strb	r3, [r5, #1630]	@ temp.3546, <variable>.btm_structure
	add	r8, r8, #1	@ i.3446, i.3446,
	ldr	ip, [r4, #0]	@ tmp471, <variable>.pListX
	ldrb	r0, [ip, #1]	@ zero_extendqisi2	@ <variable>.is_long_term, <variable>.is_long_term
	strb	r0, [r5, #1631]	@ <variable>.is_long_term, <variable>.btm_is_long_term
	ldr	r3, [r4, #0]	@ tmp474, <variable>.pListX
	add	r4, r4, #4	@ ivtmp.3400, ivtmp.3400,
	ldr	lr, [r3, #16]	@ <variable>.poc, <variable>.poc
	str	lr, [r5, #1656]	@ <variable>.poc, <variable>.btm_poc
	add	r5, r5, #36	@ ivtmp.3405, ivtmp.3405,
	ldr	r2, [r6, r9]	@ <variable>.CurrSlice.listXsize, <variable>.CurrSlice.listXsize
	cmp	r2, r8	@ <variable>.CurrSlice.listXsize, i.3446
	bls	.L1030	@,
.L978:
	ldr	r3, [r4, #0]	@ tmp435, <variable>.pListX
	ldr	r0, [r6, sl]	@, <variable>.ChanID
	ldr	lr, [r3, #4]	@ <variable>.frame_store, <variable>.frame_store
	ldr	r1, [lr, #540]	@, <variable>.logic_fs_id
